	.text
	.file	"endpoint0.c"
	.section	.cp.rodata.cst4,"aMc",@progbits,4
	.cc_top .LCPI0_0.data,.LCPI0_0
	.align	4
	.type	.LCPI0_0,@object
	.size	.LCPI0_0, 4
.LCPI0_0:
	.long	305419896
	.cc_bottom .LCPI0_0.data
	.cc_top .LCPI0_1.data,.LCPI0_1
	.align	4
	.type	.LCPI0_1,@object
	.size	.LCPI0_1, 4
.LCPI0_1:
	.long	50000000
	.cc_bottom .LCPI0_1.data
	.cc_top .LCPI0_2.data,.LCPI0_2
	.align	4
	.type	.LCPI0_2,@object
	.size	.LCPI0_2, 4
.LCPI0_2:
	.long	5000000
	.cc_bottom .LCPI0_2.data
	.text
	.globl	Endpoint0
	.align	4
	.type	Endpoint0,@function
	.cc_top Endpoint0.function,Endpoint0
Endpoint0:
.Lfunc_begin0:
	.loc	6 208 0
	.cfi_startproc
	.issue_mode dual
	{
		nop
		dualentsp 28
	}
.Ltmp0:
	.cfi_def_cfa_offset 112
.Ltmp1:
	.cfi_offset 15, 0
	std r5, r4, sp[10]
.Ltmp2:
	.cfi_offset 4, -32
.Ltmp3:
	.cfi_offset 5, -28
	std r7, r6, sp[11]
.Ltmp4:
	.cfi_offset 6, -24
.Ltmp5:
	.cfi_offset 7, -20
	{
		nop
		stw r8, sp[24]
	}
	{
		nop
		stw r9, sp[25]
	}
.Ltmp6:
	.cfi_offset 8, -16
.Ltmp7:
	.cfi_offset 9, -12
	{
		nop
		stw r10, sp[26]
	}
.Ltmp8:
	.cfi_offset 10, -8
.Ltmp9:
	{
		mov r10, r2
		stw r3, sp[13]
	}
.Ltmp10:
	{
		mov r4, r1
		ldw r1, sp[30]
	}
.Ltmp11:
	{
		nop
		ldw r2, sp[31]
	}
	{
		nop
		stw r2, sp[12]
	}
	.loc	6 210 22 prologue_end
.Ltmp12:
	bl XUD_InitEp
.Ltmp13:
	{
		mov r6, r0
		mov r0, r4
	}
.Ltmp14:
	.loc	6 211 22
	bl XUD_InitEp
	{
		mov r9, r0
		nop
	}
.Ltmp15:
	.loc	6 211 22
	{
		ldc r7, 0
		stw r9, sp[16]
	}
	.loc	6 216 9
.Ltmp16:
	stw r7, dp[volsOut+8]
	stw r7, dp[volsOut+4]
	stw r7, dp[volsOut]
	.loc	6 217 9
	stw r7, dp[mutesOut+8]
	stw r7, dp[mutesOut+4]
	stw r7, dp[mutesOut]
.Ltmp17:
	.loc	6 222 9
	ldaw r0, dp[volsIn]
	{
		ldc r4, 36
		mov r1, r7
	}
	{
		mov r2, r4
		nop
	}
	bl memset
	.loc	6 223 9
	ldaw r0, dp[mutesIn]
	{
		mov r1, r7
		mov r2, r4
	}
	bl memset
.Ltmp18:
	.loc	6 286 9
	{
		mov r0, r7
		nop
	}
	bl DFUReportResetState
	bf r0, .LBB0_2
.Ltmp19:
	{
		ldc r0, 4
		nop
	}
	.loc	6 289 9
.Ltmp20:
	#APP
	out res[r10], r0
	#NO_APP
	ldw r0, cp[.LCPI0_0]
	.loc	6 290 9
	#APP
	out res[r10], r0
	#NO_APP
	{
		mkmsk r0, 1
		nop
	}
	.loc	6 292 9
	stw r0, dp[DFU_mode_active]
.Ltmp21:
.LBB0_2:
	{
		ldaw r5, sp[17]
		ldc r0, 2
	}
	.loc	6 306 13
.Ltmp22:
	{
		or r4, r5, r0
		nop
	}
	{
		ldc r8, 27
		stw r4, sp[14]
	}
	bu .LBB0_3
.Ltmp23:
.LBB0_69:
	{
		nop
		ldw r9, sp[16]
	}
.Ltmp24:
.LBB0_3:
	.loc	6 299 31
	{
		mov r0, r6
		mov r1, r9
	}
	{
		mov r2, r5
		nop
	}
	bl USB_GetSetupPacket
	{
		mov r9, r0
		nop
	}
.Ltmp25:
	bt r9, .LBB0_60
.Ltmp26:
	{
		nop
		ld8u r0, r4[r7]
	}
	.loc	6 306 13
.Ltmp27:
	{
		shl r0, r0, 7
		ldw r2, sp[17]
	}
	.loc	6 306 13
	{
		mov r1, r2
		nop
	}
	{
		zext r1, 8
		nop
	}
	.loc	6 306 13
	{
		or r0, r0, r1
		shr r1, r2, 3
	}
	ldc r3, 8160
	.loc	6 306 13
	{
		and r1, r1, r3
		nop
	}
	.loc	6 306 13
	{
		or r1, r0, r1
		shr r0, r2, 24
	}
	ldc r2, 160
	.loc	6 306 13
	{
		lss r2, r2, r1
		nop
	}
	bt r2, .LBB0_20
.Ltmp28:
	{
		ldc r2, 32
		nop
	}
	{
		lss r2, r2, r1
		nop
	}
	bt r2, .LBB0_15
.Ltmp29:
	bt r1, .LBB0_7
.Ltmp30:
	.loc	6 500 21
	{
		eq r0, r0, 9
		nop
	}
	bf r0, .LBB0_61
.Ltmp31:
	{
		mkmsk r0, 1
		nop
	}
	.loc	6 509 33
.Ltmp32:
	bl UserHostActive
	bu .LBB0_61
.Ltmp33:
.LBB0_20:
	{
		mov r3, r7
		mov r7, r6
	}
.Ltmp34:
	{
		mov r6, r8
		mov r8, r5
	}
.Ltmp35:
	ldc r2, 161
	{
		eq r2, r1, r2
		nop
	}
	bt r2, .LBB0_47
.Ltmp36:
	ldc r0, 162
	bu .LBB0_17
.Ltmp37:
.LBB0_15:
	{
		mov r3, r7
		mov r7, r6
	}
.Ltmp38:
	{
		mov r6, r8
		mov r8, r5
	}
.Ltmp39:
	{
		ldc r2, 33
		nop
	}
	{
		eq r2, r1, r2
		nop
	}
	bf r2, .LBB0_16
.Ltmp40:
.LBB0_47:
	{
		mov r5, r10
		add r1, r8, 6
	}
.Ltmp41:
	{
		nop
		ld16s r10, r1[r3]
	}
	.loc	6 546 25
.Ltmp42:
	{
		mov r4, r10
		nop
	}
	{
		zext r4, 8
		nop
	}
.Ltmp43:
	.loc	6 554 29
	ldw r1, dp[DFU_mode_active]
	.loc	6 554 29
	{
		mov r2, r3
		nop
	}
	bt r1, .LBB0_49
.Ltmp44:
	{
		mkmsk r2, 2
		nop
	}
.Ltmp45:
.LBB0_49:
	.loc	6 546 25
	{
		zext r10, 16
		eq r2, r4, r2
	}
.Ltmp46:
	{
		mkmsk r9, 1
		nop
	}
	bf r2, .LBB0_55
.Ltmp47:
	{
		ldc r2, 0
		nop
	}
	.loc	6 561 29
.Ltmp48:
	{
		add r0, r0, 11
		stw r2, sp[15]
	}
	bt r1, .LBB0_53
.Ltmp49:
	{
		zext r0, 8
		ldc r1, 2
	}
	{
		lsu r0, r0, r1
		nop
	}
	bt r0, .LBB0_53
.Ltmp50:
	{
		ldc r0, 4
		nop
	}
	.loc	6 569 33
.Ltmp51:
	#APP
	out res[r5], r0
	#NO_APP
	ldw r0, cp[.LCPI0_0]
	.loc	6 570 33
	#APP
	out res[r5], r0
	#NO_APP
	{
		mkmsk r0, 1
		nop
	}
	.loc	6 572 12
	#APP
	chkct res[r5], r0
	#NO_APP
.Ltmp52:
.LBB0_53:
	ldaw r0, dp[g_interfaceAlt]
	{
		nop
		ld8u r0, r0[r10]
	}
.Ltmp53:
	.loc	6 576 38
	{
		ldaw r2, sp[15]
		ldw r1, sp[12]
	}
	std r2, r1, sp[1]
.Ltmp54:
	{
		mov r0, r7
		stw r0, sp[1]
	}
	{
		ldaw r1, sp[16]
		mov r2, r8
	}
	{
		ldc r3, 0
		nop
	}
	bl DFUDeviceRequests
.Ltmp55:
	{
		mov r9, r0
		ldw r0, sp[15]
	}
.Ltmp56:
	bf r0, .LBB0_55
.Ltmp57:
	ldw r0, cp[.LCPI0_1]
	.loc	6 580 33
.Ltmp58:
	bl DFUDelay
	.loc	6 581 33
	{
		mov r0, r5
		nop
	}
	bl device_reboot
.Ltmp59:
.LBB0_55:
	ldc r0, 254
	.loc	6 589 28
.Ltmp60:
	{
		and r0, r10, r0
		nop
	}
	.loc	6 589 28
	{
		eq r0, r0, 0
		nop
	}
	{
		eq r0, r0, 0
		eq r1, r4, 2
	}
	.loc	6 589 28
	{
		eq r1, r1, 0
		nop
	}
	.loc	6 589 28
	{
		and r1, r1, r0
		nop
	}
	ldw r0, dp[DFU_mode_active]
	{
		mov r10, r5
		nop
	}
.Ltmp61:
	.loc	6 589 28
	bt r1, .LBB0_56
.Ltmp62:
	{
		mov r5, r8
		ldw r4, sp[14]
	}
.Ltmp63:
	{
		mov r8, r6
		mov r6, r7
	}
.Ltmp64:
	{
		ldc r7, 0
		nop
	}
	bt r0, .LBB0_60
.Ltmp65:
	{
		nop
		ldw r1, sp[16]
	}
	{
		nop
		ldw r0, sp[29]
	}
	{
		nop
		stw r0, sp[2]
	}
	{
		nop
		ldw r0, sp[13]
	}
	.loc	6 607 38
.Ltmp66:
	{
		mov r0, r6
		stw r0, sp[1]
	}
	{
		mov r2, r5
		mov r3, r10
	}
	bl AudioClassRequests_1
	bu .LBB0_59
.Ltmp67:
.LBB0_7:
	{
		eq r1, r1, 1
		nop
	}
	bf r1, .LBB0_61
.Ltmp68:
	.loc	6 311 24
	{
		eq r0, r0, 11
		nop
	}
	bf r0, .LBB0_61
.Ltmp69:
	.loc	6 313 25
	{
		add r0, r5, 6
		nop
	}
	{
		nop
		ld16s r0, r0[r7]
	}
	.loc	6 313 25
	{
		zext r0, 16
		nop
	}
	.loc	6 313 25
	{
		eq r1, r0, 2
		nop
	}
	bf r1, .LBB0_10
.Ltmp70:
	{
		nop
		ldw r1, sp[18]
	}
	ldw r2, dp[g_curStreamAlt_In]
	{
		shr r0, r1, 16
		zext r1, 16
	}
	.loc	6 354 36
.Ltmp71:
	{
		eq r3, r1, 1
		nop
	}
	bf r3, .LBB0_30
.Ltmp72:
	{
		eq r2, r2, r1
		nop
	}
	bt r2, .LBB0_30
.Ltmp73:
	.loc	6 360 41
	stw r1, dp[g_curStreamAlt_In]
	{
		ldc r2, 9
		nop
	}
	.loc	6 363 41
	#APP
	out res[r10], r2
	#NO_APP
	.loc	6 364 41
	{
		sub r1, r1, 1
		nop
	}
	.loc	6 364 41
	ldaw r11, cp[g_dataFormat_In]
	{
		nop
		ldw r2, r11[r1]
	}
	.loc	6 364 41
	#APP
	out res[r10], r2
	#NO_APP
	.loc	6 366 44
.Ltmp74:
	ldw r2, dp[g_curUsbSpeed]
	.loc	6 366 44
	{
		eq r2, r2, 2
		nop
	}
	bf r2, .LBB0_28
.Ltmp75:
	.loc	6 368 45
	ldaw r11, cp[g_chanCount_In_HS]
	{
		nop
		ldw r2, r11[r1]
	}
	.loc	6 368 45
	#APP
	out res[r10], r2
	#NO_APP
	.loc	6 369 45
	ldaw r11, cp[g_subSlot_In_HS]
	{
		nop
		ldw r1, r11[r1]
	}
	.loc	6 369 45
	#APP
	out res[r10], r1
	#NO_APP
	{
		ldc r1, 16
		nop
	}
	.loc	6 370 45
	#APP
	out res[r10], r1
	#NO_APP
	bu .LBB0_29
.Ltmp76:
.LBB0_16:
	{
		ldc r0, 34
		nop
	}
.Ltmp77:
.LBB0_17:
	{
		eq r0, r1, r0
		mov r5, r8
	}
.Ltmp78:
	{
		mov r8, r6
		mov r6, r7
	}
.Ltmp79:
	{
		mov r7, r3
		nop
	}
	bf r0, .LBB0_61
.Ltmp80:
	.loc	6 526 25
	{
		add r0, r5, 6
		nop
	}
	{
		nop
		ld16s r0, r0[r7]
	}
	.loc	6 528 29
.Ltmp81:
	{
		zext r0, 7
		nop
	}
	.loc	6 528 29
	{
		eq r0, r0, 1
		nop
	}
	bf r0, .LBB0_61
.Ltmp82:
	{
		nop
		ldw r1, sp[16]
	}
	{
		nop
		ldw r0, sp[29]
	}
	{
		nop
		stw r0, sp[2]
	}
	{
		nop
		ldw r0, sp[13]
	}
	.loc	6 536 38
.Ltmp83:
	{
		mov r0, r6
		stw r0, sp[1]
	}
	{
		mov r2, r5
		mov r3, r10
	}
	bl AudioEndpointRequests_1
.Ltmp84:
.LBB0_59:
	.loc	6 607 38
	{
		mov r9, r0
		nop
	}
.Ltmp85:
	bu .LBB0_60
.Ltmp86:
.LBB0_56:
	{
		mov r5, r8
		ldw r4, sp[14]
	}
.Ltmp87:
	{
		mov r8, r6
		mov r6, r7
	}
.Ltmp88:
	{
		ldc r7, 0
		nop
	}
.LBB0_60:
.Ltmp89:
	.loc	6 631 12
	{
		eq r0, r9, 1
		nop
	}
	bf r0, .LBB0_65
	bu .LBB0_61
.Ltmp90:
.LBB0_10:
	{
		eq r1, r0, 1
		nop
	}
	bf r1, .LBB0_30
.Ltmp91:
	{
		nop
		ldw r0, sp[18]
	}
	.loc	6 319 36
.Ltmp92:
	{
		mov r1, r0
		nop
	}
	{
		zext r1, 16
		sub r2, r0, 1
	}
	.loc	6 319 36
	{
		zext r2, 16
		mkmsk r3, 1
	}
	.loc	6 319 36
	{
		lsu r3, r3, r2
		nop
	}
	ldw r2, dp[g_curStreamAlt_Out]
	{
		shr r0, r0, 16
		nop
	}
	bt r3, .LBB0_30
.Ltmp93:
	{
		eq r2, r2, r1
		nop
	}
	bt r2, .LBB0_30
.Ltmp94:
	.loc	6 325 41
	stw r1, dp[g_curStreamAlt_Out]
	{
		ldc r2, 8
		nop
	}
	.loc	6 328 41
	#APP
	out res[r10], r2
	#NO_APP
	.loc	6 329 41
	{
		sub r1, r1, 1
		nop
	}
	.loc	6 329 41
	ldaw r11, cp[g_dataFormat_Out]
	{
		nop
		ldw r2, r11[r1]
	}
	.loc	6 329 41
	#APP
	out res[r10], r2
	#NO_APP
	.loc	6 331 44
.Ltmp95:
	ldw r2, dp[g_curUsbSpeed]
	{
		ldc r3, 2
		nop
	}
	.loc	6 333 45
.Ltmp96:
	#APP
	out res[r10], r3
	#NO_APP
.Ltmp97:
	.loc	6 331 44
	{
		eq r2, r2, 2
		nop
	}
	bf r2, .LBB0_22
.Ltmp98:
	.loc	6 334 45
	ldaw r11, cp[g_subSlot_Out_HS]
	{
		nop
		ldw r2, r11[r1]
	}
	.loc	6 334 45
	#APP
	out res[r10], r2
	#NO_APP
	.loc	6 335 45
	ldaw r11, cp[g_sampRes_Out_HS]
	{
		nop
		ldw r1, r11[r1]
	}
	.loc	6 335 45
	#APP
	out res[r10], r1
	#NO_APP
	bu .LBB0_23
.Ltmp99:
.LBB0_28:
	{
		ldc r2, 8
		nop
	}
	.loc	6 374 45
.Ltmp100:
	#APP
	out res[r10], r2
	#NO_APP
	.loc	6 375 45
	ldaw r11, cp[g_subSlot_In_FS]
	{
		nop
		ldw r1, r11[r1]
	}
	.loc	6 375 45
	#APP
	out res[r10], r1
	#NO_APP
	{
		ldc r1, 16
		nop
	}
	.loc	6 376 45
	#APP
	out res[r10], r1
	#NO_APP
.Ltmp101:
.LBB0_29:
	{
		mkmsk r1, 1
		nop
	}
	.loc	6 380 41
	#APP
	chkct res[r10], r1
	#NO_APP
	bu .LBB0_30
.Ltmp102:
.LBB0_22:
	.loc	6 340 45
	ldaw r11, cp[g_subSlot_Out_FS]
	{
		nop
		ldw r2, r11[r1]
	}
	.loc	6 340 45
	#APP
	out res[r10], r2
	#NO_APP
	.loc	6 341 45
	ldaw r11, cp[g_sampRes_Out_FS]
	{
		nop
		ldw r1, r11[r1]
	}
	.loc	6 341 45
	#APP
	out res[r10], r1
	#NO_APP
.Ltmp103:
.LBB0_23:
	{
		mkmsk r1, 1
		nop
	}
	.loc	6 345 41
	#APP
	chkct res[r10], r1
	#NO_APP
.Ltmp104:
.LBB0_30:
	.loc	6 410 29
	{
		sub r0, r0, 1
		nop
	}
	{
		zext r0, 16
		mkmsk r1, 1
	}
	.loc	6 410 29
	{
		lsu r0, r1, r0
		nop
	}
	bt r0, .LBB0_61
.Ltmp105:
	{
		nop
		ldw r0, sp[18]
	}
	{
		shr r1, r0, 16
		zext r0, 16
	}
	.loc	6 413 32
.Ltmp106:
	bf r0, .LBB0_35
.Ltmp107:
	{
		mkmsk r0, 1
		nop
	}
	ldaw r1, dp[g_interfaceAlt]
	{
		nop
		ld8u r0, r1[r0]
	}
	bt r0, .LBB0_61
.Ltmp108:
	{
		ldc r0, 2
		nop
	}
	ldaw r1, dp[g_interfaceAlt]
	{
		nop
		ld8u r0, r1[r0]
	}
	bt r0, .LBB0_61
.Ltmp109:
	.loc	6 416 33
	bl UserAudioStreamStart
	bu .LBB0_61
.Ltmp110:
.LBB0_35:
	.loc	6 418 37
	{
		eq r2, r1, 1
		nop
	}
	bf r2, .LBB0_40
.Ltmp111:
	bt r0, .LBB0_40
.Ltmp112:
	{
		mkmsk r2, 1
		nop
	}
	ldaw r3, dp[g_interfaceAlt]
	{
		nop
		ld8u r2, r3[r2]
	}
	bf r2, .LBB0_40
.Ltmp113:
	{
		ldc r2, 2
		nop
	}
	ldaw r3, dp[g_interfaceAlt]
	{
		nop
		ld8u r2, r3[r2]
	}
	bf r2, .LBB0_39
.Ltmp114:
.LBB0_40:
	.loc	6 423 37
	{
		eq r1, r1, 2
		nop
	}
	bf r1, .LBB0_61
.Ltmp115:
	bt r0, .LBB0_61
.Ltmp116:
	{
		ldc r0, 2
		nop
	}
	ldaw r1, dp[g_interfaceAlt]
	{
		nop
		ld8u r0, r1[r0]
	}
	bf r0, .LBB0_61
.Ltmp117:
	{
		mkmsk r0, 1
		nop
	}
	ldaw r1, dp[g_interfaceAlt]
	{
		nop
		ld8u r0, r1[r0]
	}
	bt r0, .LBB0_61
.Ltmp118:
	.loc	6 426 33
	bl UserAudioStreamStop
	bu .LBB0_61
.Ltmp119:
.LBB0_39:
	.loc	6 421 33
	bl UserAudioStreamStop
.Ltmp120:
.LBB0_61:
	.loc	6 634 17
	ldw r2, dp[DFU_mode_active]
	{
		nop
		ldw r1, sp[16]
	}
	.loc	6 749 26
.Ltmp121:
	ldw r0, dp[g_curUsbSpeed]
.Ltmp122:
	.loc	6 634 17
	bf r2, .LBB0_62
.Ltmp123:
	.loc	6 749 26
	std r5, r8, sp[4]
.Ltmp124:
	.loc	6 729 27
	ldaw r2, dp[g_strTable]
.Ltmp125:
	.loc	6 749 26
	std r2, r7, sp[3]
	std r7, r8, sp[1]
	{
		nop
		stw r0, sp[10]
	}
	std r7, r7, sp[2]
	ldaw r0, dp[DFUcfgDesc]
	{
		mov r0, r6
		stw r0, sp[1]
	}
	ldaw r2, dp[DFUdevDesc]
	{
		ldc r3, 18
		nop
	}
	bu .LBB0_64
.Ltmp126:
.LBB0_62:
	.loc	6 729 27
	std r5, r8, sp[4]
	ldaw r2, dp[g_strTable]
	ldc r3, 230
	std r2, r3, sp[3]
	ldaw r2, dp[cfgDesc_Audio1]
	{
		ldc r3, 18
		nop
	}
	std r2, r3, sp[2]
	ldaw r2, dp[devDesc_Audio1]
	std r2, r7, sp[1]
	{
		nop
		stw r0, sp[10]
	}
	{
		mov r0, r6
		stw r7, sp[1]
	}
	{
		mov r2, r7
		mov r3, r7
	}
.Ltmp127:
.LBB0_64:
	.loc	6 749 26
	bl USB_StandardRequests
	{
		mov r9, r0
		nop
	}
.Ltmp128:
.LBB0_65:
	{
		mkmsk r0, 32
		nop
	}
	.loc	6 759 13
.Ltmp129:
	{
		eq r0, r9, r0
		nop
	}
	bf r0, .LBB0_69
.Ltmp130:
	.loc	6 764 29
	{
		mov r0, r6
		ldaw r1, sp[16]
	}
	bl XUD_ResetEndpoint
	.loc	6 764 29
	stw r0, dp[g_curUsbSpeed]
	.loc	6 766 13
	ldaw r0, dp[g_currentConfig]
	st8 r7, r0[r7]
	.loc	6 767 13
	stw r7, dp[g_curStreamAlt_Out]
	.loc	6 768 13
	stw r7, dp[g_curStreamAlt_In]
	.loc	6 771 17
.Ltmp131:
	{
		mov r0, r7
		nop
	}
	bl DFUReportResetState
	.loc	6 773 21
.Ltmp132:
	ldw r1, dp[DFU_mode_active]
.Ltmp133:
	.loc	6 771 17
	bf r0, .LBB0_70
.Ltmp134:
	bt r1, .LBB0_69
.Ltmp135:
	{
		mkmsk r0, 1
		nop
	}
	.loc	6 775 21
.Ltmp136:
	stw r0, dp[DFU_mode_active]
	bu .LBB0_69
.Ltmp137:
.LBB0_70:
	bf r1, .LBB0_69
.Ltmp138:
	.loc	6 782 21
	stw r7, dp[DFU_mode_active]
	ldw r0, cp[.LCPI0_2]
	.loc	6 785 21
	bl DFUDelay
	.loc	6 786 21
	{
		mov r0, r10
		nop
	}
	bl device_reboot
	{
		nop
		ldw r9, sp[16]
	}
	bu .LBB0_3
.Ltmp139:
	.cc_bottom Endpoint0.function
	.set	Endpoint0.nstackwords,((XUD_InitEp.nstackwords $M memset.nstackwords $M USB_GetSetupPacket.nstackwords $M UserHostActive.nstackwords $M USB_StandardRequests.nstackwords $M XUD_ResetEndpoint.nstackwords $M DFUReportResetState.nstackwords $M UserAudioStreamStop.nstackwords $M UserAudioStreamStart.nstackwords $M DFUDeviceRequests.nstackwords $M AudioClassRequests_1.nstackwords $M DFUDelay.nstackwords $M device_reboot.nstackwords $M AudioEndpointRequests_1.nstackwords) + 28)
	.globl	Endpoint0.nstackwords
	.set	Endpoint0.maxcores,AudioClassRequests_1.maxcores $M AudioEndpointRequests_1.maxcores $M DFUDelay.maxcores $M DFUDeviceRequests.maxcores $M DFUReportResetState.maxcores $M USB_GetSetupPacket.maxcores $M USB_StandardRequests.maxcores $M UserAudioStreamStart.maxcores $M UserAudioStreamStop.maxcores $M UserHostActive.maxcores $M XUD_InitEp.maxcores $M XUD_ResetEndpoint.maxcores $M device_reboot.maxcores $M 1
	.globl	Endpoint0.maxcores
	.set	Endpoint0.maxtimers,AudioClassRequests_1.maxtimers $M AudioEndpointRequests_1.maxtimers $M DFUDelay.maxtimers $M DFUDeviceRequests.maxtimers $M DFUReportResetState.maxtimers $M USB_GetSetupPacket.maxtimers $M USB_StandardRequests.maxtimers $M UserAudioStreamStart.maxtimers $M UserAudioStreamStop.maxtimers $M UserHostActive.maxtimers $M XUD_InitEp.maxtimers $M XUD_ResetEndpoint.maxtimers $M device_reboot.maxtimers $M 0
	.globl	Endpoint0.maxtimers
	.set	Endpoint0.maxchanends,AudioClassRequests_1.maxchanends $M AudioEndpointRequests_1.maxchanends $M DFUDelay.maxchanends $M DFUDeviceRequests.maxchanends $M DFUReportResetState.maxchanends $M USB_GetSetupPacket.maxchanends $M USB_StandardRequests.maxchanends $M UserAudioStreamStart.maxchanends $M UserAudioStreamStop.maxchanends $M UserHostActive.maxchanends $M XUD_InitEp.maxchanends $M XUD_ResetEndpoint.maxchanends $M device_reboot.maxchanends $M 0
	.globl	Endpoint0.maxchanends
.Ltmp140:
	.size	Endpoint0, .Ltmp140-Endpoint0
.Lfunc_end0:
	.cfi_endproc

	.section	.cp.rodata.string,"aMSc",@progbits
	.cc_top .L.str.data,.L.str
	.align	4
	.type	.L.str,@object
	.size	.L.str, 3
.L.str:
.asciiz"\t\004"
	.space	1
	.cc_bottom .L.str.data
	.cc_top .L.str1.data,.L.str1
	.align	4
	.type	.L.str1,@object
	.size	.L.str1, 5
.L.str1:
.asciiz"XMOS"
	.cc_bottom .L.str1.data
	.cc_top .L.str2.data,.L.str2
	.align	4
	.type	.L.str2,@object
	.size	.L.str2, 1
.L.str2:
	.space	1
	.space	3
	.cc_bottom .L.str2.data
	.cc_top .L.str3.data,.L.str3
	.align	4
	.type	.L.str3,@object
	.size	.L.str3, 29
.L.str3:
.asciiz"XMOS Microphone Array UAC2.0"
	.cc_bottom .L.str3.data
	.cc_top .L.str4.data,.L.str4
	.align	4
	.type	.L.str4,@object
	.size	.L.str4, 30
.L.str4:
.asciiz"XMOS Microphone Array UAC2.0 "
	.cc_bottom .L.str4.data
	.cc_top .L.str5.data,.L.str5
	.align	4
	.type	.L.str5,@object
	.size	.L.str5, 29
.L.str5:
.asciiz"XMOS Microphone Array UAC1.0"
	.cc_bottom .L.str5.data
	.cc_top .L.str6.data,.L.str6
	.align	4
	.type	.L.str6,@object
	.size	.L.str6, 30
.L.str6:
.asciiz"XMOS Microphone Array UAC1.0 "
	.cc_bottom .L.str6.data
	.cc_top .L.str7.data,.L.str7
	.align	4
	.type	.L.str7,@object
	.size	.L.str7, 20
.L.str7:
.asciiz"XMOS Clock Selector"
	.cc_bottom .L.str7.data
	.cc_top .L.str8.data,.L.str8
	.align	4
	.type	.L.str8,@object
	.size	.L.str8, 20
.L.str8:
.asciiz"XMOS Internal Clock"
	.cc_bottom .L.str8.data
	.cc_top .L.str9.data,.L.str9
	.align	4
	.type	.L.str9,@object
	.size	.L.str9, 9
.L.str9:
.asciiz"XMOS DFU"
	.cc_bottom .L.str9.data
	.cc_top .L.str10.data,.L.str10
	.align	4
	.type	.L.str10,@object
	.size	.L.str10, 11
.L.str10:
.asciiz"Analogue 1"
	.cc_bottom .L.str10.data
	.cc_top .L.str11.data,.L.str11
	.align	4
	.type	.L.str11,@object
	.size	.L.str11, 11
.L.str11:
.asciiz"Analogue 2"
	.cc_bottom .L.str11.data
	.cc_top .L.str12.data,.L.str12
	.align	4
	.type	.L.str12,@object
	.size	.L.str12, 14
.L.str12:
.asciiz"iAP Interface"
	.cc_bottom .L.str12.data
	.section	.dp.data,"awd",@progbits
	.cc_top g_strTable.data,g_strTable
	.globl	g_strTable
	.align	8
	.type	g_strTable,@object
	.size	g_strTable, 108
g_strTable:
	.long	.L.str
	.long	.L.str1
	.long	.L.str2
	.long	.L.str3
	.long	.L.str4
	.long	.L.str4
	.long	.L.str4
	.long	.L.str4
	.long	.L.str5
	.long	.L.str6
	.long	.L.str6
	.long	.L.str6
	.long	.L.str6
	.long	.L.str7
	.long	.L.str8
	.long	.L.str9
	.long	.L.str10
	.long	.L.str11
	.long	.L.str2
	.long	.L.str2
	.long	.L.str2
	.long	.L.str2
	.long	.L.str2
	.long	.L.str2
	.long	.L.str2
	.long	.L.str2
	.long	.L.str12
	.cc_bottom g_strTable.data
	.cc_top devDesc_Audio1.data,devDesc_Audio1
	.globl	devDesc_Audio1
	.align	8
	.type	devDesc_Audio1,@object
	.size	devDesc_Audio1, 18
devDesc_Audio1:
	.byte	18
	.byte	1
	.short	512
	.byte	0
	.byte	0
	.byte	0
	.byte	64
	.short	8369
	.short	9
	.short	1778
	.byte	1
	.byte	3
	.byte	0
	.byte	1
	.cc_bottom devDesc_Audio1.data
	.cc_top devDesc_Audio2.data,devDesc_Audio2
	.globl	devDesc_Audio2
	.align	8
	.type	devDesc_Audio2,@object
	.size	devDesc_Audio2, 18
devDesc_Audio2:
	.byte	18
	.byte	1
	.short	512
	.byte	239
	.byte	2
	.byte	1
	.byte	64
	.short	8369
	.short	8
	.short	1778
	.byte	1
	.byte	3
	.byte	0
	.byte	2
	.cc_bottom devDesc_Audio2.data
	.cc_top devDesc_Null.data,devDesc_Null
	.globl	devDesc_Null.globound
devDesc_Null.globound = 18
	.globl	devDesc_Null
	.align	8
	.type	devDesc_Null,@object
	.size	devDesc_Null, 18
devDesc_Null:
	.ascii	"\022\001\000\002\000\000\000@\261 \b\000\362\006\001\003\000\001"
	.cc_bottom devDesc_Null.data
	.cc_top devQualDesc_Audio2.data,devQualDesc_Audio2
	.globl	devQualDesc_Audio2.globound
devQualDesc_Audio2.globound = 10
	.globl	devQualDesc_Audio2
	.align	8
	.type	devQualDesc_Audio2,@object
	.size	devQualDesc_Audio2, 10
devQualDesc_Audio2:
.asciiz"\n\006\000\002\357\002\001@\001"
	.cc_bottom devQualDesc_Audio2.data
	.cc_top devQualDesc_Audio1.data,devQualDesc_Audio1
	.globl	devQualDesc_Audio1.globound
devQualDesc_Audio1.globound = 10
	.globl	devQualDesc_Audio1
	.align	8
	.type	devQualDesc_Audio1,@object
	.size	devQualDesc_Audio1, 10
devQualDesc_Audio1:
.asciiz"\n\006\000\002\000\000\000@\001"
	.cc_bottom devQualDesc_Audio1.data
	.cc_top devQualDesc_Null.data,devQualDesc_Null
	.globl	devQualDesc_Null.globound
devQualDesc_Null.globound = 10
	.globl	devQualDesc_Null
	.align	8
	.type	devQualDesc_Null,@object
	.size	devQualDesc_Null, 10
devQualDesc_Null:
.asciiz"\n\006\000\002\000\000\000@\001"
	.cc_bottom devQualDesc_Null.data
	.cc_top cfgDesc_Audio2.data,cfgDesc_Audio2
	.globl	cfgDesc_Audio2
	.align	8
	.type	cfgDesc_Audio2,@object
	.size	cfgDesc_Audio2, 343
cfgDesc_Audio2:
	.byte	9
	.byte	2
	.short	343
	.byte	4
	.byte	1
	.byte	0
	.byte	128
	.byte	250
	.byte	8
	.byte	11
	.byte	0
	.byte	3
	.byte	1
	.byte	0
	.byte	32
	.byte	0
	.byte	9
	.byte	4
	.byte	0
	.byte	0
	.byte	0
	.byte	1
	.byte	1
	.byte	32
	.byte	3
	.byte	9
	.byte	36
	.byte	1
	.short	512
	.byte	8
	.short	143
	.byte	0
	.byte	8
	.byte	36
	.byte	10
	.byte	41
	.byte	3
	.byte	7
	.byte	0
	.byte	14
	.byte	8
	.byte	36
	.byte	11
	.byte	40
	.byte	1
	.byte	41
	.byte	3
	.byte	13
	.byte	17
	.byte	36
	.byte	2
	.byte	2
	.short	257
	.byte	0
	.byte	40
	.byte	2
	.long	0
	.byte	16
	.short	0
	.byte	6
	.byte	18
	.byte	36
	.byte	6
	.byte	10
	.byte	2
	.long	15
	.long	15
	.long	15
	.byte	0
	.byte	12
	.byte	36
	.byte	3
	.byte	20
	.short	769
	.byte	0
	.byte	10
	.byte	40
	.short	0
	.byte	0
	.byte	17
	.byte	36
	.byte	2
	.byte	1
	.short	513
	.byte	0
	.byte	40
	.byte	8
	.long	0
	.byte	18
	.short	0
	.byte	0
	.byte	42
	.byte	36
	.byte	6
	.byte	11
	.byte	1
	.long	15
	.long	15
	.long	15
	.long	15
	.long	15
	.long	15
	.long	15
	.long	15
	.long	15
	.byte	0
	.byte	12
	.byte	36
	.byte	3
	.byte	22
	.short	257
	.byte	0
	.byte	11
	.byte	40
	.short	0
	.byte	7
	.byte	9
	.byte	4
	.byte	1
	.byte	0
	.byte	0
	.byte	1
	.byte	2
	.byte	32
	.byte	4
	.byte	9
	.byte	4
	.byte	1
	.byte	1
	.byte	1
	.byte	1
	.byte	2
	.byte	32
	.byte	4
	.byte	16
	.byte	36
	.byte	1
	.byte	2
	.byte	0
	.byte	1
	.long	1
	.byte	2
	.long	0
	.byte	16
	.byte	6
	.byte	36
	.byte	2
	.byte	1
	.byte	4
	.byte	24
	.byte	7
	.byte	5
	.byte	1
	.byte	5
	.short	56
	.byte	1
	.byte	8
	.byte	37
	.byte	1
	.byte	0
	.byte	0
	.byte	2
	.short	8
	.byte	9
	.byte	4
	.byte	1
	.byte	2
	.byte	1
	.byte	1
	.byte	2
	.byte	32
	.byte	4
	.byte	16
	.byte	36
	.byte	1
	.byte	2
	.byte	0
	.byte	1
	.long	1
	.byte	2
	.long	0
	.byte	16
	.byte	6
	.byte	36
	.byte	2
	.byte	1
	.byte	2
	.byte	16
	.byte	7
	.byte	5
	.byte	1
	.byte	5
	.short	28
	.byte	1
	.byte	8
	.byte	37
	.byte	1
	.byte	0
	.byte	0
	.byte	2
	.short	8
	.byte	9
	.byte	4
	.byte	2
	.byte	0
	.byte	0
	.byte	1
	.byte	2
	.byte	32
	.byte	5
	.byte	9
	.byte	4
	.byte	2
	.byte	1
	.byte	1
	.byte	1
	.byte	2
	.byte	32
	.byte	5
	.byte	16
	.byte	36
	.byte	1
	.byte	22
	.byte	0
	.byte	1
	.long	1
	.byte	8
	.long	0
	.byte	18
	.byte	6
	.byte	36
	.byte	2
	.byte	1
	.byte	2
	.byte	16
	.byte	7
	.byte	5
	.byte	129
	.byte	37
	.short	112
	.byte	1
	.byte	8
	.byte	37
	.byte	1
	.byte	0
	.byte	0
	.byte	2
	.short	8
	.ascii	"\t\004\003\000\000\376\001\001\017\t!\007\372\000@\000\020\001"
	.cc_bottom cfgDesc_Audio2.data
	.cc_top cfgDesc_Null.data,cfgDesc_Null
	.globl	cfgDesc_Null.globound
cfgDesc_Null.globound = 19
	.globl	cfgDesc_Null
	.align	8
	.type	cfgDesc_Null,@object
	.size	cfgDesc_Null, 19
cfgDesc_Null:
	.ascii	"\t\002\022\000\001\001\000\200\372\t\004\000\000\000\000\000\000\000\t"
	.cc_bottom cfgDesc_Null.data
	.section	.cp.rodata.4,"ac",@progbits
	.cc_top num_freqs_a1.data,num_freqs_a1
	.globl	num_freqs_a1
	.align	4
	.type	num_freqs_a1,@object
	.size	num_freqs_a1, 4
num_freqs_a1:
	.long	6
	.cc_bottom num_freqs_a1.data
	.section	.dp.data,"awd",@progbits
	.cc_top cfgDesc_Audio1.data,cfgDesc_Audio1
	.globl	cfgDesc_Audio1.globound
cfgDesc_Audio1.globound = 230
	.globl	cfgDesc_Audio1
	.align	8
	.type	cfgDesc_Audio1,@object
	.size	cfgDesc_Audio1, 230
cfgDesc_Audio1:
.asciiz"\t\002\346\000\003\001\000\200\372\t\004\000\000\000\001\001\000\b\n$\001\000\001Z\000\002\001\002\f$\002\001\001\001\000\002\003\000\020\013\n$\006\n\001\001\000\003\003\000\t$\003\006\001\003\000\n\000\f$\002\002\001\002\000\b\003\000\022\f\t$\003\007\001\001\001\013\000\020$\006\013\002\001\000\003\003\003\003\003\003\003\003\000\t\004\001\000\000\001\002\000\t\t\004\001\001\001\001\002\000\004\007$\001\001\001\001\000\032$\002\001\002\003\030\006@\037\000\021+\000\340.\000\200>\000\000}\000D\254\000\t\005\001\005\024\001\001\000\201\007%\001\001\002\000\000\t\004\002\000\000\001\002\000\005\t\004\002\001\001\001\002\000\n\007$\001\007\001\001\000\032$\002\001\b\002\020\006@\037\000\021+\000\340.\000\200>\000\000}\000D\254\000\t\005\201%\340\002\001\000\000\007%\001\001\000\000"
	.cc_bottom cfgDesc_Audio1.data
	.cc_top DFUdevDesc.data,DFUdevDesc
	.globl	DFUdevDesc.globound
DFUdevDesc.globound = 18
	.globl	DFUdevDesc
	.align	8
	.type	DFUdevDesc,@object
	.size	DFUdevDesc, 18
DFUdevDesc:
	.ascii	"\022\001\000\002\000\000\000@\261 \b\000\362\006\001\003\000\001"
	.cc_bottom DFUdevDesc.data
	.cc_top DFUcfgDesc.data,DFUcfgDesc
	.globl	DFUcfgDesc.globound
DFUcfgDesc.globound = 27
	.globl	DFUcfgDesc
	.align	8
	.type	DFUcfgDesc,@object
	.size	DFUcfgDesc, 27
DFUcfgDesc:
	.ascii	"\t\002\033\000\001\001\000\3002\t\004\000\000\000\376\001\002\000\t!\007\372\000@\000\020\001"
	.cc_bottom DFUcfgDesc.data
	.section	.dp.bss.4,"awd",@nobits
	.cc_top DFU_mode_active.data,DFU_mode_active
	.globl	DFU_mode_active
	.align	4
	.type	DFU_mode_active,@object
	.size	DFU_mode_active, 4
DFU_mode_active:
	.long	0
	.cc_bottom DFU_mode_active.data
	.cc_top g_curStreamAlt_Out.data,g_curStreamAlt_Out
	.globl	g_curStreamAlt_Out
	.align	4
	.type	g_curStreamAlt_Out,@object
	.size	g_curStreamAlt_Out, 4
g_curStreamAlt_Out:
	.long	0
	.cc_bottom g_curStreamAlt_Out.data
	.cc_top g_curStreamAlt_In.data,g_curStreamAlt_In
	.globl	g_curStreamAlt_In
	.align	4
	.type	g_curStreamAlt_In,@object
	.size	g_curStreamAlt_In, 4
g_curStreamAlt_In:
	.long	0
	.cc_bottom g_curStreamAlt_In.data
	.cc_top g_curUsbSpeed.data,g_curUsbSpeed
	.globl	g_curUsbSpeed
	.align	4
	.type	g_curUsbSpeed,@object
	.size	g_curUsbSpeed, 4
g_curUsbSpeed:
	.long	0
	.cc_bottom g_curUsbSpeed.data
	.section	.cp.rodata,"ac",@progbits
	.cc_top g_subSlot_Out_HS.data,g_subSlot_Out_HS
	.globl	g_subSlot_Out_HS.globound
g_subSlot_Out_HS.globound = 2
	.globl	g_subSlot_Out_HS
	.align	8
	.type	g_subSlot_Out_HS,@object
	.size	g_subSlot_Out_HS, 8
g_subSlot_Out_HS:
	.long	4
	.long	2
	.cc_bottom g_subSlot_Out_HS.data
	.cc_top g_subSlot_Out_FS.data,g_subSlot_Out_FS
	.globl	g_subSlot_Out_FS.globound
g_subSlot_Out_FS.globound = 2
	.globl	g_subSlot_Out_FS
	.align	8
	.type	g_subSlot_Out_FS,@object
	.size	g_subSlot_Out_FS, 8
g_subSlot_Out_FS:
	.long	3
	.long	2
	.cc_bottom g_subSlot_Out_FS.data
	.cc_top g_subSlot_In_HS.data,g_subSlot_In_HS
	.globl	g_subSlot_In_HS.globound
g_subSlot_In_HS.globound = 1
	.globl	g_subSlot_In_HS
	.align	8
	.type	g_subSlot_In_HS,@object
	.size	g_subSlot_In_HS, 4
g_subSlot_In_HS:
	.long	2
	.cc_bottom g_subSlot_In_HS.data
	.cc_top g_subSlot_In_FS.data,g_subSlot_In_FS
	.globl	g_subSlot_In_FS.globound
g_subSlot_In_FS.globound = 1
	.globl	g_subSlot_In_FS
	.align	8
	.type	g_subSlot_In_FS,@object
	.size	g_subSlot_In_FS, 4
g_subSlot_In_FS:
	.long	2
	.cc_bottom g_subSlot_In_FS.data
	.cc_top g_sampRes_Out_HS.data,g_sampRes_Out_HS
	.globl	g_sampRes_Out_HS.globound
g_sampRes_Out_HS.globound = 2
	.globl	g_sampRes_Out_HS
	.align	8
	.type	g_sampRes_Out_HS,@object
	.size	g_sampRes_Out_HS, 8
g_sampRes_Out_HS:
	.long	24
	.long	16
	.cc_bottom g_sampRes_Out_HS.data
	.cc_top g_sampRes_Out_FS.data,g_sampRes_Out_FS
	.globl	g_sampRes_Out_FS.globound
g_sampRes_Out_FS.globound = 2
	.globl	g_sampRes_Out_FS
	.align	8
	.type	g_sampRes_Out_FS,@object
	.size	g_sampRes_Out_FS, 8
g_sampRes_Out_FS:
	.long	24
	.long	16
	.cc_bottom g_sampRes_Out_FS.data
	.cc_top g_sampRes_In_HS.data,g_sampRes_In_HS
	.globl	g_sampRes_In_HS.globound
g_sampRes_In_HS.globound = 1
	.globl	g_sampRes_In_HS
	.align	8
	.type	g_sampRes_In_HS,@object
	.size	g_sampRes_In_HS, 4
g_sampRes_In_HS:
	.long	16
	.cc_bottom g_sampRes_In_HS.data
	.cc_top g_sampRes_In_FS.data,g_sampRes_In_FS
	.globl	g_sampRes_In_FS.globound
g_sampRes_In_FS.globound = 1
	.globl	g_sampRes_In_FS
	.align	8
	.type	g_sampRes_In_FS,@object
	.size	g_sampRes_In_FS, 4
g_sampRes_In_FS:
	.long	16
	.cc_bottom g_sampRes_In_FS.data
	.cc_top g_dataFormat_Out.data,g_dataFormat_Out
	.globl	g_dataFormat_Out.globound
g_dataFormat_Out.globound = 2
	.globl	g_dataFormat_Out
	.align	8
	.type	g_dataFormat_Out,@object
	.size	g_dataFormat_Out, 8
g_dataFormat_Out:
	.long	1
	.long	1
	.cc_bottom g_dataFormat_Out.data
	.cc_top g_dataFormat_In.data,g_dataFormat_In
	.globl	g_dataFormat_In.globound
g_dataFormat_In.globound = 1
	.globl	g_dataFormat_In
	.align	8
	.type	g_dataFormat_In,@object
	.size	g_dataFormat_In, 4
g_dataFormat_In:
	.long	1
	.cc_bottom g_dataFormat_In.data
	.cc_top g_chanCount_In_HS.data,g_chanCount_In_HS
	.globl	g_chanCount_In_HS.globound
g_chanCount_In_HS.globound = 1
	.globl	g_chanCount_In_HS
	.align	8
	.type	g_chanCount_In_HS,@object
	.size	g_chanCount_In_HS, 4
g_chanCount_In_HS:
	.long	8
	.cc_bottom g_chanCount_In_HS.data
	.section	.dp.bss,"awd",@nobits
	.cc_top volsOut.data,volsOut
	.globl	volsOut.globound
volsOut.globound = 3
	.globl	volsOut
	.align	8
	.type	volsOut,@object
	.size	volsOut, 12
volsOut:
	.space	12
	.cc_bottom volsOut.data
	.cc_top mutesOut.data,mutesOut
	.globl	mutesOut.globound
mutesOut.globound = 3
	.globl	mutesOut
	.align	8
	.type	mutesOut,@object
	.size	mutesOut, 12
mutesOut:
	.space	12
	.cc_bottom mutesOut.data
	.cc_top volsIn.data,volsIn
	.globl	volsIn.globound
volsIn.globound = 9
	.globl	volsIn
	.align	8
	.type	volsIn,@object
	.size	volsIn, 36
volsIn:
	.space	36
	.cc_bottom volsIn.data
	.cc_top mutesIn.data,mutesIn
	.globl	mutesIn.globound
mutesIn.globound = 9
	.globl	mutesIn
	.align	8
	.type	mutesIn,@object
	.size	mutesIn, 36
mutesIn:
	.space	36
	.cc_bottom mutesIn.data
	.section	.cp.rodata.4,"ac",@progbits
.Ldebug_end0:
	.section	.cp.rodata,"ac",@progbits
.Ldebug_end1:
	.section	.dp.bss.4,"awd",@nobits
.Ldebug_end2:
	.section	.dp.bss,"awd",@nobits
.Ldebug_end3:
	.section	.dp.data,"awd",@progbits
.Ldebug_end4:
	.text
.Ldebug_end5:
	.file	10 "/Applications/XMOS_XTC_15.1.4/target/include/xccompat.h"
	.file	11 "/Users/rcalhoun/code/git/sw_usb_audio/sc_usb/module_usb_shared/src/usb_std_requests.h"
	.section	.trap_info,"",@progbits
.Ltrap_info_entries_start0:
	.long	.Ltrap_info_entries_end0-.Ltrap_info_entries_start0
	.long	1
.Ltrap_info_entries_end0: