	.text
	.file	"/Users/rcalhoun/code/git/sw_usb_audio/lib_mic_array/lib_mic_array/src/hires_delay.xc"
                                        # Start of file scope inline assembly
	.inline_definition delay_seconds
	.inline_definition delay_milliseconds
	.inline_definition delay_microseconds
	.inline_definition _safe_memcmp
	.inline_definition _safe_memmove
	.inline_definition _safe_memset
	.set usage.anon.0,0
	.set usage.anon.1,0
	.set usage.anon.2,0
	.set usage.anon.3,0
	.set usage.anon.4,0
	.set usage.anon.5,0
	.globread mic_array_hires_delay_set_taps,g_hires_shared_memory,"/Users/rcalhoun/code/git/sw_usb_audio/lib_mic_array/lib_mic_array/src/hires_delay.xc:66:35: note: object used here\n            unsigned * unsafe p = g_hires_shared_memory;\n                                  ^~~~~~~~~~~~~~~~~~~~~"
	.globread mic_array_hires_delay,g_hires_shared_memory,"/Users/rcalhoun/code/git/sw_usb_audio/lib_mic_array/lib_mic_array/src/hires_delay.xc:44:47: note: object used here\n                        unsigned * unsafe p = g_hires_shared_memory;\n                                              ^~~~~~~~~~~~~~~~~~~~~"
	.call mic_array_hires_delay,usage.anon.5
	.call usage.anon.5,memset
	.call usage.anon.4,memmove
	.call usage.anon.3,memcmp
	.call usage.anon.2,delay_ticks_longlong
	.call usage.anon.1,delay_ticks_longlong
	.call usage.anon.0,delay_ticks_longlong
	.set mic_array_hires_delay.locnoside, 0
	.set mic_array_hires_delay_set_taps.locnoside, 0
	.set mic_array_hires_delay.locnoglobalaccess, 0
	.set mic_array_hires_delay_set_taps.locnoglobalaccess, 0
	.assert 1,memset.actnoglobalaccess,"In file included from /Users/rcalhoun/code/git/sw_usb_audio/lib_mic_array/lib_mic_array/src/hires_delay.xc:5:\nIn file included from /Applications/XMOS_XTC_15.1.4/target/include/xc/string.h:5:\n/Applications/XMOS_XTC_15.1.4/target/include/xc/safe/string.h:21:3: error: passing non-local alias to function `memset\' which accesses a global variable\n  memset(s, c, n);\n  ^~~~~~~~~~~~~~~"
	.assert 1,memmove.actnoglobalaccess,"In file included from /Users/rcalhoun/code/git/sw_usb_audio/lib_mic_array/lib_mic_array/src/hires_delay.xc:5:\nIn file included from /Applications/XMOS_XTC_15.1.4/target/include/xc/string.h:5:\n/Applications/XMOS_XTC_15.1.4/target/include/xc/safe/string.h:15:3: error: passing non-local alias to function `memmove\' which accesses a global variable\n  memmove(s1, s2, n);\n  ^~~~~~~~~~~~~~~~~~"

                                        # End of file scope inline assembly
	.text
	.globl	mic_array_hires_delay
	.align	4
	.type	mic_array_hires_delay,@function
	.cc_top mic_array_hires_delay.function,mic_array_hires_delay
mic_array_hires_delay:                  # @mic_array_hires_delay
.Lfunc_begin0:
	.loc	1 16 0                  # /Users/rcalhoun/code/git/sw_usb_audio/lib_mic_array/lib_mic_array/src/hires_delay.xc:16:0
	.cfi_startproc
	.issue_mode dual
# BB#0:                                 # %allocas
.Lxtalabel0:
	DUALENTSP_lu6 4126
.Ltmp0:
	.cfi_def_cfa_offset 16504
.Ltmp1:
	.cfi_offset 15, 0
	stw r4, sp[4118]                # 4-byte Folded Spill
	stw r5, sp[4119]                # 4-byte Folded Spill
.Ltmp2:
	.cfi_offset 4, -32
.Ltmp3:
	.cfi_offset 5, -28
	stw r6, sp[4120]                # 4-byte Folded Spill
	stw r7, sp[4121]                # 4-byte Folded Spill
.Ltmp4:
	.cfi_offset 6, -24
.Ltmp5:
	.cfi_offset 7, -20
	stw r8, sp[4122]                # 4-byte Folded Spill
	stw r9, sp[4123]                # 4-byte Folded Spill
.Ltmp6:
	.cfi_offset 8, -16
.Ltmp7:
	.cfi_offset 9, -12
	stw r10, sp[4124]               # 4-byte Folded Spill
.Ltmp8:
	.cfi_offset 10, -8
	#DEBUG_VALUE: mic_array_hires_delay:c_from_pdm_frontend <- R0
	#DEBUG_VALUE: mic_array_hires_delay:c_to_decimator <- R1
	#DEBUG_VALUE: mic_array_hires_delay:n <- R2
	#DEBUG_VALUE: mic_array_hires_delay:c_cmd <- R3
	{
		mov r4, r3
		nop
	}
.Ltmp9:
	#DEBUG_VALUE: mic_array_hires_delay:c_cmd <- R4
	#DEBUG_VALUE: mic_array_hires_delay:n <- R5
	{
		mov r5, r2
		stw r4, sp[4]
	}
.Ltmp10:
	#DEBUG_VALUE: mic_array_hires_delay:c_to_decimator <- R6
	#DEBUG_VALUE: mic_array_hires_delay:c_from_pdm_frontend <- R7
	{
		mov r6, r1
		mov r7, r0
	}
.Ltmp11:
	{
		nop
		stw r7, sp[5]
	}
	ldaw r8, sp[4102]
.Ltmp12:
	#DEBUG_VALUE: delays <- [R8+0]
	{
		ldc r9, 0
		nop
	}
	ldc r2, 64
	.loc	1 18 0 prologue_end     # /Users/rcalhoun/code/git/sw_usb_audio/lib_mic_array/lib_mic_array/src/hires_delay.xc:18:0
.Ltmp13:
	{
		mov r0, r8
		mov r1, r9
	}
	bl memset
.Ltmp14:
	#DEBUG_VALUE: _safe_memset:n <- 16384
	#DEBUG_VALUE: _safe_memset:c <- 0
	{
		ldaw r10, sp[6]
		nop
	}
	ldc r2, 16384
	.file	2 "/Applications/XMOS_XTC_15.1.4/target/include/xc/safe/string.h"
	.loc	2 21 0                  # /Applications/XMOS_XTC_15.1.4/target/include/xc/safe/string.h:21:0
.Ltmp15:
	{
		mov r0, r10
		mov r1, r9
	}
	bl memset
.Ltmp16:
	#DEBUG_VALUE: head <- 0
	.loc	1 40 9                  # /Users/rcalhoun/code/git/sw_usb_audio/lib_mic_array/lib_mic_array/src/hires_delay.xc:40:9
	{
		clre
		nop
	}
	.loc	1 40 9                  # /Users/rcalhoun/code/git/sw_usb_audio/lib_mic_array/lib_mic_array/src/hires_delay.xc:40:9
	{
		eeu res[r4]
		nop
	}
	ldap r11, .Ltmp17
.Ltmp18:
	#DEBUG_VALUE: mic_array_hires_delay:c_cmd <- [SP+16]
	.loc	1 40 9                  # /Users/rcalhoun/code/git/sw_usb_audio/lib_mic_array/lib_mic_array/src/hires_delay.xc:40:9
	{
		setv res[r4], r11
		ldc r3, 12
	}
	{
		ldc r9, 10
		ldc r4, 0
	}
	bu .LBB0_1
.Ltmp19:
.LBB0_17:                               # %LoopBody101.preheader
                                        #   in Loop: Header=BB0_1 Depth=1
	#DEBUG_VALUE: mic_array_hires_delay:c_from_pdm_frontend <- R7
	#DEBUG_VALUE: mic_array_hires_delay:c_to_decimator <- R6
	#DEBUG_VALUE: mic_array_hires_delay:n <- R5
	#DEBUG_VALUE: mic_array_hires_delay:c_cmd <- [SP+16]
	#DEBUG_VALUE: head <- R4
	#DEBUG_VALUE: i <- 0
	.loc	1 44 0                  # /Users/rcalhoun/code/git/sw_usb_audio/lib_mic_array/lib_mic_array/src/hires_delay.xc:44:0
	{
		shl r2, r0, 2
		mov r0, r8
	}
	.loc	1 45 0                  # /Users/rcalhoun/code/git/sw_usb_audio/lib_mic_array/lib_mic_array/src/hires_delay.xc:45:0
	ldaw r1, dp[g_hires_shared_memory]
.Ltmp20:
	#DEBUG_VALUE: mic_array_hires_delay:c_from_pdm_frontend <- [SP+20]
	{
		mov r7, r3
		nop
	}
	bl __memcpy_4
.Ltmp21:
	#DEBUG_VALUE: mic_array_hires_delay:c_from_pdm_frontend <- R7
	{
		mov r3, r7
		ldw r7, sp[5]
	}
.Ltmp22:
.Ltmp23:                                # Block address taken
.LBB0_1:                                # %LoopBody
                                        # =>This Loop Header: Depth=1
                                        #     Child Loop BB0_2 Depth 2
                                        #     Child Loop BB0_4 Depth 2
                                        #     Child Loop BB0_6 Depth 2
                                        #     Child Loop BB0_8 Depth 2
                                        #     Child Loop BB0_13 Depth 2
                                        #       Child Loop BB0_14 Depth 3
.Lxtalabel1:
	#DEBUG_VALUE: mic_array_hires_delay:c_from_pdm_frontend <- R7
	#DEBUG_VALUE: mic_array_hires_delay:c_to_decimator <- R6
	#DEBUG_VALUE: mic_array_hires_delay:n <- R5
	#DEBUG_VALUE: mic_array_hires_delay:c_cmd <- [SP+16]
	#DEBUG_VALUE: i <- 0
	{
		ldc r0, 0
		nop
	}
	bf r5, .LBB0_10
.Ltmp24:
.LBB0_2:                                # %LoopBody12
                                        #   Parent Loop BB0_1 Depth=1
                                        # =>  This Inner Loop Header: Depth=2
.Lxtalabel2:
	#DEBUG_VALUE: mic_array_hires_delay:c_from_pdm_frontend <- R7
	#DEBUG_VALUE: mic_array_hires_delay:c_to_decimator <- R6
	#DEBUG_VALUE: mic_array_hires_delay:n <- R5
	#DEBUG_VALUE: mic_array_hires_delay:c_cmd <- [SP+16]
	#DEBUG_VALUE: i <- 0
	.loc	1 26 0                  # /Users/rcalhoun/code/git/sw_usb_audio/lib_mic_array/lib_mic_array/src/hires_delay.xc:26:0
	{
		shl r2, r0, r3
		ldw r1, r7[r0]
	}
	.loc	1 26 0                  # /Users/rcalhoun/code/git/sw_usb_audio/lib_mic_array/lib_mic_array/src/hires_delay.xc:26:0
.Lxta.endpoint_labels0:
	{
		in r1, res[r1]
		add r2, r10, r2
	}
	.loc	1 26 0                  # /Users/rcalhoun/code/git/sw_usb_audio/lib_mic_array/lib_mic_array/src/hires_delay.xc:26:0
	stw r1, r2[r4]
	.loc	1 25 0                  # /Users/rcalhoun/code/git/sw_usb_audio/lib_mic_array/lib_mic_array/src/hires_delay.xc:25:0
	{
		add r0, r0, 1
		nop
	}
.Ltmp25:
	#DEBUG_VALUE: j <- R0
	.loc	1 25 0                  # /Users/rcalhoun/code/git/sw_usb_audio/lib_mic_array/lib_mic_array/src/hires_delay.xc:25:0
	{
		eq r1, r0, r5
		nop
	}
.Lxta.loop_labels0:
	# LOOPMARKER 0
	.loc	1 25 0                  # /Users/rcalhoun/code/git/sw_usb_audio/lib_mic_array/lib_mic_array/src/hires_delay.xc:25:0
	bf r1, .LBB0_2
.Ltmp26:
# BB#3:                                 #   in Loop: Header=BB0_1 Depth=1
	#DEBUG_VALUE: mic_array_hires_delay:c_from_pdm_frontend <- R7
	#DEBUG_VALUE: mic_array_hires_delay:c_to_decimator <- R6
	#DEBUG_VALUE: mic_array_hires_delay:n <- R5
	#DEBUG_VALUE: mic_array_hires_delay:c_cmd <- [SP+16]
	{
		ldc r0, 0
		nop
	}
	ldc r11, 1024
.Ltmp27:
.LBB0_4:                                # %LoopBody12.1
                                        #   Parent Loop BB0_1 Depth=1
                                        # =>  This Inner Loop Header: Depth=2
.Lxtalabel3:
	#DEBUG_VALUE: mic_array_hires_delay:c_from_pdm_frontend <- R7
	#DEBUG_VALUE: mic_array_hires_delay:c_to_decimator <- R6
	#DEBUG_VALUE: mic_array_hires_delay:n <- R5
	#DEBUG_VALUE: mic_array_hires_delay:c_cmd <- [SP+16]
	.loc	1 26 0                  # /Users/rcalhoun/code/git/sw_usb_audio/lib_mic_array/lib_mic_array/src/hires_delay.xc:26:0
	{
		shl r2, r0, r3
		ldw r1, r7[r0]
	}
	{
		add r2, r2, r10
		nop
	}
	.loc	1 26 0                  # /Users/rcalhoun/code/git/sw_usb_audio/lib_mic_array/lib_mic_array/src/hires_delay.xc:26:0
	ldaw r2, r2[r4]
.Lxta.endpoint_labels1:
	{
		in r1, res[r1]
		add r2, r2, r11
	}
	.loc	1 26 0                  # /Users/rcalhoun/code/git/sw_usb_audio/lib_mic_array/lib_mic_array/src/hires_delay.xc:26:0
	{
		add r0, r0, 1
		stw r1, r2[0]
	}
.Lxta.loop_labels1:
	# LOOPMARKER 1
	.loc	1 25 0                  # /Users/rcalhoun/code/git/sw_usb_audio/lib_mic_array/lib_mic_array/src/hires_delay.xc:25:0
	{
		eq r1, r0, r5
		nop
	}
	bf r1, .LBB0_4
.Ltmp28:
# BB#5:                                 #   in Loop: Header=BB0_1 Depth=1
	#DEBUG_VALUE: mic_array_hires_delay:c_from_pdm_frontend <- R7
	#DEBUG_VALUE: mic_array_hires_delay:c_to_decimator <- R6
	#DEBUG_VALUE: mic_array_hires_delay:n <- R5
	#DEBUG_VALUE: mic_array_hires_delay:c_cmd <- [SP+16]
	{
		ldc r0, 0
		nop
	}
	ldc r11, 2048
.Ltmp29:
.LBB0_6:                                # %LoopBody12.2
                                        #   Parent Loop BB0_1 Depth=1
                                        # =>  This Inner Loop Header: Depth=2
.Lxtalabel4:
	#DEBUG_VALUE: mic_array_hires_delay:c_from_pdm_frontend <- R7
	#DEBUG_VALUE: mic_array_hires_delay:c_to_decimator <- R6
	#DEBUG_VALUE: mic_array_hires_delay:n <- R5
	#DEBUG_VALUE: mic_array_hires_delay:c_cmd <- [SP+16]
	.loc	1 26 0                  # /Users/rcalhoun/code/git/sw_usb_audio/lib_mic_array/lib_mic_array/src/hires_delay.xc:26:0
	{
		shl r2, r0, r3
		ldw r1, r7[r0]
	}
	{
		add r2, r2, r10
		nop
	}
	.loc	1 26 0                  # /Users/rcalhoun/code/git/sw_usb_audio/lib_mic_array/lib_mic_array/src/hires_delay.xc:26:0
	ldaw r2, r2[r4]
.Lxta.endpoint_labels2:
	{
		in r1, res[r1]
		add r2, r2, r11
	}
	.loc	1 26 0                  # /Users/rcalhoun/code/git/sw_usb_audio/lib_mic_array/lib_mic_array/src/hires_delay.xc:26:0
	{
		add r0, r0, 1
		stw r1, r2[0]
	}
.Lxta.loop_labels2:
	# LOOPMARKER 2
	.loc	1 25 0                  # /Users/rcalhoun/code/git/sw_usb_audio/lib_mic_array/lib_mic_array/src/hires_delay.xc:25:0
	{
		eq r1, r0, r5
		nop
	}
	bf r1, .LBB0_6
.Ltmp30:
# BB#7:                                 #   in Loop: Header=BB0_1 Depth=1
	#DEBUG_VALUE: mic_array_hires_delay:c_from_pdm_frontend <- R7
	#DEBUG_VALUE: mic_array_hires_delay:c_to_decimator <- R6
	#DEBUG_VALUE: mic_array_hires_delay:n <- R5
	#DEBUG_VALUE: mic_array_hires_delay:c_cmd <- [SP+16]
	{
		ldc r0, 0
		nop
	}
	ldc r11, 3072
.Ltmp31:
.LBB0_8:                                # %LoopBody12.3
                                        #   Parent Loop BB0_1 Depth=1
                                        # =>  This Inner Loop Header: Depth=2
.Lxtalabel5:
	#DEBUG_VALUE: mic_array_hires_delay:c_from_pdm_frontend <- R7
	#DEBUG_VALUE: mic_array_hires_delay:c_to_decimator <- R6
	#DEBUG_VALUE: mic_array_hires_delay:n <- R5
	#DEBUG_VALUE: mic_array_hires_delay:c_cmd <- [SP+16]
	.loc	1 26 0                  # /Users/rcalhoun/code/git/sw_usb_audio/lib_mic_array/lib_mic_array/src/hires_delay.xc:26:0
	{
		shl r2, r0, r3
		ldw r1, r7[r0]
	}
	{
		add r2, r2, r10
		nop
	}
	.loc	1 26 0                  # /Users/rcalhoun/code/git/sw_usb_audio/lib_mic_array/lib_mic_array/src/hires_delay.xc:26:0
	ldaw r2, r2[r4]
.Lxta.endpoint_labels3:
	{
		in r1, res[r1]
		add r2, r2, r11
	}
	.loc	1 26 0                  # /Users/rcalhoun/code/git/sw_usb_audio/lib_mic_array/lib_mic_array/src/hires_delay.xc:26:0
	{
		add r0, r0, 1
		stw r1, r2[0]
	}
.Lxta.loop_labels3:
	# LOOPMARKER 3
	.loc	1 25 0                  # /Users/rcalhoun/code/git/sw_usb_audio/lib_mic_array/lib_mic_array/src/hires_delay.xc:25:0
	{
		eq r1, r0, r5
		nop
	}
	bf r1, .LBB0_8
.Ltmp32:
# BB#9:                                 # %LoopIncrement.3
                                        #   in Loop: Header=BB0_1 Depth=1
.Lxtalabel6:
	#DEBUG_VALUE: mic_array_hires_delay:c_from_pdm_frontend <- R7
	#DEBUG_VALUE: mic_array_hires_delay:c_to_decimator <- R6
	#DEBUG_VALUE: mic_array_hires_delay:n <- R5
	#DEBUG_VALUE: mic_array_hires_delay:c_cmd <- [SP+16]
	#DEBUG_VALUE: i <- 1
	{
		ldc r0, 0
		nop
	}
	bf r5, .LBB0_10
.Ltmp33:
.LBB0_13:                               # %LoopBody51.preheader
                                        #   Parent Loop BB0_1 Depth=1
                                        # =>  This Loop Header: Depth=2
                                        #       Child Loop BB0_14 Depth 3
.Lxtalabel7:
	#DEBUG_VALUE: mic_array_hires_delay:c_from_pdm_frontend <- R7
	#DEBUG_VALUE: mic_array_hires_delay:c_from_pdm_frontend <- [SP+20]
	#DEBUG_VALUE: mic_array_hires_delay:c_to_decimator <- R6
	#DEBUG_VALUE: mic_array_hires_delay:n <- R5
	#DEBUG_VALUE: mic_array_hires_delay:c_cmd <- [SP+16]
	#DEBUG_VALUE: j <- 0
	{
		mov r7, r3
		ldc r1, 0
	}
.Ltmp34:
.LBB0_14:                               # %LoopBody51
                                        #   Parent Loop BB0_1 Depth=1
                                        #     Parent Loop BB0_13 Depth=2
                                        # =>    This Inner Loop Header: Depth=3
.Lxtalabel8:
	#DEBUG_VALUE: mic_array_hires_delay:c_from_pdm_frontend <- [SP+20]
	#DEBUG_VALUE: mic_array_hires_delay:c_to_decimator <- R6
	#DEBUG_VALUE: mic_array_hires_delay:n <- R5
	#DEBUG_VALUE: mic_array_hires_delay:c_cmd <- [SP+16]
	#DEBUG_VALUE: j <- 0
	{
		nop
		ldw r2, r6[r1]
	}
	.loc	1 33 108                # /Users/rcalhoun/code/git/sw_usb_audio/lib_mic_array/lib_mic_array/src/hires_delay.xc:33:108
.Ltmp35:
	ldaw r3, r0[r1]
	{
		nop
		ldw r11, r8[r3]
	}
	.loc	1 33 108                # /Users/rcalhoun/code/git/sw_usb_audio/lib_mic_array/lib_mic_array/src/hires_delay.xc:33:108
	{
		sub r11, r4, r11
		nop
	}
	.loc	1 33 108                # /Users/rcalhoun/code/git/sw_usb_audio/lib_mic_array/lib_mic_array/src/hires_delay.xc:33:108
	{
		zext r11, 8
		shl r3, r3, r9
	}
	.loc	1 33 108                # /Users/rcalhoun/code/git/sw_usb_audio/lib_mic_array/lib_mic_array/src/hires_delay.xc:33:108
	{
		add r3, r10, r3
		nop
	}
	{
		nop
		ldw r3, r3[r11]
	}
.Ltmp36:
	#DEBUG_VALUE: j <- R1
	.loc	1 33 108                # /Users/rcalhoun/code/git/sw_usb_audio/lib_mic_array/lib_mic_array/src/hires_delay.xc:33:108
.Lxta.endpoint_labels4:
	{
		out res[r2], r3
		add r1, r1, 1
	}
.Ltmp37:
.Lxta.loop_labels4:
	# LOOPMARKER 4
	.loc	1 31 0                  # /Users/rcalhoun/code/git/sw_usb_audio/lib_mic_array/lib_mic_array/src/hires_delay.xc:31:0
	{
		eq r2, r1, r5
		nop
	}
	bf r2, .LBB0_14
.Ltmp38:
# BB#15:                                # %LoopIncrement42
                                        #   in Loop: Header=BB0_13 Depth=2
.Lxtalabel9:
	#DEBUG_VALUE: mic_array_hires_delay:c_from_pdm_frontend <- [SP+20]
	#DEBUG_VALUE: mic_array_hires_delay:c_to_decimator <- R6
	#DEBUG_VALUE: mic_array_hires_delay:n <- R5
	#DEBUG_VALUE: mic_array_hires_delay:c_cmd <- [SP+16]
	.loc	1 30 0                  # /Users/rcalhoun/code/git/sw_usb_audio/lib_mic_array/lib_mic_array/src/hires_delay.xc:30:0
	{
		add r0, r0, 1
		nop
	}
.Ltmp39:
	#DEBUG_VALUE: i <- R0
	.loc	1 30 0                  # /Users/rcalhoun/code/git/sw_usb_audio/lib_mic_array/lib_mic_array/src/hires_delay.xc:30:0
	{
		eq r1, r0, 4
		nop
	}
.xtaloop 4
	# LOOPMARKER 6
.Lxta.loop_labels5:
	# LOOPMARKER 5
.Ltmp40:
	#DEBUG_VALUE: mic_array_hires_delay:c_from_pdm_frontend <- R7
	{
		mov r3, r7
		ldw r7, sp[5]
	}
.Ltmp41:
	bf r1, .LBB0_13
.Ltmp42:
.LBB0_10:                               # %ifdone35
                                        #   in Loop: Header=BB0_1 Depth=1
.Lxtalabel10:
	#DEBUG_VALUE: mic_array_hires_delay:c_from_pdm_frontend <- R7
	#DEBUG_VALUE: mic_array_hires_delay:c_to_decimator <- R6
	#DEBUG_VALUE: mic_array_hires_delay:n <- R5
	#DEBUG_VALUE: mic_array_hires_delay:c_cmd <- [SP+16]
	.loc	1 36 0                  # /Users/rcalhoun/code/git/sw_usb_audio/lib_mic_array/lib_mic_array/src/hires_delay.xc:36:0
	{
		add r0, r4, 1
		nop
	}
.Ltmp43:
	#DEBUG_VALUE: head <- R0
	ldc r1, 256
	.loc	1 37 9                  # /Users/rcalhoun/code/git/sw_usb_audio/lib_mic_array/lib_mic_array/src/hires_delay.xc:37:9
	{
		eq r1, r0, r1
		ldc r4, 0
	}
	bt r1, .LBB0_12
.Ltmp44:
# BB#11:                                # %ifdone35
                                        #   in Loop: Header=BB0_1 Depth=1
.Lxtalabel11:
	#DEBUG_VALUE: mic_array_hires_delay:c_from_pdm_frontend <- R7
	#DEBUG_VALUE: mic_array_hires_delay:c_to_decimator <- R6
	#DEBUG_VALUE: mic_array_hires_delay:n <- R5
	#DEBUG_VALUE: mic_array_hires_delay:c_cmd <- [SP+16]
	#DEBUG_VALUE: head <- R0
	.loc	1 37 9                  # /Users/rcalhoun/code/git/sw_usb_audio/lib_mic_array/lib_mic_array/src/hires_delay.xc:37:9
	{
		mov r4, r0
		nop
	}
.Ltmp45:
	#DEBUG_VALUE: head <- R4
.LBB0_12:                               # %ifdone35
                                        #   in Loop: Header=BB0_1 Depth=1
.Lxtalabel12:
	#DEBUG_VALUE: mic_array_hires_delay:c_from_pdm_frontend <- R7
	#DEBUG_VALUE: mic_array_hires_delay:c_to_decimator <- R6
	#DEBUG_VALUE: mic_array_hires_delay:n <- R5
	#DEBUG_VALUE: mic_array_hires_delay:c_cmd <- [SP+16]
	#DEBUG_VALUE: head <- R4
	.loc	1 51 0                  # /Users/rcalhoun/code/git/sw_usb_audio/lib_mic_array/lib_mic_array/src/hires_delay.xc:51:0
	{
		setsr 1
		nop
	}
	{
		nop
		nop
	}
	{
		clrsr 1
		nop
	}
	.loc	1 51 0                  # /Users/rcalhoun/code/git/sw_usb_audio/lib_mic_array/lib_mic_array/src/hires_delay.xc:51:0
	bu .Ltmp23
.Ltmp46:
.Ltmp17:                                # Block address taken
.LBB0_16:                               # %selectcase
                                        #   in Loop: Header=BB0_1 Depth=1
.Lxtalabel13:
	#DEBUG_VALUE: mic_array_hires_delay:c_from_pdm_frontend <- R7
	#DEBUG_VALUE: mic_array_hires_delay:c_to_decimator <- R6
	#DEBUG_VALUE: mic_array_hires_delay:n <- R5
	#DEBUG_VALUE: mic_array_hires_delay:c_cmd <- [SP+16]
	#DEBUG_VALUE: head <- R4
	{
		nop
		ldw r0, sp[4]
	}
	.loc	1 41 0                  # /Users/rcalhoun/code/git/sw_usb_audio/lib_mic_array/lib_mic_array/src/hires_delay.xc:41:0
.Ltmp47:
.Lxta.endpoint_labels5:
	{
		in r0, res[r0]
		nop
	}
.Ltmp48:
	#DEBUG_VALUE: n <- R0
	#DEBUG_VALUE: i <- 0
	bf r0, .LBB0_1
	bu .LBB0_17
.Ltmp49:
	.cc_bottom mic_array_hires_delay.function
	.set	mic_array_hires_delay.nstackwords,((memset.nstackwords $M __memcpy_4.nstackwords) + 4126)
	.globl	mic_array_hires_delay.nstackwords
	.set	mic_array_hires_delay.maxcores,1
	.globl	mic_array_hires_delay.maxcores
	.set	mic_array_hires_delay.maxtimers,0
	.globl	mic_array_hires_delay.maxtimers
	.set	mic_array_hires_delay.maxchanends,0
	.globl	mic_array_hires_delay.maxchanends
.Ltmp50:
	.size	mic_array_hires_delay, .Ltmp50-mic_array_hires_delay
.Lfunc_end0:
	.cfi_endproc

	.globl	mic_array_hires_delay_set_taps
	.align	4
	.type	mic_array_hires_delay_set_taps,@function
	.cc_top mic_array_hires_delay_set_taps.function,mic_array_hires_delay_set_taps
mic_array_hires_delay_set_taps:         # @mic_array_hires_delay_set_taps
.Lfunc_begin1:
	.loc	1 58 0                  # /Users/rcalhoun/code/git/sw_usb_audio/lib_mic_array/lib_mic_array/src/hires_delay.xc:58:0
	.cfi_startproc
	.issue_mode dual
# BB#0:                                 # %allocas
.Lxtalabel14:
	{
		nop
		dualentsp 0
	}
	{
		extsp 4
		nop
	}
.Ltmp51:
	.cfi_def_cfa_offset 16
	std r5, r4, sp[0]               # 4-byte Folded Spill
.Ltmp52:
	.cfi_offset 4, -16
.Ltmp53:
	.cfi_offset 5, -12
	std r7, r6, sp[1]               # 4-byte Folded Spill
.Ltmp54:
	.cfi_offset 6, -8
.Ltmp55:
	.cfi_offset 7, -4
	#DEBUG_VALUE: mic_array_hires_delay_set_taps:c_cmd <- R0
	#DEBUG_VALUE: mic_array_hires_delay_set_taps:delays <- R1
	#DEBUG_VALUE: mic_array_hires_delay_set_taps:num_channels <- R2
.Ltmp56:
	#DEBUG_VALUE: i <- 0
	bf r2, .LBB1_5
.Ltmp57:
# BB#1:
	#DEBUG_VALUE: mic_array_hires_delay_set_taps:c_cmd <- R0
	#DEBUG_VALUE: mic_array_hires_delay_set_taps:delays <- R1
	#DEBUG_VALUE: mic_array_hires_delay_set_taps:num_channels <- R2
	ldaw r3, dp[g_hires_shared_memory]
	{
		mkmsk r11, 8
		mov r4, r2
	}
.Ltmp58:
.LBB1_2:                                # %LoopBody
                                        # =>This Inner Loop Header: Depth=1
.Lxtalabel15:
	#DEBUG_VALUE: mic_array_hires_delay_set_taps:c_cmd <- R0
	#DEBUG_VALUE: mic_array_hires_delay_set_taps:num_channels <- R2
	{
		nop
		ldw r5, r1[0]
	}
	.loc	1 61 9 prologue_end     # /Users/rcalhoun/code/git/sw_usb_audio/lib_mic_array/lib_mic_array/src/hires_delay.xc:61:9
.Ltmp59:
	{
		shr r7, r5, 8
		mov r6, r11
	}
	bt r7, .LBB1_4
# BB#3:                                 # %LoopBody
                                        #   in Loop: Header=BB1_2 Depth=1
.Lxtalabel16:
	#DEBUG_VALUE: mic_array_hires_delay_set_taps:c_cmd <- R0
	#DEBUG_VALUE: mic_array_hires_delay_set_taps:num_channels <- R2
	.loc	1 62 0                  # /Users/rcalhoun/code/git/sw_usb_audio/lib_mic_array/lib_mic_array/src/hires_delay.xc:62:0
	{
		mov r6, r5
		nop
	}
.LBB1_4:                                # %LoopBody
                                        #   in Loop: Header=BB1_2 Depth=1
.Lxtalabel17:
	#DEBUG_VALUE: mic_array_hires_delay_set_taps:c_cmd <- R0
	#DEBUG_VALUE: mic_array_hires_delay_set_taps:num_channels <- R2
	.loc	1 67 0                  # /Users/rcalhoun/code/git/sw_usb_audio/lib_mic_array/lib_mic_array/src/hires_delay.xc:67:0
.Ltmp60:
	{
		add r3, r3, 4
		stw r6, r3[0]
	}
.Ltmp61:
	.loc	1 59 0                  # /Users/rcalhoun/code/git/sw_usb_audio/lib_mic_array/lib_mic_array/src/hires_delay.xc:59:0
	{
		add r1, r1, 4
		sub r4, r4, 1
	}
.Lxta.loop_labels6:
	# LOOPMARKER 0
	bt r4, .LBB1_2
.Ltmp62:
.LBB1_5:                                # %ifdone
.Lxtalabel18:
	#DEBUG_VALUE: mic_array_hires_delay_set_taps:c_cmd <- R0
	#DEBUG_VALUE: mic_array_hires_delay_set_taps:num_channels <- R2
	.loc	1 70 26                 # /Users/rcalhoun/code/git/sw_usb_audio/lib_mic_array/lib_mic_array/src/hires_delay.xc:70:26
.Lxta.endpoint_labels6:
	{
		out res[r0], r2
		nop
	}
	ldd r7, r6, sp[1]               # 4-byte Folded Reload
	ldd r5, r4, sp[0]               # 4-byte Folded Reload
	{
		ldaw sp, sp[4]
		nop
	}
	{
		nop
		retsp 0
	}
	# RETURN_REG_HOLDER
.Ltmp63:
	.cc_bottom mic_array_hires_delay_set_taps.function
	.set	mic_array_hires_delay_set_taps.nstackwords,4
	.globl	mic_array_hires_delay_set_taps.nstackwords
	.set	mic_array_hires_delay_set_taps.maxcores,1
	.globl	mic_array_hires_delay_set_taps.maxcores
	.set	mic_array_hires_delay_set_taps.maxtimers,0
	.globl	mic_array_hires_delay_set_taps.maxtimers
	.set	mic_array_hires_delay_set_taps.maxchanends,0
	.globl	mic_array_hires_delay_set_taps.maxchanends
.Ltmp64:
	.size	mic_array_hires_delay_set_taps, .Ltmp64-mic_array_hires_delay_set_taps
.Lfunc_end1:
	.cfi_endproc

	.section	.dp.bss,"awd",@nobits
	.cc_top g_hires_shared_memory.data,g_hires_shared_memory
	.globl	g_hires_shared_memory.globound
g_hires_shared_memory.globound = 16
	.globl	g_hires_shared_memory
	.align	8
	.type	g_hires_shared_memory,@object
	.size	g_hires_shared_memory, 64
g_hires_shared_memory:
	.space	64
	.cc_bottom g_hires_shared_memory.data
.Ldebug_end0:
	.text
.Ldebug_end1:
	.file	3 "/Applications/XMOS_XTC_15.1.4/target/include/timer.h"
	.section	.xtaendpointtable,"",@progbits
.Lentries_start0:
	.long	.Lentries_end1-.Lentries_start0
	.long	0
	.ascii	"/Users/rcalhoun/code/git/sw_usb_audio/sw_usb_audio/app_usb_aud_mic_array/.build_1i8o2"
	.byte	0
.cc_top cc_0,.Lxta.endpoint_labels0
	.ascii	"/Users/rcalhoun/code/git/sw_usb_audio/lib_mic_array/lib_mic_array/src/hires_delay.xc"
	.byte	0
	.long	26
	.long	.Lxta.endpoint_labels0
.cc_bottom cc_0
.cc_top cc_1,.Lxta.endpoint_labels1
	.ascii	"/Users/rcalhoun/code/git/sw_usb_audio/lib_mic_array/lib_mic_array/src/hires_delay.xc"
	.byte	0
	.long	26
	.long	.Lxta.endpoint_labels1
.cc_bottom cc_1
.cc_top cc_2,.Lxta.endpoint_labels2
	.ascii	"/Users/rcalhoun/code/git/sw_usb_audio/lib_mic_array/lib_mic_array/src/hires_delay.xc"
	.byte	0
	.long	26
	.long	.Lxta.endpoint_labels2
.cc_bottom cc_2
.cc_top cc_3,.Lxta.endpoint_labels3
	.ascii	"/Users/rcalhoun/code/git/sw_usb_audio/lib_mic_array/lib_mic_array/src/hires_delay.xc"
	.byte	0
	.long	26
	.long	.Lxta.endpoint_labels3
.cc_bottom cc_3
.cc_top cc_4,.Lxta.endpoint_labels4
	.ascii	"/Users/rcalhoun/code/git/sw_usb_audio/lib_mic_array/lib_mic_array/src/hires_delay.xc"
	.byte	0
	.long	33
	.long	.Lxta.endpoint_labels4
.cc_bottom cc_4
.cc_top cc_5,.Lxta.endpoint_labels5
	.ascii	"/Users/rcalhoun/code/git/sw_usb_audio/lib_mic_array/lib_mic_array/src/hires_delay.xc"
	.byte	0
	.long	40
	.long	.Lxta.endpoint_labels5
.cc_bottom cc_5
.cc_top cc_6,.Lxta.endpoint_labels6
	.ascii	"/Users/rcalhoun/code/git/sw_usb_audio/lib_mic_array/lib_mic_array/src/hires_delay.xc"
	.byte	0
	.long	70
	.long	.Lxta.endpoint_labels6
.cc_bottom cc_6
.Lentries_end1:
	.section	.xtalabeltable,"",@progbits
.Lentries_start2:
	.long	.Lentries_end3-.Lentries_start2
	.long	0
	.ascii	"/Users/rcalhoun/code/git/sw_usb_audio/sw_usb_audio/app_usb_aud_mic_array/.build_1i8o2"
	.byte	0
.cc_top cc_7,.Lxtalabel0
	.ascii	"/Applications/XMOS_XTC_15.1.4/target/include/xc/safe/string.h"
	.byte	0
	.long	19
	.long	19
	.long	.Lxtalabel0
.cc_bottom cc_7
.cc_top cc_8,.Lxtalabel0
	.ascii	"/Users/rcalhoun/code/git/sw_usb_audio/lib_mic_array/lib_mic_array/src/hires_delay.xc"
	.byte	0
	.long	18
	.long	19
	.long	.Lxtalabel0
.cc_bottom cc_8
.cc_top cc_9,.Lxtalabel0
	.ascii	"/Users/rcalhoun/code/git/sw_usb_audio/lib_mic_array/lib_mic_array/src/hires_delay.xc"
	.byte	0
	.long	20
	.long	20
	.long	.Lxtalabel0
.cc_bottom cc_9
.cc_top cc_10,.Lxtalabel0
	.ascii	"/Users/rcalhoun/code/git/sw_usb_audio/lib_mic_array/lib_mic_array/src/hires_delay.xc"
	.byte	0
	.long	22
	.long	23
	.long	.Lxtalabel0
.cc_bottom cc_10
.cc_top cc_11,.Lxtalabel1
	.ascii	"/Users/rcalhoun/code/git/sw_usb_audio/lib_mic_array/lib_mic_array/src/hires_delay.xc"
	.byte	0
	.long	24
	.long	24
	.long	.Lxtalabel1
.cc_bottom cc_11
.cc_top cc_12,.Lxtalabel1
	.ascii	"/Users/rcalhoun/code/git/sw_usb_audio/lib_mic_array/lib_mic_array/src/hires_delay.xc"
	.byte	0
	.long	25
	.long	25
	.long	.Lxtalabel1
.cc_bottom cc_12
.cc_top cc_13,.Lxtalabel1
	.ascii	"/Users/rcalhoun/code/git/sw_usb_audio/lib_mic_array/lib_mic_array/src/hires_delay.xc"
	.byte	0
	.long	25
	.long	25
	.long	.Lxtalabel1
.cc_bottom cc_13
.cc_top cc_14,.Lxtalabel1
	.ascii	"/Users/rcalhoun/code/git/sw_usb_audio/lib_mic_array/lib_mic_array/src/hires_delay.xc"
	.byte	0
	.long	25
	.long	25
	.long	.Lxtalabel1
.cc_bottom cc_14
.cc_top cc_15,.Lxtalabel1
	.ascii	"/Users/rcalhoun/code/git/sw_usb_audio/lib_mic_array/lib_mic_array/src/hires_delay.xc"
	.byte	0
	.long	25
	.long	25
	.long	.Lxtalabel1
.cc_bottom cc_15
.cc_top cc_16,.Lxtalabel5
	.ascii	"/Users/rcalhoun/code/git/sw_usb_audio/lib_mic_array/lib_mic_array/src/hires_delay.xc"
	.byte	0
	.long	26
	.long	27
	.long	.Lxtalabel5
.cc_bottom cc_16
.cc_top cc_17,.Lxtalabel3
	.ascii	"/Users/rcalhoun/code/git/sw_usb_audio/lib_mic_array/lib_mic_array/src/hires_delay.xc"
	.byte	0
	.long	26
	.long	27
	.long	.Lxtalabel3
.cc_bottom cc_17
.cc_top cc_18,.Lxtalabel2
	.ascii	"/Users/rcalhoun/code/git/sw_usb_audio/lib_mic_array/lib_mic_array/src/hires_delay.xc"
	.byte	0
	.long	26
	.long	27
	.long	.Lxtalabel2
.cc_bottom cc_18
.cc_top cc_19,.Lxtalabel4
	.ascii	"/Users/rcalhoun/code/git/sw_usb_audio/lib_mic_array/lib_mic_array/src/hires_delay.xc"
	.byte	0
	.long	26
	.long	27
	.long	.Lxtalabel4
.cc_bottom cc_19
.cc_top cc_20,.Lxtalabel1
	.ascii	"/Users/rcalhoun/code/git/sw_usb_audio/lib_mic_array/lib_mic_array/src/hires_delay.xc"
	.byte	0
	.long	28
	.long	28
	.long	.Lxtalabel1
.cc_bottom cc_20
.cc_top cc_21,.Lxtalabel1
	.ascii	"/Users/rcalhoun/code/git/sw_usb_audio/lib_mic_array/lib_mic_array/src/hires_delay.xc"
	.byte	0
	.long	28
	.long	28
	.long	.Lxtalabel1
.cc_bottom cc_21
.cc_top cc_22,.Lxtalabel1
	.ascii	"/Users/rcalhoun/code/git/sw_usb_audio/lib_mic_array/lib_mic_array/src/hires_delay.xc"
	.byte	0
	.long	28
	.long	28
	.long	.Lxtalabel1
.cc_bottom cc_22
.cc_top cc_23,.Lxtalabel1
	.ascii	"/Users/rcalhoun/code/git/sw_usb_audio/lib_mic_array/lib_mic_array/src/hires_delay.xc"
	.byte	0
	.long	28
	.long	28
	.long	.Lxtalabel1
.cc_bottom cc_23
.cc_top cc_24,.Lxtalabel6
	.ascii	"/Users/rcalhoun/code/git/sw_usb_audio/lib_mic_array/lib_mic_array/src/hires_delay.xc"
	.byte	0
	.long	28
	.long	28
	.long	.Lxtalabel6
.cc_bottom cc_24
.cc_top cc_25,.Lxtalabel1
	.ascii	"/Users/rcalhoun/code/git/sw_usb_audio/lib_mic_array/lib_mic_array/src/hires_delay.xc"
	.byte	0
	.long	30
	.long	30
	.long	.Lxtalabel1
.cc_bottom cc_25
.cc_top cc_26,.Lxtalabel1
	.ascii	"/Users/rcalhoun/code/git/sw_usb_audio/lib_mic_array/lib_mic_array/src/hires_delay.xc"
	.byte	0
	.long	30
	.long	30
	.long	.Lxtalabel1
.cc_bottom cc_26
.cc_top cc_27,.Lxtalabel1
	.ascii	"/Users/rcalhoun/code/git/sw_usb_audio/lib_mic_array/lib_mic_array/src/hires_delay.xc"
	.byte	0
	.long	30
	.long	30
	.long	.Lxtalabel1
.cc_bottom cc_27
.cc_top cc_28,.Lxtalabel6
	.ascii	"/Users/rcalhoun/code/git/sw_usb_audio/lib_mic_array/lib_mic_array/src/hires_delay.xc"
	.byte	0
	.long	30
	.long	30
	.long	.Lxtalabel6
.cc_bottom cc_28
.cc_top cc_29,.Lxtalabel1
	.ascii	"/Users/rcalhoun/code/git/sw_usb_audio/lib_mic_array/lib_mic_array/src/hires_delay.xc"
	.byte	0
	.long	30
	.long	30
	.long	.Lxtalabel1
.cc_bottom cc_29
.cc_top cc_30,.Lxtalabel7
	.ascii	"/Users/rcalhoun/code/git/sw_usb_audio/lib_mic_array/lib_mic_array/src/hires_delay.xc"
	.byte	0
	.long	31
	.long	31
	.long	.Lxtalabel7
.cc_bottom cc_30
.cc_top cc_31,.Lxtalabel8
	.ascii	"/Users/rcalhoun/code/git/sw_usb_audio/lib_mic_array/lib_mic_array/src/hires_delay.xc"
	.byte	0
	.long	32
	.long	34
	.long	.Lxtalabel8
.cc_bottom cc_31
.cc_top cc_32,.Lxtalabel9
	.ascii	"/Users/rcalhoun/code/git/sw_usb_audio/lib_mic_array/lib_mic_array/src/hires_delay.xc"
	.byte	0
	.long	35
	.long	35
	.long	.Lxtalabel9
.cc_bottom cc_32
.cc_top cc_33,.Lxtalabel10
	.ascii	"/Users/rcalhoun/code/git/sw_usb_audio/lib_mic_array/lib_mic_array/src/hires_delay.xc"
	.byte	0
	.long	36
	.long	37
	.long	.Lxtalabel10
.cc_bottom cc_33
.cc_top cc_34,.Lxtalabel11
	.ascii	"/Users/rcalhoun/code/git/sw_usb_audio/lib_mic_array/lib_mic_array/src/hires_delay.xc"
	.byte	0
	.long	36
	.long	37
	.long	.Lxtalabel11
.cc_bottom cc_34
.cc_top cc_35,.Lxtalabel12
	.ascii	"/Users/rcalhoun/code/git/sw_usb_audio/lib_mic_array/lib_mic_array/src/hires_delay.xc"
	.byte	0
	.long	36
	.long	37
	.long	.Lxtalabel12
.cc_bottom cc_35
.cc_top cc_36,.Lxtalabel10
	.ascii	"/Users/rcalhoun/code/git/sw_usb_audio/lib_mic_array/lib_mic_array/src/hires_delay.xc"
	.byte	0
	.long	38
	.long	38
	.long	.Lxtalabel10
.cc_bottom cc_36
.cc_top cc_37,.Lxtalabel11
	.ascii	"/Users/rcalhoun/code/git/sw_usb_audio/lib_mic_array/lib_mic_array/src/hires_delay.xc"
	.byte	0
	.long	38
	.long	38
	.long	.Lxtalabel11
.cc_bottom cc_37
.cc_top cc_38,.Lxtalabel12
	.ascii	"/Users/rcalhoun/code/git/sw_usb_audio/lib_mic_array/lib_mic_array/src/hires_delay.xc"
	.byte	0
	.long	38
	.long	38
	.long	.Lxtalabel12
.cc_bottom cc_38
.cc_top cc_39,.Lxtalabel10
	.ascii	"/Users/rcalhoun/code/git/sw_usb_audio/lib_mic_array/lib_mic_array/src/hires_delay.xc"
	.byte	0
	.long	40
	.long	41
	.long	.Lxtalabel10
.cc_bottom cc_39
.cc_top cc_40,.Lxtalabel11
	.ascii	"/Users/rcalhoun/code/git/sw_usb_audio/lib_mic_array/lib_mic_array/src/hires_delay.xc"
	.byte	0
	.long	40
	.long	41
	.long	.Lxtalabel11
.cc_bottom cc_40
.cc_top cc_41,.Lxtalabel12
	.ascii	"/Users/rcalhoun/code/git/sw_usb_audio/lib_mic_array/lib_mic_array/src/hires_delay.xc"
	.byte	0
	.long	40
	.long	41
	.long	.Lxtalabel12
.cc_bottom cc_41
.cc_top cc_42,.Lxtalabel13
	.ascii	"/Users/rcalhoun/code/git/sw_usb_audio/lib_mic_array/lib_mic_array/src/hires_delay.xc"
	.byte	0
	.long	42
	.long	42
	.long	.Lxtalabel13
.cc_bottom cc_42
.cc_top cc_43,.Lxtalabel12
	.ascii	"/Users/rcalhoun/code/git/sw_usb_audio/lib_mic_array/lib_mic_array/src/hires_delay.xc"
	.byte	0
	.long	52
	.long	52
	.long	.Lxtalabel12
.cc_bottom cc_43
.cc_top cc_44,.Lxtalabel11
	.ascii	"/Users/rcalhoun/code/git/sw_usb_audio/lib_mic_array/lib_mic_array/src/hires_delay.xc"
	.byte	0
	.long	52
	.long	52
	.long	.Lxtalabel11
.cc_bottom cc_44
.cc_top cc_45,.Lxtalabel10
	.ascii	"/Users/rcalhoun/code/git/sw_usb_audio/lib_mic_array/lib_mic_array/src/hires_delay.xc"
	.byte	0
	.long	52
	.long	52
	.long	.Lxtalabel10
.cc_bottom cc_45
.cc_top cc_46,.Lxtalabel14
	.ascii	"/Users/rcalhoun/code/git/sw_usb_audio/lib_mic_array/lib_mic_array/src/hires_delay.xc"
	.byte	0
	.long	59
	.long	59
	.long	.Lxtalabel14
.cc_bottom cc_46
.cc_top cc_47,.Lxtalabel15
	.ascii	"/Users/rcalhoun/code/git/sw_usb_audio/lib_mic_array/lib_mic_array/src/hires_delay.xc"
	.byte	0
	.long	60
	.long	61
	.long	.Lxtalabel15
.cc_bottom cc_47
.cc_top cc_48,.Lxtalabel16
	.ascii	"/Users/rcalhoun/code/git/sw_usb_audio/lib_mic_array/lib_mic_array/src/hires_delay.xc"
	.byte	0
	.long	60
	.long	61
	.long	.Lxtalabel16
.cc_bottom cc_48
.cc_top cc_49,.Lxtalabel17
	.ascii	"/Users/rcalhoun/code/git/sw_usb_audio/lib_mic_array/lib_mic_array/src/hires_delay.xc"
	.byte	0
	.long	60
	.long	61
	.long	.Lxtalabel17
.cc_bottom cc_49
.cc_top cc_50,.Lxtalabel15
	.ascii	"/Users/rcalhoun/code/git/sw_usb_audio/lib_mic_array/lib_mic_array/src/hires_delay.xc"
	.byte	0
	.long	65
	.long	69
	.long	.Lxtalabel15
.cc_bottom cc_50
.cc_top cc_51,.Lxtalabel16
	.ascii	"/Users/rcalhoun/code/git/sw_usb_audio/lib_mic_array/lib_mic_array/src/hires_delay.xc"
	.byte	0
	.long	65
	.long	69
	.long	.Lxtalabel16
.cc_bottom cc_51
.cc_top cc_52,.Lxtalabel17
	.ascii	"/Users/rcalhoun/code/git/sw_usb_audio/lib_mic_array/lib_mic_array/src/hires_delay.xc"
	.byte	0
	.long	65
	.long	69
	.long	.Lxtalabel17
.cc_bottom cc_52
.cc_top cc_53,.Lxtalabel18
	.ascii	"/Users/rcalhoun/code/git/sw_usb_audio/lib_mic_array/lib_mic_array/src/hires_delay.xc"
	.byte	0
	.long	70
	.long	71
	.long	.Lxtalabel18
.cc_bottom cc_53
.Lentries_end3:
	.section	.xtalooplabeltable,"",@progbits
.Lentries_start4:
	.long	.Lentries_end5-.Lentries_start4
	.long	0
	.ascii	"/Users/rcalhoun/code/git/sw_usb_audio/sw_usb_audio/app_usb_aud_mic_array/.build_1i8o2"
	.byte	0
.cc_top cc_54,.Lxta.loop_labels0
	.ascii	"/Users/rcalhoun/code/git/sw_usb_audio/lib_mic_array/lib_mic_array/src/hires_delay.xc"
	.byte	0
	.long	26
	.long	27
	.long	.Lxta.loop_labels0
.cc_bottom cc_54
.cc_top cc_55,.Lxta.loop_labels1
	.ascii	"/Users/rcalhoun/code/git/sw_usb_audio/lib_mic_array/lib_mic_array/src/hires_delay.xc"
	.byte	0
	.long	26
	.long	27
	.long	.Lxta.loop_labels1
.cc_bottom cc_55
.cc_top cc_56,.Lxta.loop_labels2
	.ascii	"/Users/rcalhoun/code/git/sw_usb_audio/lib_mic_array/lib_mic_array/src/hires_delay.xc"
	.byte	0
	.long	26
	.long	27
	.long	.Lxta.loop_labels2
.cc_bottom cc_56
.cc_top cc_57,.Lxta.loop_labels3
	.ascii	"/Users/rcalhoun/code/git/sw_usb_audio/lib_mic_array/lib_mic_array/src/hires_delay.xc"
	.byte	0
	.long	26
	.long	27
	.long	.Lxta.loop_labels3
.cc_bottom cc_57
.cc_top cc_58,.Lxta.loop_labels5
	.ascii	"/Users/rcalhoun/code/git/sw_usb_audio/lib_mic_array/lib_mic_array/src/hires_delay.xc"
	.byte	0
	.long	31
	.long	31
	.long	.Lxta.loop_labels5
.cc_bottom cc_58
.cc_top cc_59,.Lxta.loop_labels4
	.ascii	"/Users/rcalhoun/code/git/sw_usb_audio/lib_mic_array/lib_mic_array/src/hires_delay.xc"
	.byte	0
	.long	32
	.long	34
	.long	.Lxta.loop_labels4
.cc_bottom cc_59
.cc_top cc_60,.Lxta.loop_labels5
	.ascii	"/Users/rcalhoun/code/git/sw_usb_audio/lib_mic_array/lib_mic_array/src/hires_delay.xc"
	.byte	0
	.long	35
	.long	35
	.long	.Lxta.loop_labels5
.cc_bottom cc_60
.cc_top cc_61,.Lxta.loop_labels6
	.ascii	"/Users/rcalhoun/code/git/sw_usb_audio/lib_mic_array/lib_mic_array/src/hires_delay.xc"
	.byte	0
	.long	60
	.long	69
	.long	.Lxta.loop_labels6
.cc_bottom cc_61
.Lentries_end5:
	.section	.trap_info,"",@progbits
.Ltrap_info_entries_start0:
	.long	.Ltrap_info_entries_end0-.Ltrap_info_entries_start0
	.long	1
.Ltrap_info_entries_end0: