	.text
	.file	"/Users/rcalhoun/code/git/sw_usb_audio/sc_usb_audio/module_usb_audio/main.xc"
                                        # Start of file scope inline assembly
	.inline_definition delay_seconds
	.inline_definition delay_milliseconds
	.inline_definition delay_microseconds
	.inline_definition XUD_SetReady_Out
	.inline_definition XUD_SetReady_OutPtr
	.inline_definition XUD_SetReady_InPtr
	.inline_definition XUD_SetReady_In
	.globalresource 0x10f00,"p_i2s_dac[0]","tile[1]"
	.globalresource 0x10d00,"p_lrclk","tile[1]"
	.globalresource 0x10c00,"p_bclk","tile[1]"
	.globalresource 0x10e00,"p_mclk_in","tile[1]"
	.globalresource 0x100100,"p_for_mclk_count","tile[1]"
	.globalresource 0x206,"clk_audio_mclk","tile[1]"
	.globalresource 0x306,"clk_audio_bclk","tile[1]"
	.set usb_audio_core.savedstate,16
	.globl usb_audio_core.savedstate
	.set _Susb_audio_core_0.savedstate,16
	.globl _Susb_audio_core_0.savedstate
	.set usb_audio_io.savedstate,6
	.globl usb_audio_io.savedstate
	.set _Susb_audio_io_0.savedstate,6
	.globl _Susb_audio_io_0.savedstate
	.set __main__main_tile_1.savedstate,12
	.globl __main__main_tile_1.savedstate
	.weak _i.i_dfu.HandleDfuRequest.maxchanends.group
	.add_to_set _i.i_dfu.HandleDfuRequest.maxchanends.group, _i.i_dfu._chan.HandleDfuRequest.maxchanends, _i.i_dfu._chan.HandleDfuRequest
	.max_reduce _i.i_dfu.HandleDfuRequest.max.maxchanends, _i.i_dfu.HandleDfuRequest.maxchanends.group, 0
	.weak _i.i_dfu.HandleDfuRequest.maxcores.group
	.add_to_set _i.i_dfu.HandleDfuRequest.maxcores.group, _i.i_dfu._chan.HandleDfuRequest.maxcores, _i.i_dfu._chan.HandleDfuRequest
	.max_reduce _i.i_dfu.HandleDfuRequest.max.maxcores, _i.i_dfu.HandleDfuRequest.maxcores.group, 0
	.weak _i.i_dfu.HandleDfuRequest.maxtimers.group
	.add_to_set _i.i_dfu.HandleDfuRequest.maxtimers.group, _i.i_dfu._chan.HandleDfuRequest.maxtimers, _i.i_dfu._chan.HandleDfuRequest
	.max_reduce _i.i_dfu.HandleDfuRequest.max.maxtimers, _i.i_dfu.HandleDfuRequest.maxtimers.group, 0
	.weak _i.i_dfu.HandleDfuRequest.nstackwords.group
	.globl _i.i_dfu.HandleDfuRequest.nstackwords.group
	.weak _i.i_dfu.HandleDfuRequest.fns.group
	.globl _i.i_dfu.HandleDfuRequest.fns.group
	.add_to_set _i.i_dfu.HandleDfuRequest.nstackwords.group, _i.i_dfu._chan.HandleDfuRequest.nstackwords, _i.i_dfu._chan.HandleDfuRequest
	.add_to_set _i.i_dfu.HandleDfuRequest.fns.group, _i.i_dfu._chan.HandleDfuRequest, _i.i_dfu._chan.HandleDfuRequest
	.max_reduce _i.i_dfu.HandleDfuRequest.max.nstackwords, _i.i_dfu.HandleDfuRequest.nstackwords.group, 0
	.max_reduce _i.i_dfu.HandleDfuRequest.fns, _i.i_dfu.HandleDfuRequest.fns.group, 0
	.weak _i.i_dfu.finish.maxchanends.group
	.add_to_set _i.i_dfu.finish.maxchanends.group, _i.i_dfu._chan.finish.maxchanends, _i.i_dfu._chan.finish
	.max_reduce _i.i_dfu.finish.max.maxchanends, _i.i_dfu.finish.maxchanends.group, 0
	.weak _i.i_dfu.finish.maxcores.group
	.add_to_set _i.i_dfu.finish.maxcores.group, _i.i_dfu._chan.finish.maxcores, _i.i_dfu._chan.finish
	.max_reduce _i.i_dfu.finish.max.maxcores, _i.i_dfu.finish.maxcores.group, 0
	.weak _i.i_dfu.finish.maxtimers.group
	.add_to_set _i.i_dfu.finish.maxtimers.group, _i.i_dfu._chan.finish.maxtimers, _i.i_dfu._chan.finish
	.max_reduce _i.i_dfu.finish.max.maxtimers, _i.i_dfu.finish.maxtimers.group, 0
	.weak _i.i_dfu.finish.nstackwords.group
	.globl _i.i_dfu.finish.nstackwords.group
	.weak _i.i_dfu.finish.fns.group
	.globl _i.i_dfu.finish.fns.group
	.add_to_set _i.i_dfu.finish.nstackwords.group, _i.i_dfu._chan.finish.nstackwords, _i.i_dfu._chan.finish
	.add_to_set _i.i_dfu.finish.fns.group, _i.i_dfu._chan.finish, _i.i_dfu._chan.finish
	.max_reduce _i.i_dfu.finish.max.nstackwords, _i.i_dfu.finish.nstackwords.group, 0
	.max_reduce _i.i_dfu.finish.fns, _i.i_dfu.finish.fns.group, 0
	.weak _i.i_dfu.__interface_init.maxchanends.group
	.max_reduce _i.i_dfu.__interface_init.max.maxchanends, _i.i_dfu.__interface_init.maxchanends.group, 0
	.weak _i.i_dfu.__interface_init.maxcores.group
	.max_reduce _i.i_dfu.__interface_init.max.maxcores, _i.i_dfu.__interface_init.maxcores.group, 0
	.weak _i.i_dfu.__interface_init.maxtimers.group
	.max_reduce _i.i_dfu.__interface_init.max.maxtimers, _i.i_dfu.__interface_init.maxtimers.group, 0
	.weak _i.i_dfu.__interface_init.nstackwords.group
	.globl _i.i_dfu.__interface_init.nstackwords.group
	.weak _i.i_dfu.__interface_init.fns.group
	.globl _i.i_dfu.__interface_init.fns.group
	.max_reduce _i.i_dfu.__interface_init.max.nstackwords, _i.i_dfu.__interface_init.nstackwords.group, 0
	.max_reduce _i.i_dfu.__interface_init.fns, _i.i_dfu.__interface_init.fns.group, 0
	.weak _i.i_dfu._client_call_y.maxchanends.group
	.add_to_set _i.i_dfu._client_call_y.maxchanends.group, (__interface_client_call_y_other.maxchanends + __interface_client_call_y_extra.maxchanends), __interface_client_call_y_other
	.max_reduce _i.i_dfu._client_call_y.max.maxchanends, _i.i_dfu._client_call_y.maxchanends.group, 0
	.weak _i.i_dfu._client_call_y.maxcores.group
	.add_to_set _i.i_dfu._client_call_y.maxcores.group, (__interface_client_call_y_other.maxcores + __interface_client_call_y_extra.maxcores), __interface_client_call_y_other
	.max_reduce _i.i_dfu._client_call_y.max.maxcores, _i.i_dfu._client_call_y.maxcores.group, 0
	.weak _i.i_dfu._client_call_y.maxtimers.group
	.add_to_set _i.i_dfu._client_call_y.maxtimers.group, (__interface_client_call_y_other.maxtimers + __interface_client_call_y_extra.maxtimers), __interface_client_call_y_other
	.max_reduce _i.i_dfu._client_call_y.max.maxtimers, _i.i_dfu._client_call_y.maxtimers.group, 0
	.weak _i.i_dfu._client_call_y.nstackwords.group
	.globl _i.i_dfu._client_call_y.nstackwords.group
	.weak _i.i_dfu._client_call_y.fns.group
	.globl _i.i_dfu._client_call_y.fns.group
	.add_to_set _i.i_dfu._client_call_y.nstackwords.group, (__interface_client_call_y_other.nstackwords + __interface_client_call_y_extra.nstackwords), __interface_client_call_y_other
	.add_to_set _i.i_dfu._client_call_y.fns.group, __interface_client_call_y_other, __interface_client_call_y_other
	.max_reduce _i.i_dfu._client_call_y.max.nstackwords, _i.i_dfu._client_call_y.nstackwords.group, 0
	.max_reduce _i.i_dfu._client_call_y.fns, _i.i_dfu._client_call_y.fns.group, 0
	.pushsection .netinfo, "", @netinfo
	.int      0x1eaba15c
	main.parinfo.debugstring0:
	.asciiz "# -1 \"\""
	main.parinfo.debugstring1:
	.asciiz "# 667 \"/Users/rcalhoun/code/git/sw_usb_audio/sc_usb_audio/module_usb_audio/main.xc\""
	.cc_top main.parinfo.cc, main.parinfo
	.globl main.parinfo
	.type main.parinfo, @object
	main.parinfo:
	.int 0x00000004
	.long 0
	.long main.parinfo.debugstring0
	.long main.parinfo.debugstring1
	.int 0x00000002
	.int 0x00000000
	.int $N __main__main_tile_1
	.long tile + 4
	.int 0x00000001
	.int 0x00000001
	.int $N __main__main_tile_0
	.long tile + 0
	.int 0x00000001
	.int 0x00000001
	.cc_bottom main.parinfo.cc
.locl __xcc1_internal_1.info, "bo:p:32"
__xcc1_internal_1.info:
	.int 0x00010f00
	.long tile + 4
.sameresource __xcc1_internal_1, p_i2s_dac, 0
.globl p_lrclk.info, "bo:p:32"
p_lrclk.info:
	.int 0x00010d00
	.long tile + 4
.globl p_bclk.info, "bo:p:32"
p_bclk.info:
	.int 0x00010c00
	.long tile + 4
.globl p_mclk_in.info, "p"
p_mclk_in.info:
	.int 0x00010e00
	.long tile + 4
.globl p_for_mclk_count.info, "i:p"
p_for_mclk_count.info:
	.int 0x00100100
	.long tile + 4
.globl clk_audio_mclk.info, "ck"
clk_audio_mclk.info:
	.int 0x00000206
	.long tile + 4
.globl clk_audio_bclk.info, "ck"
clk_audio_bclk.info:
	.int 0x00000306
	.long tile + 4
	.popsection
	.weak _i.i_dfu.HandleDfuRequest.maxchanends.group
	.weak _i.i_dfu.HandleDfuRequest.maxcores.group
	.weak _i.i_dfu.HandleDfuRequest.maxtimers.group
	.weak _i.i_dfu.HandleDfuRequest.nstackwords.group
	.globl _i.i_dfu.HandleDfuRequest.nstackwords.group
	.weak _i.i_dfu.HandleDfuRequest.fns.group
	.globl _i.i_dfu.HandleDfuRequest.fns.group
	.weak _i.i_dfu.finish.maxchanends.group
	.weak _i.i_dfu.finish.maxcores.group
	.weak _i.i_dfu.finish.maxtimers.group
	.weak _i.i_dfu.finish.nstackwords.group
	.globl _i.i_dfu.finish.nstackwords.group
	.weak _i.i_dfu.finish.fns.group
	.globl _i.i_dfu.finish.fns.group
	.weak _i.i_dfu.__interface_init.maxchanends.group
	.weak _i.i_dfu.__interface_init.maxcores.group
	.weak _i.i_dfu.__interface_init.maxtimers.group
	.weak _i.i_dfu.__interface_init.nstackwords.group
	.globl _i.i_dfu.__interface_init.nstackwords.group
	.weak _i.i_dfu.__interface_init.fns.group
	.globl _i.i_dfu.__interface_init.fns.group
	.set usage.anon.0,0
	.set usage.anon.1,0
	.set usage.anon.2,0
	.set usage.anon.3,0
	.set usage.anon.4,0
	.set usage.anon.5,0
	.set usage.anon.6,0
	.set usage.anon.7,0
	.set usage.anon.8,0
	.set usage.anon.9,0
	.set usage.anon.10,0
	.globwrite usage.anon.8,p_for_mclk_count,"/Users/rcalhoun/code/git/sw_usb_audio/sc_usb_audio/module_usb_audio/main.xc:337:43: note: object used here\n            asm(\"setclk res[%0], %1\"::\"r\"(p_for_mclk_count), \"r\"(x));\n                                          ^~~~~~~~~~~~~~~~"
	.globwrite usage.anon.7,epTypeTableIn,"/Users/rcalhoun/code/git/sw_usb_audio/sc_usb_audio/module_usb_audio/main.xc:319:36: note: object used here\n            c_sof, epTypeTableOut, epTypeTableIn, p_usb_rst,\n                                   ^~~~~~~~~~~~~"
	.globwrite usage.anon.7,epTypeTableOut,"/Users/rcalhoun/code/git/sw_usb_audio/sc_usb_audio/module_usb_audio/main.xc:319:20: note: object used here\n            c_sof, epTypeTableOut, epTypeTableIn, p_usb_rst,\n                   ^~~~~~~~~~~~~~"
	.call main,usb_audio_io
	.call main,usb_audio_core
	.call main,pcm_pdm_mic
	.call main,genclock
	.call usb_audio_io,thread_speed
	.call usb_audio_io,audio
	.call usb_audio_core,usage.anon.9
	.call usb_audio_core,usage.anon.8
	.call usb_audio_core,usage.anon.7
	.call usb_audio_core,usage.anon.10
	.call usage.anon.10,thread_speed
	.call usage.anon.10,decouple
	.call usage.anon.9,thread_speed
	.call usage.anon.9,Endpoint0
	.call usage.anon.8,thread_speed
	.call usage.anon.8,buffer
	.call usage.anon.7,XUD_Manager
	.call xscope_user_init,xscope_register
	.call xscope_user_init,xscope_config_io
	.call usage.anon.6,usage.anon.5
	.call usage.anon.2,delay_ticks_longlong
	.call usage.anon.1,delay_ticks_longlong
	.call usage.anon.0,delay_ticks_longlong
	.par usb_audio_core,usb_audio_io,"/Users/rcalhoun/code/git/sw_usb_audio/sc_usb_audio/module_usb_audio/main.xc:550:5: error: use of `%s\' violates parallel usage rules\n    par\n    ^~~"
	.par usb_audio_core,pcm_pdm_mic,"/Users/rcalhoun/code/git/sw_usb_audio/sc_usb_audio/module_usb_audio/main.xc:550:5: error: use of `%s\' violates parallel usage rules\n    par\n    ^~~"
	.par usb_audio_core,genclock,"/Users/rcalhoun/code/git/sw_usb_audio/sc_usb_audio/module_usb_audio/main.xc:550:5: error: use of `%s\' violates parallel usage rules\n    par\n    ^~~"
	.par usb_audio_io,pcm_pdm_mic,"/Users/rcalhoun/code/git/sw_usb_audio/sc_usb_audio/module_usb_audio/main.xc:550:5: error: use of `%s\' violates parallel usage rules\n    par\n    ^~~"
	.par usb_audio_io,genclock,"/Users/rcalhoun/code/git/sw_usb_audio/sc_usb_audio/module_usb_audio/main.xc:550:5: error: use of `%s\' violates parallel usage rules\n    par\n    ^~~"
	.par pcm_pdm_mic,genclock,"/Users/rcalhoun/code/git/sw_usb_audio/sc_usb_audio/module_usb_audio/main.xc:550:5: error: use of `%s\' violates parallel usage rules\n    par\n    ^~~"
	.par usage.anon.7,usage.anon.8,"/Users/rcalhoun/code/git/sw_usb_audio/sc_usb_audio/module_usb_audio/main.xc:310:5: error: use of `%s\' violates parallel usage rules\n    par\n    ^~~"
	.par usage.anon.7,usage.anon.9,"/Users/rcalhoun/code/git/sw_usb_audio/sc_usb_audio/module_usb_audio/main.xc:310:5: error: use of `%s\' violates parallel usage rules\n    par\n    ^~~"
	.par usage.anon.7,usage.anon.10,"/Users/rcalhoun/code/git/sw_usb_audio/sc_usb_audio/module_usb_audio/main.xc:310:5: error: use of `%s\' violates parallel usage rules\n    par\n    ^~~"
	.par usage.anon.8,usage.anon.9,"/Users/rcalhoun/code/git/sw_usb_audio/sc_usb_audio/module_usb_audio/main.xc:310:5: error: use of `%s\' violates parallel usage rules\n    par\n    ^~~"
	.par usage.anon.8,usage.anon.10,"/Users/rcalhoun/code/git/sw_usb_audio/sc_usb_audio/module_usb_audio/main.xc:310:5: error: use of `%s\' violates parallel usage rules\n    par\n    ^~~"
	.par usage.anon.9,usage.anon.10,"/Users/rcalhoun/code/git/sw_usb_audio/sc_usb_audio/module_usb_audio/main.xc:310:5: error: use of `%s\' violates parallel usage rules\n    par\n    ^~~"
	.set usage.anon.3.locnoside, 0
	.set usage.anon.6.locnoside, 0
	.set usb_audio_core.locnoside, 0
	.set usb_audio_io.locnoside, 0
	.set main.locnoside, 0
	.set usb_audio_core.locnochandec, 0
	.set main.locnochandec, 0
	.set usb_audio_core.locnoglobalaccess, 0
	.globpassesref buffer, p_for_mclk_count,"/Users/rcalhoun/code/git/sw_usb_audio/sc_usb_audio/module_usb_audio/main.xc:340:13: error: call to `buffer\' in `usb_audio_core\' makes alias of global \'p_for_mclk_count\'\n            buffer(c_xud_out[ENDPOINT_NUMBER_OUT_AUDIO],    /* Audio Out*/\n            ^~~~~~~~~~~~~~~~~~~~~~~~~~~~~~~~~~~~~~~~~~~~~~~~~~~~~~~~~~~~~~"
	.globpassesref XUD_Manager, epTypeTableIn,"/Users/rcalhoun/code/git/sw_usb_audio/sc_usb_audio/module_usb_audio/main.xc:318:9: error: call to `XUD_Manager\' in `usb_audio_core\' makes alias of global \'epTypeTableIn\'\n        XUD_Manager(c_xud_out, ENDPOINT_COUNT_OUT, c_xud_in, ENDPOINT_COUNT_IN,\n        ^~~~~~~~~~~~~~~~~~~~~~~~~~~~~~~~~~~~~~~~~~~~~~~~~~~~~~~~~~~~~~~~~~~~~~~"
	.globpassesref XUD_Manager, epTypeTableOut,"/Users/rcalhoun/code/git/sw_usb_audio/sc_usb_audio/module_usb_audio/main.xc:318:9: error: call to `XUD_Manager\' in `usb_audio_core\' makes alias of global \'epTypeTableOut\'\n        XUD_Manager(c_xud_out, ENDPOINT_COUNT_OUT, c_xud_in, ENDPOINT_COUNT_IN,\n        ^~~~~~~~~~~~~~~~~~~~~~~~~~~~~~~~~~~~~~~~~~~~~~~~~~~~~~~~~~~~~~~~~~~~~~~"
	.overlay_subgraph_conflict usb_audio_core.task.XUD_Manager.0, usb_audio_core.task.buffer.1, usb_audio_core.task.Endpoint0.2, usb_audio_core.task.decouple.3
	.overlay_subgraph_conflict _Susb_audio_core_0.task.XUD_Manager.0, _Susb_audio_core_0.task.buffer.1, _Susb_audio_core_0.task.Endpoint0.2, _Susb_audio_core_0.task.decouple.3
	.overlay_subgraph_conflict __main__main_tile_1_task_usb_audio_core_1, __main__main_tile_1_task_usb_audio_io_2, __main__main_tile_1_task_genclock_4

                                        # End of file scope inline assembly
	.text
	.weak	_i.i_dfu._chan.finish
	.align	4
	.type	_i.i_dfu._chan.finish,@function
	.cc_top _i.i_dfu._chan.finish.function,_i.i_dfu._chan.finish
_i.i_dfu._chan.finish:                  # @_i.i_dfu._chan.finish
	.cfi_startproc
	.issue_mode dual
# BB#0:                                 # %allocas
	#DEBUG_VALUE: _i.i_dfu._chan.finish:dest <- R0
	{
		getr r1, 2
		dualentsp 0
	}
	{
		setd res[r1], r0
		add r0, r1, 1
	}
	{
		out res[r1], r0
		nop
	}
	{
		outct res[r1], 2
		nop
	}
	{
		in r0, res[r1]
		nop
	}
	{
		chkct res[r1], 1
		nop
	}
	{
		freer res[r1]
		retsp 0
	}
	# RETURN_REG_HOLDER
	.cc_bottom _i.i_dfu._chan.finish.function
	.set	_i.i_dfu._chan.finish.nstackwords,0
	.globl	_i.i_dfu._chan.finish.nstackwords
	.weak	_i.i_dfu._chan.finish.nstackwords
	.set	_i.i_dfu._chan.finish.maxcores,1
	.globl	_i.i_dfu._chan.finish.maxcores
	.weak	_i.i_dfu._chan.finish.maxcores
	.set	_i.i_dfu._chan.finish.maxtimers,0
	.globl	_i.i_dfu._chan.finish.maxtimers
	.weak	_i.i_dfu._chan.finish.maxtimers
	.set	_i.i_dfu._chan.finish.maxchanends,1
	.globl	_i.i_dfu._chan.finish.maxchanends
	.weak	_i.i_dfu._chan.finish.maxchanends
.Ltmp0:
	.size	_i.i_dfu._chan.finish, .Ltmp0-_i.i_dfu._chan.finish
	.cfi_endproc

	.weak	_i.i_dfu._chan.HandleDfuRequest
	.align	4
	.type	_i.i_dfu._chan.HandleDfuRequest,@function
	.cc_top _i.i_dfu._chan.HandleDfuRequest.function,_i.i_dfu._chan.HandleDfuRequest
_i.i_dfu._chan.HandleDfuRequest:        # @_i.i_dfu._chan.HandleDfuRequest
	.cfi_startproc
	.issue_mode dual
# BB#0:                                 # %allocas
	{
		nop
		dualentsp 6
	}
.Ltmp1:
	.cfi_def_cfa_offset 24
.Ltmp2:
	.cfi_offset 15, 0
	std r5, r4, sp[2]               # 4-byte Folded Spill
.Ltmp3:
	.cfi_offset 4, -8
.Ltmp4:
	.cfi_offset 5, -4
	#DEBUG_VALUE: _i.i_dfu._chan.HandleDfuRequest:dest <- R0
	#DEBUG_VALUE: _i.i_dfu._chan.HandleDfuRequest:param1 <- R1
	#DEBUG_VALUE: _i.i_dfu._chan.HandleDfuRequest:param2 <- R2
	#DEBUG_VALUE: _i.i_dfu._chan.HandleDfuRequest:param3 <- R3
	#DEBUG_VALUE: _i.i_dfu._chan.HandleDfuRequest:param4 <- [SP+28]
	{
		nop
		ldw r11, sp[7]
	}
	{
		getr r4, 2
		ldw r5, sp[8]
	}
	{
		setd res[r4], r0
		nop
	}
	{
		out res[r4], r4
		nop
	}
	{
		outct res[r4], 2
		nop
	}
	{
		chkct res[r4], 1
		stw r1, sp[2]
	}
	{
		out res[r4], r5
		stw r2, sp[3]
	}
	{
		out res[r4], r3
		nop
	}
	{
		out res[r4], r11
		nop
	}
	{
		outct res[r4], 2
		ldaw r1, sp[2]
	}
	{
		mov r0, r4
		nop
	}
	bl __interface_client_call
	{
		in r0, res[r4]
		nop
	}
	{
		in r1, res[r4]
		nop
	}
	{
		in r2, res[r4]
		nop
	}
	{
		in r3, res[r4]
		nop
	}
	{
		in r11, res[r4]
		nop
	}
	{
		chkct res[r4], 1
		nop
	}
	{
		freer res[r4]
		stw r11, sp[9]
	}
	ldd r5, r4, sp[2]               # 4-byte Folded Reload
	{
		nop
		retsp 6
	}
	# RETURN_REG_HOLDER
	.cc_bottom _i.i_dfu._chan.HandleDfuRequest.function
	.set	_i.i_dfu._chan.HandleDfuRequest.nstackwords,(__interface_client_call.nstackwords + 6)
	.globl	_i.i_dfu._chan.HandleDfuRequest.nstackwords
	.weak	_i.i_dfu._chan.HandleDfuRequest.nstackwords
	.set	_i.i_dfu._chan.HandleDfuRequest.maxcores,__interface_client_call.maxcores $M 1
	.globl	_i.i_dfu._chan.HandleDfuRequest.maxcores
	.weak	_i.i_dfu._chan.HandleDfuRequest.maxcores
	.set	_i.i_dfu._chan.HandleDfuRequest.maxtimers,__interface_client_call.maxtimers $M 0
	.globl	_i.i_dfu._chan.HandleDfuRequest.maxtimers
	.weak	_i.i_dfu._chan.HandleDfuRequest.maxtimers
	.set	_i.i_dfu._chan.HandleDfuRequest.maxchanends,(1 + __interface_client_call.maxchanends) $M 1
	.globl	_i.i_dfu._chan.HandleDfuRequest.maxchanends
	.weak	_i.i_dfu._chan.HandleDfuRequest.maxchanends
.Ltmp5:
	.size	_i.i_dfu._chan.HandleDfuRequest, .Ltmp5-_i.i_dfu._chan.HandleDfuRequest
	.cfi_endproc

	.weak	_i.i_dfu._chan_yield.finish
	.align	4
	.type	_i.i_dfu._chan_yield.finish,@function
	.cc_top _i.i_dfu._chan_yield.finish.function,_i.i_dfu._chan_yield.finish
_i.i_dfu._chan_yield.finish:            # @_i.i_dfu._chan_yield.finish
	.cfi_startproc
	.issue_mode dual
# BB#0:                                 # %allocas
	{
		nop
		dualentsp 4
	}
.Ltmp6:
	.cfi_def_cfa_offset 16
.Ltmp7:
	.cfi_offset 15, 0
	{
		nop
		stw r4, sp[2]
	}
.Ltmp8:
	.cfi_offset 4, -8
	#DEBUG_VALUE: _i.i_dfu._chan_yield.finish:s <- R0
	{
		getr r4, 2
		ldw r1, r0[0]
	}
	{
		setd res[r4], r1
		add r1, r4, 1
	}
	{
		out res[r4], r1
		nop
	}
	{
		outct res[r4], 2
		ldw r2, r0[1]
	}
	{
		ldc r1, 0
		mov r0, r4
	}
	bl __interface_client_call_y
	{
		chkct res[r4], 1
		nop
	}
	{
		freer res[r4]
		ldw r4, sp[2]
	}
	{
		nop
		retsp 4
	}
	# RETURN_REG_HOLDER
	.cc_bottom _i.i_dfu._chan_yield.finish.function
	.set	_i.i_dfu._chan_yield.finish.nstackwords,((_i.i_dfu._client_call_y.max.nstackwords $M ($D __interface_client_call_y.nstackwords ? __interface_client_call_y.nstackwords $: _i.i_dfu._client_call_y.max.nstackwords)) + 4)
	.globl	_i.i_dfu._chan_yield.finish.nstackwords
	.weak	_i.i_dfu._chan_yield.finish.nstackwords
	.set	_i.i_dfu._chan_yield.finish.maxcores,($D __interface_client_call_y.maxcores ? __interface_client_call_y.maxcores $: _i.i_dfu._client_call_y.max.maxcores) $M 1
	.globl	_i.i_dfu._chan_yield.finish.maxcores
	.weak	_i.i_dfu._chan_yield.finish.maxcores
	.set	_i.i_dfu._chan_yield.finish.maxtimers,($D __interface_client_call_y.maxtimers ? __interface_client_call_y.maxtimers $: _i.i_dfu._client_call_y.max.maxtimers) $M 0
	.globl	_i.i_dfu._chan_yield.finish.maxtimers
	.weak	_i.i_dfu._chan_yield.finish.maxtimers
	.set	_i.i_dfu._chan_yield.finish.maxchanends,(1 + ($D __interface_client_call_y.maxchanends ? __interface_client_call_y.maxchanends $: _i.i_dfu._client_call_y.max.maxchanends)) $M 1
	.globl	_i.i_dfu._chan_yield.finish.maxchanends
	.weak	_i.i_dfu._chan_yield.finish.maxchanends
.Ltmp9:
	.size	_i.i_dfu._chan_yield.finish, .Ltmp9-_i.i_dfu._chan_yield.finish
	.cfi_endproc

	.weak	_i.i_dfu._chan_yield.HandleDfuRequest
	.align	4
	.type	_i.i_dfu._chan_yield.HandleDfuRequest,@function
	.cc_top _i.i_dfu._chan_yield.HandleDfuRequest.function,_i.i_dfu._chan_yield.HandleDfuRequest
_i.i_dfu._chan_yield.HandleDfuRequest:  # @_i.i_dfu._chan_yield.HandleDfuRequest
	.cfi_startproc
	.issue_mode dual
# BB#0:                                 # %allocas
	{
		nop
		dualentsp 8
	}
.Ltmp10:
	.cfi_def_cfa_offset 32
.Ltmp11:
	.cfi_offset 15, 0
	std r5, r4, sp[2]               # 4-byte Folded Spill
.Ltmp12:
	.cfi_offset 4, -16
.Ltmp13:
	.cfi_offset 5, -12
	{
		nop
		stw r6, sp[6]
	}
.Ltmp14:
	.cfi_offset 6, -8
	#DEBUG_VALUE: _i.i_dfu._chan_yield.HandleDfuRequest:s <- R0
	#DEBUG_VALUE: _i.i_dfu._chan_yield.HandleDfuRequest:param1 <- R1
	#DEBUG_VALUE: _i.i_dfu._chan_yield.HandleDfuRequest:param2 <- R2
	#DEBUG_VALUE: _i.i_dfu._chan_yield.HandleDfuRequest:param3 <- R3
	#DEBUG_VALUE: _i.i_dfu._chan_yield.HandleDfuRequest:param4 <- [SP+36]
	{
		nop
		ldw r11, sp[9]
	}
	{
		nop
		ldw r5, sp[10]
	}
	{
		getr r4, 2
		ldw r6, r0[0]
	}
	{
		setd res[r4], r6
		nop
	}
	{
		out res[r4], r4
		nop
	}
	{
		outct res[r4], 2
		nop
	}
	{
		chkct res[r4], 1
		stw r1, sp[2]
	}
	{
		out res[r4], r5
		stw r2, sp[3]
	}
	{
		out res[r4], r3
		nop
	}
	{
		out res[r4], r11
		nop
	}
	{
		outct res[r4], 2
		ldw r2, r0[1]
	}
	{
		ldaw r1, sp[2]
		mov r0, r4
	}
	bl __interface_client_call_y
	{
		in r0, res[r4]
		nop
	}
	{
		in r1, res[r4]
		nop
	}
	{
		in r2, res[r4]
		nop
	}
	{
		in r3, res[r4]
		nop
	}
	{
		in r11, res[r4]
		nop
	}
	{
		chkct res[r4], 1
		nop
	}
	{
		freer res[r4]
		stw r11, sp[11]
	}
	{
		nop
		ldw r6, sp[6]
	}
	ldd r5, r4, sp[2]               # 4-byte Folded Reload
	{
		nop
		retsp 8
	}
	# RETURN_REG_HOLDER
	.cc_bottom _i.i_dfu._chan_yield.HandleDfuRequest.function
	.set	_i.i_dfu._chan_yield.HandleDfuRequest.nstackwords,((_i.i_dfu._client_call_y.max.nstackwords $M ($D __interface_client_call_y.nstackwords ? __interface_client_call_y.nstackwords $: _i.i_dfu._client_call_y.max.nstackwords)) + 8)
	.globl	_i.i_dfu._chan_yield.HandleDfuRequest.nstackwords
	.weak	_i.i_dfu._chan_yield.HandleDfuRequest.nstackwords
	.set	_i.i_dfu._chan_yield.HandleDfuRequest.maxcores,($D __interface_client_call_y.maxcores ? __interface_client_call_y.maxcores $: _i.i_dfu._client_call_y.max.maxcores) $M 1
	.globl	_i.i_dfu._chan_yield.HandleDfuRequest.maxcores
	.weak	_i.i_dfu._chan_yield.HandleDfuRequest.maxcores
	.set	_i.i_dfu._chan_yield.HandleDfuRequest.maxtimers,($D __interface_client_call_y.maxtimers ? __interface_client_call_y.maxtimers $: _i.i_dfu._client_call_y.max.maxtimers) $M 0
	.globl	_i.i_dfu._chan_yield.HandleDfuRequest.maxtimers
	.weak	_i.i_dfu._chan_yield.HandleDfuRequest.maxtimers
	.set	_i.i_dfu._chan_yield.HandleDfuRequest.maxchanends,(1 + ($D __interface_client_call_y.maxchanends ? __interface_client_call_y.maxchanends $: _i.i_dfu._client_call_y.max.maxchanends)) $M 1
	.globl	_i.i_dfu._chan_yield.HandleDfuRequest.maxchanends
	.weak	_i.i_dfu._chan_yield.HandleDfuRequest.maxchanends
.Ltmp15:
	.size	_i.i_dfu._chan_yield.HandleDfuRequest, .Ltmp15-_i.i_dfu._chan_yield.HandleDfuRequest
	.cfi_endproc

	.globl	thread_speed
	.align	4
	.type	thread_speed,@function
	.cc_top thread_speed.function,thread_speed
thread_speed:                           # @thread_speed
.Lfunc_begin4:
	.loc	1 254 0                 # /Users/rcalhoun/code/git/sw_usb_audio/sc_usb_audio/module_usb_audio/main.xc:254:0
	.cfi_startproc
	.issue_mode dual
# BB#0:                                 # %allocas
.Lxtalabel0:
	{
		nop
		dualentsp 0
	}
	.loc	1 259 0 prologue_end    # /Users/rcalhoun/code/git/sw_usb_audio/sc_usb_audio/module_usb_audio/main.xc:259:0
.Ltmp16:
	clrsr 128
	{
		nop
		retsp 0
	}
	# RETURN_REG_HOLDER
.Ltmp17:
	.cc_bottom thread_speed.function
	.set	thread_speed.nstackwords,0
	.globl	thread_speed.nstackwords
	.set	thread_speed.maxcores,1
	.globl	thread_speed.maxcores
	.set	thread_speed.maxtimers,0
	.globl	thread_speed.maxtimers
	.set	thread_speed.maxchanends,0
	.globl	thread_speed.maxchanends
.Ltmp18:
	.size	thread_speed, .Ltmp18-thread_speed
.Lfunc_end4:
	.cfi_endproc

	.globl	xscope_user_init
	.align	4
	.type	xscope_user_init,@function
	.cc_top xscope_user_init.function,xscope_user_init
xscope_user_init:                       # @xscope_user_init
.Lfunc_begin5:
	.loc	1 265 0                 # /Users/rcalhoun/code/git/sw_usb_audio/sc_usb_audio/module_usb_audio/main.xc:265:0
	.cfi_startproc
	.issue_mode dual
# BB#0:                                 # %allocas
.Lxtalabel1:
	{
		nop
		dualentsp 2
	}
.Ltmp19:
	.cfi_def_cfa_offset 8
.Ltmp20:
	.cfi_offset 15, 0
	.loc	1 266 0 prologue_end    # /Users/rcalhoun/code/git/sw_usb_audio/sc_usb_audio/module_usb_audio/main.xc:266:0
.Ltmp21:
	ldaw r11, cp[.str3]
	{
		nop
		stw r11, sp[1]
	}
	ldaw r11, cp[.str]
	{
		ldc r0, 0
		nop
	}
	{
		mov r1, r0
		mov r2, r11
	}
	{
		mov r3, r0
		nop
	}
.Lxta.call_labels0:
	bl xscope_register
	{
		mkmsk r0, 1
		nop
	}
	.loc	1 268 0                 # /Users/rcalhoun/code/git/sw_usb_audio/sc_usb_audio/module_usb_audio/main.xc:268:0
.Lxta.call_labels1:
	bl xscope_config_io
	{
		nop
		retsp 2
	}
	# RETURN_REG_HOLDER
.Ltmp22:
	.cc_bottom xscope_user_init.function
	.set	xscope_user_init.nstackwords,((xscope_register.nstackwords $M xscope_config_io.nstackwords) + 2)
	.globl	xscope_user_init.nstackwords
	.set	xscope_user_init.maxcores,xscope_config_io.maxcores $M xscope_register.maxcores $M 1
	.globl	xscope_user_init.maxcores
	.set	xscope_user_init.maxtimers,xscope_config_io.maxtimers $M xscope_register.maxtimers $M 0
	.globl	xscope_user_init.maxtimers
	.set	xscope_user_init.maxchanends,xscope_config_io.maxchanends $M xscope_register.maxchanends $M 0
	.globl	xscope_user_init.maxchanends
.Ltmp23:
	.size	xscope_user_init, .Ltmp23-xscope_user_init
.Lfunc_end5:
	.cfi_endproc

	.globl	usb_audio_core
	.align	4
	.type	usb_audio_core,@function
	.cc_top usb_audio_core.function,usb_audio_core
usb_audio_core:                         # @usb_audio_core
.Lfunc_begin6:
	.loc	1 290 0                 # /Users/rcalhoun/code/git/sw_usb_audio/sc_usb_audio/module_usb_audio/main.xc:290:0
	.cfi_startproc
	.issue_mode dual
# BB#0:                                 # %allocas
.Lxtalabel2:
	{
		nop
		dualentsp 18
	}
.Ltmp24:
	.cfi_def_cfa_offset 72
.Ltmp25:
	.cfi_offset 15, 0
	#DEBUG_VALUE: usb_audio_core:c_clk_int <- R1
	{
		nop
		stw r0, sp[2]
	}
	{
		nop
		stw r2, sp[3]
	}
	{
		getr r0, 2
		stw r3, sp[4]
	}
	.loc	1 291 0 prologue_end    # /Users/rcalhoun/code/git/sw_usb_audio/sc_usb_audio/module_usb_audio/main.xc:291:0
.Ltmp26:
	{
		getr r1, 2
		nop
	}
.Ltmp27:
	.loc	1 291 0                 # /Users/rcalhoun/code/git/sw_usb_audio/sc_usb_audio/module_usb_audio/main.xc:291:0
	{
		setd res[r0], r1
		nop
	}
	.loc	1 291 0                 # /Users/rcalhoun/code/git/sw_usb_audio/sc_usb_audio/module_usb_audio/main.xc:291:0
	{
		setd res[r1], r0
		stw r0, sp[5]
	}
	.loc	1 291 0                 # /Users/rcalhoun/code/git/sw_usb_audio/sc_usb_audio/module_usb_audio/main.xc:291:0
	{
		getr r0, 2
		stw r1, sp[6]
	}
	.loc	1 292 0                 # /Users/rcalhoun/code/git/sw_usb_audio/sc_usb_audio/module_usb_audio/main.xc:292:0
.Ltmp28:
	{
		getr r1, 2
		nop
	}
	.loc	1 292 0                 # /Users/rcalhoun/code/git/sw_usb_audio/sc_usb_audio/module_usb_audio/main.xc:292:0
	{
		setd res[r0], r1
		nop
	}
	.loc	1 292 0                 # /Users/rcalhoun/code/git/sw_usb_audio/sc_usb_audio/module_usb_audio/main.xc:292:0
	{
		setd res[r1], r0
		stw r0, sp[8]
	}
	.loc	1 292 0                 # /Users/rcalhoun/code/git/sw_usb_audio/sc_usb_audio/module_usb_audio/main.xc:292:0
	{
		getr r0, 2
		stw r1, sp[10]
	}
	.loc	1 292 0                 # /Users/rcalhoun/code/git/sw_usb_audio/sc_usb_audio/module_usb_audio/main.xc:292:0
	{
		getr r1, 2
		nop
	}
	.loc	1 292 0                 # /Users/rcalhoun/code/git/sw_usb_audio/sc_usb_audio/module_usb_audio/main.xc:292:0
	{
		setd res[r0], r1
		nop
	}
	.loc	1 292 0                 # /Users/rcalhoun/code/git/sw_usb_audio/sc_usb_audio/module_usb_audio/main.xc:292:0
	{
		setd res[r1], r0
		stw r0, sp[7]
	}
	.loc	1 292 0                 # /Users/rcalhoun/code/git/sw_usb_audio/sc_usb_audio/module_usb_audio/main.xc:292:0
	{
		getr r0, 2
		stw r1, sp[9]
	}
	.loc	1 293 0                 # /Users/rcalhoun/code/git/sw_usb_audio/sc_usb_audio/module_usb_audio/main.xc:293:0
.Ltmp29:
	{
		getr r1, 2
		nop
	}
	.loc	1 293 0                 # /Users/rcalhoun/code/git/sw_usb_audio/sc_usb_audio/module_usb_audio/main.xc:293:0
	{
		setd res[r0], r1
		nop
	}
	.loc	1 293 0                 # /Users/rcalhoun/code/git/sw_usb_audio/sc_usb_audio/module_usb_audio/main.xc:293:0
	{
		setd res[r1], r0
		stw r0, sp[12]
	}
	.loc	1 293 0                 # /Users/rcalhoun/code/git/sw_usb_audio/sc_usb_audio/module_usb_audio/main.xc:293:0
	{
		getr r0, 2
		stw r1, sp[14]
	}
	.loc	1 293 0                 # /Users/rcalhoun/code/git/sw_usb_audio/sc_usb_audio/module_usb_audio/main.xc:293:0
	{
		getr r1, 2
		nop
	}
	.loc	1 293 0                 # /Users/rcalhoun/code/git/sw_usb_audio/sc_usb_audio/module_usb_audio/main.xc:293:0
	{
		setd res[r0], r1
		nop
	}
	.loc	1 293 0                 # /Users/rcalhoun/code/git/sw_usb_audio/sc_usb_audio/module_usb_audio/main.xc:293:0
	{
		setd res[r1], r0
		stw r0, sp[11]
	}
	.loc	1 293 0                 # /Users/rcalhoun/code/git/sw_usb_audio/sc_usb_audio/module_usb_audio/main.xc:293:0
	{
		getr r0, 2
		stw r1, sp[13]
	}
	.loc	1 294 0                 # /Users/rcalhoun/code/git/sw_usb_audio/sc_usb_audio/module_usb_audio/main.xc:294:0
.Ltmp30:
	{
		getr r1, 2
		nop
	}
	.loc	1 294 0                 # /Users/rcalhoun/code/git/sw_usb_audio/sc_usb_audio/module_usb_audio/main.xc:294:0
	{
		setd res[r0], r1
		nop
	}
	.loc	1 294 0                 # /Users/rcalhoun/code/git/sw_usb_audio/sc_usb_audio/module_usb_audio/main.xc:294:0
	{
		setd res[r1], r0
		stw r0, sp[15]
	}
	{
		nop
		stw r1, sp[16]
	}
	.loc	1 294 0                 # /Users/rcalhoun/code/git/sw_usb_audio/sc_usb_audio/module_usb_audio/main.xc:294:0
	ldaw r1, dp[par.desc.1]
	{
		ldaw r0, sp[2]
		nop
	}
	#DEBUG_VALUE: usb_audio_core:c_mix_out <- [R0+0]
	bl __start_other_cores
.Ltmp31:
	{
		nop
		ldw r0, sp[15]
	}
	{
		freer res[r0]
		ldw r1, sp[16]
	}
	{
		freer res[r1]
		ldw r0, sp[12]
	}
	{
		freer res[r0]
		ldw r1, sp[14]
	}
	{
		freer res[r1]
		ldw r0, sp[11]
	}
	{
		freer res[r0]
		ldw r1, sp[13]
	}
	{
		freer res[r1]
		ldw r0, sp[8]
	}
	{
		freer res[r0]
		ldw r1, sp[10]
	}
	{
		freer res[r1]
		ldw r0, sp[7]
	}
	{
		freer res[r0]
		ldw r1, sp[9]
	}
	{
		freer res[r1]
		ldw r0, sp[5]
	}
	{
		freer res[r0]
		ldw r1, sp[6]
	}
	{
		freer res[r1]
		retsp 18
	}
	# RETURN_REG_HOLDER
.Ltmp32:
	.cc_bottom usb_audio_core.function
	.set	usb_audio_core.nstackwords,((par.extra_stackwords + usb_audio_core.task.XUD_Manager.0.nstackwords + ((1 + usb_audio_core.task.buffer.1.nstackwords) $A 2) + ((1 + usb_audio_core.task.Endpoint0.2.nstackwords) $A 2) + ((1 + usb_audio_core.task.decouple.3.nstackwords) $A 2)) + 18)
	.globl	usb_audio_core.nstackwords
	.set	usb_audio_core.maxcores,(0 + usb_audio_core.task.XUD_Manager.0.maxcores + usb_audio_core.task.buffer.1.maxcores + usb_audio_core.task.Endpoint0.2.maxcores + usb_audio_core.task.decouple.3.maxcores) $M 1
	.globl	usb_audio_core.maxcores
	.set	usb_audio_core.maxtimers,(3 + usb_audio_core.task.XUD_Manager.0.maxtimers + usb_audio_core.task.buffer.1.maxtimers + usb_audio_core.task.Endpoint0.2.maxtimers + usb_audio_core.task.decouple.3.maxtimers) $M 0
	.globl	usb_audio_core.maxtimers
	.set	usb_audio_core.maxchanends,(12 + (0 + usb_audio_core.task.XUD_Manager.0.maxchanends + usb_audio_core.task.buffer.1.maxchanends + usb_audio_core.task.Endpoint0.2.maxchanends + usb_audio_core.task.decouple.3.maxchanends)) $M 12
	.globl	usb_audio_core.maxchanends
.Ltmp33:
	.size	usb_audio_core, .Ltmp33-usb_audio_core
.Lfunc_end6:
	.cfi_endproc

	.align	4
	.type	usb_audio_core.task.XUD_Manager.0,@function
	.cc_top usb_audio_core.task.XUD_Manager.0.function,usb_audio_core.task.XUD_Manager.0
usb_audio_core.task.XUD_Manager.0:      # @usb_audio_core.task.XUD_Manager.0
.Lfunc_begin7:
	.loc	1 318 0                 # /Users/rcalhoun/code/git/sw_usb_audio/sc_usb_audio/module_usb_audio/main.xc:318:0
	.cfi_startproc
	.issue_mode dual
# BB#0:                                 # %allocas
	{
		nop
		dualentsp 16
	}
.Ltmp34:
	.cfi_def_cfa_offset 64
.Ltmp35:
	.cfi_offset 15, 0
	std r5, r4, sp[7]               # 4-byte Folded Spill
.Ltmp36:
	.cfi_offset 4, -8
.Ltmp37:
	.cfi_offset 5, -4
	#DEBUG_VALUE: usb_audio_core.task.XUD_Manager.0:frame <- R0
	.loc	1 318 0 prologue_end    # /Users/rcalhoun/code/git/sw_usb_audio/sc_usb_audio/module_usb_audio/main.xc:318:0
.Ltmp38:
	ldaw r3, r0[5]
	.loc	1 318 0                 # /Users/rcalhoun/code/git/sw_usb_audio/sc_usb_audio/module_usb_audio/main.xc:318:0
	ldaw r2, r0[9]
	.loc	1 318 0                 # /Users/rcalhoun/code/git/sw_usb_audio/sc_usb_audio/module_usb_audio/main.xc:318:0
	{
		ldc r1, 2
		ldw r0, r0[3]
	}
.Ltmp39:
	{
		ldc r11, 0
		nop
	}
	.loc	1 318 0                 # /Users/rcalhoun/code/git/sw_usb_audio/sc_usb_audio/module_usb_audio/main.xc:318:0
	std r1, r11, sp[4]
	ldaw r4, dp[epTypeTableIn]
	ldaw r5, dp[epTypeTableOut]
	std r4, r5, sp[1]
	{
		nop
		stw r1, sp[12]
	}
	std r1, r1, sp[5]
	{
		mkmsk r4, 1
		nop
	}
	std r4, r4, sp[3]
	std r11, r11, sp[2]
	{
		mov r0, r3
		stw r0, sp[1]
	}
	{
		mov r3, r1
		nop
	}
.Lxta.call_labels2:
	bl XUD_Manager
	ldd r5, r4, sp[7]               # 4-byte Folded Reload
	{
		nop
		retsp 16
	}
	# RETURN_REG_HOLDER
.Ltmp40:
	.cc_bottom usb_audio_core.task.XUD_Manager.0.function
	.set	usb_audio_core.task.XUD_Manager.0.nstackwords,(XUD_Manager.nstackwords + 16)
	.set	usb_audio_core.task.XUD_Manager.0.maxcores,XUD_Manager.maxcores $M 1
	.set	usb_audio_core.task.XUD_Manager.0.maxtimers,XUD_Manager.maxtimers $M 0
	.set	usb_audio_core.task.XUD_Manager.0.maxchanends,XUD_Manager.maxchanends $M 0
.Ltmp41:
	.size	usb_audio_core.task.XUD_Manager.0, .Ltmp41-usb_audio_core.task.XUD_Manager.0
.Lfunc_end7:
	.cfi_endproc

	.align	4
	.type	usb_audio_core.task.buffer.1,@function
	.cc_top usb_audio_core.task.buffer.1.function,usb_audio_core.task.buffer.1
usb_audio_core.task.buffer.1:           # @usb_audio_core.task.buffer.1
.Lfunc_begin8:
	.loc	1 324 0                 # /Users/rcalhoun/code/git/sw_usb_audio/sc_usb_audio/module_usb_audio/main.xc:324:0
	.cfi_startproc
	.issue_mode dual
# BB#0:                                 # %allocas
.Lxtalabel3:
	{
		nop
		dualentsp 4
	}
.Ltmp42:
	.cfi_def_cfa_offset 16
.Ltmp43:
	.cfi_offset 15, 0
	{
		nop
		stw r4, sp[2]
	}
.Ltmp44:
	.cfi_offset 4, -8
	#DEBUG_VALUE: usb_audio_core.task.buffer.1:frame <- R0
	.loc	1 259 0 prologue_end    # /Users/rcalhoun/code/git/sw_usb_audio/sc_usb_audio/module_usb_audio/main.xc:259:0
.Ltmp45:
	clrsr 128
	{
		ldc r1, 60
		nop
	}
.Ltmp46:
	.loc	1 336 0                 # /Users/rcalhoun/code/git/sw_usb_audio/sc_usb_audio/module_usb_audio/main.xc:336:0
	{
		add r1, r0, r1
		nop
	}
	.loc	1 336 0                 # /Users/rcalhoun/code/git/sw_usb_audio/sc_usb_audio/module_usb_audio/main.xc:336:0
	#APP
	ldw r2, dp[clk_audio_mclk]
	#NO_APP
	{
		nop
		stw r2, r1[0]
	}
	.loc	1 337 0                 # /Users/rcalhoun/code/git/sw_usb_audio/sc_usb_audio/module_usb_audio/main.xc:337:0
	ldw r4, dp[p_for_mclk_count]
	.loc	1 337 0                 # /Users/rcalhoun/code/git/sw_usb_audio/sc_usb_audio/module_usb_audio/main.xc:337:0
	#APP
	setclk res[r4], r2
	#NO_APP
	.loc	1 340 0                 # /Users/rcalhoun/code/git/sw_usb_audio/sc_usb_audio/module_usb_audio/main.xc:340:0
	{
		ldc r1, 48
		ldw r11, r0[8]
	}
	.loc	1 340 0                 # /Users/rcalhoun/code/git/sw_usb_audio/sc_usb_audio/module_usb_audio/main.xc:340:0
	{
		add r1, r0, r1
		nop
	}
	{
		nop
		ldw r1, r1[0]
	}
	.loc	1 340 0                 # /Users/rcalhoun/code/git/sw_usb_audio/sc_usb_audio/module_usb_audio/main.xc:340:0
	{
		ldc r3, 52
		ldw r2, r0[4]
	}
	.loc	1 340 0                 # /Users/rcalhoun/code/git/sw_usb_audio/sc_usb_audio/module_usb_audio/main.xc:340:0
	{
		add r0, r0, r3
		nop
	}
.Ltmp47:
	{
		nop
		ldw r3, r0[0]
	}
	.loc	1 340 0                 # /Users/rcalhoun/code/git/sw_usb_audio/sc_usb_audio/module_usb_audio/main.xc:340:0
	{
		mov r0, r11
		stw r4, sp[1]
	}
.Lxta.call_labels3:
	bl buffer
	{
		nop
		ldw r4, sp[2]
	}
	{
		nop
		retsp 4
	}
	# RETURN_REG_HOLDER
.Ltmp48:
	.cc_bottom usb_audio_core.task.buffer.1.function
	.set	usb_audio_core.task.buffer.1.nstackwords,(buffer.nstackwords + 4)
	.set	usb_audio_core.task.buffer.1.maxcores,buffer.maxcores $M 1
	.set	usb_audio_core.task.buffer.1.maxtimers,buffer.maxtimers $M 0
	.set	usb_audio_core.task.buffer.1.maxchanends,buffer.maxchanends $M 0
.Ltmp49:
	.size	usb_audio_core.task.buffer.1, .Ltmp49-usb_audio_core.task.buffer.1
.Lfunc_end8:
	.cfi_endproc

	.align	4
	.type	usb_audio_core.task.Endpoint0.2,@function
	.cc_top usb_audio_core.task.Endpoint0.2.function,usb_audio_core.task.Endpoint0.2
usb_audio_core.task.Endpoint0.2:        # @usb_audio_core.task.Endpoint0.2
.Lfunc_begin9:
	.loc	1 381 0                 # /Users/rcalhoun/code/git/sw_usb_audio/sc_usb_audio/module_usb_audio/main.xc:381:0
	.cfi_startproc
	.issue_mode dual
# BB#0:                                 # %allocas
.Lxtalabel4:
	{
		nop
		dualentsp 6
	}
.Ltmp50:
	.cfi_def_cfa_offset 24
.Ltmp51:
	.cfi_offset 15, 0
	{
		nop
		stw r4, sp[4]
	}
.Ltmp52:
	.cfi_offset 4, -8
	#DEBUG_VALUE: usb_audio_core.task.Endpoint0.2:frame <- R0
	.loc	1 259 0 prologue_end    # /Users/rcalhoun/code/git/sw_usb_audio/sc_usb_audio/module_usb_audio/main.xc:259:0
.Ltmp53:
	clrsr 128
	{
		nop
		ldw r11, r0[2]
	}
.Ltrap_info0:
	{
		ecallf r11
		nop
	}
	#DEBUG_VALUE: usb_audio_core.task.Endpoint0.2:frame <- R0
.Ltmp54:
	.loc	1 383 0                 # /Users/rcalhoun/code/git/sw_usb_audio/sc_usb_audio/module_usb_audio/main.xc:383:0
	{
		ldc r1, 56
		ldw r4, r0[1]
	}
	.loc	1 383 0                 # /Users/rcalhoun/code/git/sw_usb_audio/sc_usb_audio/module_usb_audio/main.xc:383:0
	{
		add r1, r0, r1
		nop
	}
	{
		nop
		ldw r2, r1[0]
	}
	{
		nop
		ldw r1, r0[11]
	}
	.loc	1 383 0                 # /Users/rcalhoun/code/git/sw_usb_audio/sc_usb_audio/module_usb_audio/main.xc:383:0
	{
		ldc r3, 0
		ldw r0, r0[7]
	}
.Ltmp55:
	.loc	1 383 0                 # /Users/rcalhoun/code/git/sw_usb_audio/sc_usb_audio/module_usb_audio/main.xc:383:0
	std r11, r3, sp[1]
	{
		nop
		stw r4, sp[1]
	}
.Lxta.call_labels4:
	bl Endpoint0
	{
		nop
		ldw r4, sp[4]
	}
	{
		nop
		retsp 6
	}
	# RETURN_REG_HOLDER
.Ltmp56:
	.cc_bottom usb_audio_core.task.Endpoint0.2.function
	.set	usb_audio_core.task.Endpoint0.2.nstackwords,(Endpoint0.nstackwords + 6)
	.set	usb_audio_core.task.Endpoint0.2.maxcores,Endpoint0.maxcores $M 1
	.set	usb_audio_core.task.Endpoint0.2.maxtimers,Endpoint0.maxtimers $M 0
	.set	usb_audio_core.task.Endpoint0.2.maxchanends,Endpoint0.maxchanends $M 0
.Ltmp57:
	.size	usb_audio_core.task.Endpoint0.2, .Ltmp57-usb_audio_core.task.Endpoint0.2
.Lfunc_end9:
	.cfi_endproc

	.align	4
	.type	usb_audio_core.task.decouple.3,@function
	.cc_top usb_audio_core.task.decouple.3.function,usb_audio_core.task.decouple.3
usb_audio_core.task.decouple.3:         # @usb_audio_core.task.decouple.3
.Lfunc_begin10:
	.loc	1 387 0                 # /Users/rcalhoun/code/git/sw_usb_audio/sc_usb_audio/module_usb_audio/main.xc:387:0
	.cfi_startproc
	.issue_mode dual
# BB#0:                                 # %allocas
.Lxtalabel5:
	{
		nop
		dualentsp 2
	}
.Ltmp58:
	.cfi_def_cfa_offset 8
.Ltmp59:
	.cfi_offset 15, 0
	#DEBUG_VALUE: usb_audio_core.task.decouple.3:frame <- R0
	.loc	1 259 0 prologue_end    # /Users/rcalhoun/code/git/sw_usb_audio/sc_usb_audio/module_usb_audio/main.xc:259:0
.Ltmp60:
	clrsr 128
	{
		nop
		ldw r0, r0[0]
	}
.Ltmp61:
	.loc	1 389 0                 # /Users/rcalhoun/code/git/sw_usb_audio/sc_usb_audio/module_usb_audio/main.xc:389:0
.Lxta.call_labels5:
	bl decouple
	{
		nop
		retsp 2
	}
	# RETURN_REG_HOLDER
.Ltmp62:
	.cc_bottom usb_audio_core.task.decouple.3.function
	.set	usb_audio_core.task.decouple.3.nstackwords,(decouple.nstackwords + 2)
	.set	usb_audio_core.task.decouple.3.maxcores,decouple.maxcores $M 1
	.set	usb_audio_core.task.decouple.3.maxtimers,decouple.maxtimers $M 0
	.set	usb_audio_core.task.decouple.3.maxchanends,decouple.maxchanends $M 0
.Ltmp63:
	.size	usb_audio_core.task.decouple.3, .Ltmp63-usb_audio_core.task.decouple.3
.Lfunc_end10:
	.cfi_endproc

	.globl	_Susb_audio_core_0
	.align	4
	.type	_Susb_audio_core_0,@function
	.cc_top _Susb_audio_core_0.function,_Susb_audio_core_0
_Susb_audio_core_0:                     # @_Susb_audio_core_0
.Lfunc_begin11:
	.loc	1 290 0                 # /Users/rcalhoun/code/git/sw_usb_audio/sc_usb_audio/module_usb_audio/main.xc:290:0
	.cfi_startproc
	.issue_mode dual
# BB#0:                                 # %allocas
.Lxtalabel6:
	{
		nop
		dualentsp 18
	}
.Ltmp64:
	.cfi_def_cfa_offset 72
.Ltmp65:
	.cfi_offset 15, 0
	{
		nop
		stw r0, sp[2]
	}
.Ltmp66:
	#DEBUG_VALUE: c_clk_int <- R0
	{
		ldc r0, 0
		stw r1, sp[3]
	}
.Ltmp67:
	.loc	1 287 0 prologue_end    # /Users/rcalhoun/code/git/sw_usb_audio/sc_usb_audio/module_usb_audio/main.xc:287:0
	{
		getr r0, 2
		stw r0, sp[4]
	}
	.loc	1 291 0                 # /Users/rcalhoun/code/git/sw_usb_audio/sc_usb_audio/module_usb_audio/main.xc:291:0
.Ltmp68:
	{
		getr r1, 2
		nop
	}
	.loc	1 291 0                 # /Users/rcalhoun/code/git/sw_usb_audio/sc_usb_audio/module_usb_audio/main.xc:291:0
	{
		setd res[r0], r1
		nop
	}
	.loc	1 291 0                 # /Users/rcalhoun/code/git/sw_usb_audio/sc_usb_audio/module_usb_audio/main.xc:291:0
	{
		setd res[r1], r0
		stw r0, sp[5]
	}
	.loc	1 291 0                 # /Users/rcalhoun/code/git/sw_usb_audio/sc_usb_audio/module_usb_audio/main.xc:291:0
	{
		getr r0, 2
		stw r1, sp[6]
	}
	.loc	1 292 0                 # /Users/rcalhoun/code/git/sw_usb_audio/sc_usb_audio/module_usb_audio/main.xc:292:0
.Ltmp69:
	{
		getr r1, 2
		nop
	}
	.loc	1 292 0                 # /Users/rcalhoun/code/git/sw_usb_audio/sc_usb_audio/module_usb_audio/main.xc:292:0
	{
		setd res[r0], r1
		nop
	}
	.loc	1 292 0                 # /Users/rcalhoun/code/git/sw_usb_audio/sc_usb_audio/module_usb_audio/main.xc:292:0
	{
		setd res[r1], r0
		stw r0, sp[8]
	}
	.loc	1 292 0                 # /Users/rcalhoun/code/git/sw_usb_audio/sc_usb_audio/module_usb_audio/main.xc:292:0
	{
		getr r0, 2
		stw r1, sp[10]
	}
	.loc	1 292 0                 # /Users/rcalhoun/code/git/sw_usb_audio/sc_usb_audio/module_usb_audio/main.xc:292:0
	{
		getr r1, 2
		nop
	}
	.loc	1 292 0                 # /Users/rcalhoun/code/git/sw_usb_audio/sc_usb_audio/module_usb_audio/main.xc:292:0
	{
		setd res[r0], r1
		nop
	}
	.loc	1 292 0                 # /Users/rcalhoun/code/git/sw_usb_audio/sc_usb_audio/module_usb_audio/main.xc:292:0
	{
		setd res[r1], r0
		stw r0, sp[7]
	}
	.loc	1 292 0                 # /Users/rcalhoun/code/git/sw_usb_audio/sc_usb_audio/module_usb_audio/main.xc:292:0
	{
		getr r0, 2
		stw r1, sp[9]
	}
	.loc	1 293 0                 # /Users/rcalhoun/code/git/sw_usb_audio/sc_usb_audio/module_usb_audio/main.xc:293:0
.Ltmp70:
	{
		getr r1, 2
		nop
	}
	.loc	1 293 0                 # /Users/rcalhoun/code/git/sw_usb_audio/sc_usb_audio/module_usb_audio/main.xc:293:0
	{
		setd res[r0], r1
		nop
	}
	.loc	1 293 0                 # /Users/rcalhoun/code/git/sw_usb_audio/sc_usb_audio/module_usb_audio/main.xc:293:0
	{
		setd res[r1], r0
		stw r0, sp[12]
	}
	.loc	1 293 0                 # /Users/rcalhoun/code/git/sw_usb_audio/sc_usb_audio/module_usb_audio/main.xc:293:0
	{
		getr r0, 2
		stw r1, sp[14]
	}
	.loc	1 293 0                 # /Users/rcalhoun/code/git/sw_usb_audio/sc_usb_audio/module_usb_audio/main.xc:293:0
	{
		getr r1, 2
		nop
	}
	.loc	1 293 0                 # /Users/rcalhoun/code/git/sw_usb_audio/sc_usb_audio/module_usb_audio/main.xc:293:0
	{
		setd res[r0], r1
		nop
	}
	.loc	1 293 0                 # /Users/rcalhoun/code/git/sw_usb_audio/sc_usb_audio/module_usb_audio/main.xc:293:0
	{
		setd res[r1], r0
		stw r0, sp[11]
	}
	.loc	1 293 0                 # /Users/rcalhoun/code/git/sw_usb_audio/sc_usb_audio/module_usb_audio/main.xc:293:0
	{
		getr r0, 2
		stw r1, sp[13]
	}
	.loc	1 294 0                 # /Users/rcalhoun/code/git/sw_usb_audio/sc_usb_audio/module_usb_audio/main.xc:294:0
.Ltmp71:
	{
		getr r1, 2
		nop
	}
	.loc	1 294 0                 # /Users/rcalhoun/code/git/sw_usb_audio/sc_usb_audio/module_usb_audio/main.xc:294:0
	{
		setd res[r0], r1
		nop
	}
	.loc	1 294 0                 # /Users/rcalhoun/code/git/sw_usb_audio/sc_usb_audio/module_usb_audio/main.xc:294:0
	{
		setd res[r1], r0
		stw r0, sp[15]
	}
	{
		nop
		stw r1, sp[16]
	}
	.loc	1 294 0                 # /Users/rcalhoun/code/git/sw_usb_audio/sc_usb_audio/module_usb_audio/main.xc:294:0
	ldaw r1, dp[par.desc.2]
	{
		ldaw r0, sp[2]
		nop
	}
	#DEBUG_VALUE: usb_audio_core:c_mix_out <- [R0+0]
	bl __start_other_cores
.Ltmp72:
	{
		nop
		ldw r0, sp[15]
	}
	{
		freer res[r0]
		ldw r1, sp[16]
	}
	{
		freer res[r1]
		ldw r0, sp[12]
	}
	{
		freer res[r0]
		ldw r1, sp[14]
	}
	{
		freer res[r1]
		ldw r0, sp[11]
	}
	{
		freer res[r0]
		ldw r1, sp[13]
	}
	{
		freer res[r1]
		ldw r0, sp[8]
	}
	{
		freer res[r0]
		ldw r1, sp[10]
	}
	{
		freer res[r1]
		ldw r0, sp[7]
	}
	{
		freer res[r0]
		ldw r1, sp[9]
	}
	{
		freer res[r1]
		ldw r0, sp[5]
	}
	{
		freer res[r0]
		ldw r1, sp[6]
	}
	{
		freer res[r1]
		retsp 18
	}
	# RETURN_REG_HOLDER
.Ltmp73:
	.cc_bottom _Susb_audio_core_0.function
	.set	_Susb_audio_core_0.nstackwords,((par.extra_stackwords + _Susb_audio_core_0.task.XUD_Manager.0.nstackwords + ((1 + _Susb_audio_core_0.task.buffer.1.nstackwords) $A 2) + ((1 + _Susb_audio_core_0.task.Endpoint0.2.nstackwords) $A 2) + ((1 + _Susb_audio_core_0.task.decouple.3.nstackwords) $A 2)) + 18)
	.globl	_Susb_audio_core_0.nstackwords
	.set	_Susb_audio_core_0.maxcores,(0 + _Susb_audio_core_0.task.XUD_Manager.0.maxcores + _Susb_audio_core_0.task.buffer.1.maxcores + _Susb_audio_core_0.task.Endpoint0.2.maxcores + _Susb_audio_core_0.task.decouple.3.maxcores) $M 1
	.globl	_Susb_audio_core_0.maxcores
	.set	_Susb_audio_core_0.maxtimers,(3 + _Susb_audio_core_0.task.XUD_Manager.0.maxtimers + _Susb_audio_core_0.task.buffer.1.maxtimers + _Susb_audio_core_0.task.Endpoint0.2.maxtimers + _Susb_audio_core_0.task.decouple.3.maxtimers) $M 0
	.globl	_Susb_audio_core_0.maxtimers
	.set	_Susb_audio_core_0.maxchanends,(12 + (0 + _Susb_audio_core_0.task.XUD_Manager.0.maxchanends + _Susb_audio_core_0.task.buffer.1.maxchanends + _Susb_audio_core_0.task.Endpoint0.2.maxchanends + _Susb_audio_core_0.task.decouple.3.maxchanends)) $M 12
	.globl	_Susb_audio_core_0.maxchanends
.Ltmp74:
	.size	_Susb_audio_core_0, .Ltmp74-_Susb_audio_core_0
.Lfunc_end11:
	.cfi_endproc

	.align	4
	.type	_Susb_audio_core_0.task.XUD_Manager.0,@function
	.cc_top _Susb_audio_core_0.task.XUD_Manager.0.function,_Susb_audio_core_0.task.XUD_Manager.0
_Susb_audio_core_0.task.XUD_Manager.0:  # @_Susb_audio_core_0.task.XUD_Manager.0
.Lfunc_begin12:
	.loc	1 318 0                 # /Users/rcalhoun/code/git/sw_usb_audio/sc_usb_audio/module_usb_audio/main.xc:318:0
	.cfi_startproc
	.issue_mode dual
# BB#0:                                 # %allocas
	{
		nop
		dualentsp 16
	}
.Ltmp75:
	.cfi_def_cfa_offset 64
.Ltmp76:
	.cfi_offset 15, 0
	std r5, r4, sp[7]               # 4-byte Folded Spill
.Ltmp77:
	.cfi_offset 4, -8
.Ltmp78:
	.cfi_offset 5, -4
	#DEBUG_VALUE: _Susb_audio_core_0.task.XUD_Manager.0:frame <- R0
	.loc	1 318 0 prologue_end    # /Users/rcalhoun/code/git/sw_usb_audio/sc_usb_audio/module_usb_audio/main.xc:318:0
.Ltmp79:
	ldaw r3, r0[5]
	.loc	1 318 0                 # /Users/rcalhoun/code/git/sw_usb_audio/sc_usb_audio/module_usb_audio/main.xc:318:0
	ldaw r2, r0[9]
	.loc	1 318 0                 # /Users/rcalhoun/code/git/sw_usb_audio/sc_usb_audio/module_usb_audio/main.xc:318:0
	{
		ldc r1, 2
		ldw r0, r0[3]
	}
.Ltmp80:
	{
		ldc r11, 0
		nop
	}
	.loc	1 318 0                 # /Users/rcalhoun/code/git/sw_usb_audio/sc_usb_audio/module_usb_audio/main.xc:318:0
	std r1, r11, sp[4]
	ldaw r4, dp[epTypeTableIn]
	ldaw r5, dp[epTypeTableOut]
	std r4, r5, sp[1]
	{
		nop
		stw r1, sp[12]
	}
	std r1, r1, sp[5]
	{
		mkmsk r4, 1
		nop
	}
	std r4, r4, sp[3]
	std r11, r11, sp[2]
	{
		mov r0, r3
		stw r0, sp[1]
	}
	{
		mov r3, r1
		nop
	}
.Lxta.call_labels6:
	bl XUD_Manager
	ldd r5, r4, sp[7]               # 4-byte Folded Reload
	{
		nop
		retsp 16
	}
	# RETURN_REG_HOLDER
.Ltmp81:
	.cc_bottom _Susb_audio_core_0.task.XUD_Manager.0.function
	.set	_Susb_audio_core_0.task.XUD_Manager.0.nstackwords,(XUD_Manager.nstackwords + 16)
	.set	_Susb_audio_core_0.task.XUD_Manager.0.maxcores,XUD_Manager.maxcores $M 1
	.set	_Susb_audio_core_0.task.XUD_Manager.0.maxtimers,XUD_Manager.maxtimers $M 0
	.set	_Susb_audio_core_0.task.XUD_Manager.0.maxchanends,XUD_Manager.maxchanends $M 0
.Ltmp82:
	.size	_Susb_audio_core_0.task.XUD_Manager.0, .Ltmp82-_Susb_audio_core_0.task.XUD_Manager.0
.Lfunc_end12:
	.cfi_endproc

	.align	4
	.type	_Susb_audio_core_0.task.buffer.1,@function
	.cc_top _Susb_audio_core_0.task.buffer.1.function,_Susb_audio_core_0.task.buffer.1
_Susb_audio_core_0.task.buffer.1:       # @_Susb_audio_core_0.task.buffer.1
.Lfunc_begin13:
	.loc	1 324 0                 # /Users/rcalhoun/code/git/sw_usb_audio/sc_usb_audio/module_usb_audio/main.xc:324:0
	.cfi_startproc
	.issue_mode dual
# BB#0:                                 # %allocas
.Lxtalabel7:
	{
		nop
		dualentsp 4
	}
.Ltmp83:
	.cfi_def_cfa_offset 16
.Ltmp84:
	.cfi_offset 15, 0
	{
		nop
		stw r4, sp[2]
	}
.Ltmp85:
	.cfi_offset 4, -8
	#DEBUG_VALUE: _Susb_audio_core_0.task.buffer.1:frame <- R0
	.loc	1 259 0 prologue_end    # /Users/rcalhoun/code/git/sw_usb_audio/sc_usb_audio/module_usb_audio/main.xc:259:0
.Ltmp86:
	clrsr 128
	{
		ldc r1, 60
		nop
	}
.Ltmp87:
	.loc	1 336 0                 # /Users/rcalhoun/code/git/sw_usb_audio/sc_usb_audio/module_usb_audio/main.xc:336:0
	{
		add r1, r0, r1
		nop
	}
	.loc	1 336 0                 # /Users/rcalhoun/code/git/sw_usb_audio/sc_usb_audio/module_usb_audio/main.xc:336:0
	#APP
	ldw r2, dp[clk_audio_mclk]
	#NO_APP
	{
		nop
		stw r2, r1[0]
	}
	.loc	1 337 0                 # /Users/rcalhoun/code/git/sw_usb_audio/sc_usb_audio/module_usb_audio/main.xc:337:0
	ldw r4, dp[p_for_mclk_count]
	.loc	1 337 0                 # /Users/rcalhoun/code/git/sw_usb_audio/sc_usb_audio/module_usb_audio/main.xc:337:0
	#APP
	setclk res[r4], r2
	#NO_APP
	.loc	1 340 0                 # /Users/rcalhoun/code/git/sw_usb_audio/sc_usb_audio/module_usb_audio/main.xc:340:0
	{
		ldc r1, 48
		ldw r11, r0[8]
	}
	.loc	1 340 0                 # /Users/rcalhoun/code/git/sw_usb_audio/sc_usb_audio/module_usb_audio/main.xc:340:0
	{
		add r1, r0, r1
		nop
	}
	{
		nop
		ldw r1, r1[0]
	}
	.loc	1 340 0                 # /Users/rcalhoun/code/git/sw_usb_audio/sc_usb_audio/module_usb_audio/main.xc:340:0
	{
		ldc r3, 52
		ldw r2, r0[4]
	}
	.loc	1 340 0                 # /Users/rcalhoun/code/git/sw_usb_audio/sc_usb_audio/module_usb_audio/main.xc:340:0
	{
		add r0, r0, r3
		nop
	}
.Ltmp88:
	{
		nop
		ldw r3, r0[0]
	}
	.loc	1 340 0                 # /Users/rcalhoun/code/git/sw_usb_audio/sc_usb_audio/module_usb_audio/main.xc:340:0
	{
		mov r0, r11
		stw r4, sp[1]
	}
.Lxta.call_labels7:
	bl buffer
	{
		nop
		ldw r4, sp[2]
	}
	{
		nop
		retsp 4
	}
	# RETURN_REG_HOLDER
.Ltmp89:
	.cc_bottom _Susb_audio_core_0.task.buffer.1.function
	.set	_Susb_audio_core_0.task.buffer.1.nstackwords,(buffer.nstackwords + 4)
	.set	_Susb_audio_core_0.task.buffer.1.maxcores,buffer.maxcores $M 1
	.set	_Susb_audio_core_0.task.buffer.1.maxtimers,buffer.maxtimers $M 0
	.set	_Susb_audio_core_0.task.buffer.1.maxchanends,buffer.maxchanends $M 0
.Ltmp90:
	.size	_Susb_audio_core_0.task.buffer.1, .Ltmp90-_Susb_audio_core_0.task.buffer.1
.Lfunc_end13:
	.cfi_endproc

	.align	4
	.type	_Susb_audio_core_0.task.Endpoint0.2,@function
	.cc_top _Susb_audio_core_0.task.Endpoint0.2.function,_Susb_audio_core_0.task.Endpoint0.2
_Susb_audio_core_0.task.Endpoint0.2:    # @_Susb_audio_core_0.task.Endpoint0.2
.Lfunc_begin14:
	.loc	1 381 0                 # /Users/rcalhoun/code/git/sw_usb_audio/sc_usb_audio/module_usb_audio/main.xc:381:0
	.cfi_startproc
	.issue_mode dual
# BB#0:                                 # %allocas
.Lxtalabel8:
	{
		nop
		dualentsp 6
	}
.Ltmp91:
	.cfi_def_cfa_offset 24
.Ltmp92:
	.cfi_offset 15, 0
	{
		nop
		stw r4, sp[4]
	}
.Ltmp93:
	.cfi_offset 4, -8
	#DEBUG_VALUE: _Susb_audio_core_0.task.Endpoint0.2:frame <- R0
	.loc	1 259 0 prologue_end    # /Users/rcalhoun/code/git/sw_usb_audio/sc_usb_audio/module_usb_audio/main.xc:259:0
.Ltmp94:
	clrsr 128
	{
		nop
		ldw r11, r0[1]
	}
.Ltrap_info1:
	{
		ecallf r11
		nop
	}
	#DEBUG_VALUE: _Susb_audio_core_0.task.Endpoint0.2:frame <- R0
.Ltmp95:
	.loc	1 383 0                 # /Users/rcalhoun/code/git/sw_usb_audio/sc_usb_audio/module_usb_audio/main.xc:383:0
	{
		ldc r1, 56
		ldw r4, r0[2]
	}
	.loc	1 383 0                 # /Users/rcalhoun/code/git/sw_usb_audio/sc_usb_audio/module_usb_audio/main.xc:383:0
	{
		add r1, r0, r1
		nop
	}
	{
		nop
		ldw r2, r1[0]
	}
	{
		nop
		ldw r1, r0[11]
	}
	.loc	1 383 0                 # /Users/rcalhoun/code/git/sw_usb_audio/sc_usb_audio/module_usb_audio/main.xc:383:0
	{
		ldc r3, 0
		ldw r0, r0[7]
	}
.Ltmp96:
	.loc	1 383 0                 # /Users/rcalhoun/code/git/sw_usb_audio/sc_usb_audio/module_usb_audio/main.xc:383:0
	std r11, r3, sp[1]
	{
		nop
		stw r4, sp[1]
	}
.Lxta.call_labels8:
	bl Endpoint0
	{
		nop
		ldw r4, sp[4]
	}
	{
		nop
		retsp 6
	}
	# RETURN_REG_HOLDER
.Ltmp97:
	.cc_bottom _Susb_audio_core_0.task.Endpoint0.2.function
	.set	_Susb_audio_core_0.task.Endpoint0.2.nstackwords,(Endpoint0.nstackwords + 6)
	.set	_Susb_audio_core_0.task.Endpoint0.2.maxcores,Endpoint0.maxcores $M 1
	.set	_Susb_audio_core_0.task.Endpoint0.2.maxtimers,Endpoint0.maxtimers $M 0
	.set	_Susb_audio_core_0.task.Endpoint0.2.maxchanends,Endpoint0.maxchanends $M 0
.Ltmp98:
	.size	_Susb_audio_core_0.task.Endpoint0.2, .Ltmp98-_Susb_audio_core_0.task.Endpoint0.2
.Lfunc_end14:
	.cfi_endproc

	.align	4
	.type	_Susb_audio_core_0.task.decouple.3,@function
	.cc_top _Susb_audio_core_0.task.decouple.3.function,_Susb_audio_core_0.task.decouple.3
_Susb_audio_core_0.task.decouple.3:     # @_Susb_audio_core_0.task.decouple.3
.Lfunc_begin15:
	.loc	1 387 0                 # /Users/rcalhoun/code/git/sw_usb_audio/sc_usb_audio/module_usb_audio/main.xc:387:0
	.cfi_startproc
	.issue_mode dual
# BB#0:                                 # %allocas
.Lxtalabel9:
	{
		nop
		dualentsp 2
	}
.Ltmp99:
	.cfi_def_cfa_offset 8
.Ltmp100:
	.cfi_offset 15, 0
	#DEBUG_VALUE: _Susb_audio_core_0.task.decouple.3:frame <- R0
	.loc	1 259 0 prologue_end    # /Users/rcalhoun/code/git/sw_usb_audio/sc_usb_audio/module_usb_audio/main.xc:259:0
.Ltmp101:
	clrsr 128
	{
		nop
		ldw r0, r0[0]
	}
.Ltmp102:
	.loc	1 389 0                 # /Users/rcalhoun/code/git/sw_usb_audio/sc_usb_audio/module_usb_audio/main.xc:389:0
.Lxta.call_labels9:
	bl decouple
	{
		nop
		retsp 2
	}
	# RETURN_REG_HOLDER
.Ltmp103:
	.cc_bottom _Susb_audio_core_0.task.decouple.3.function
	.set	_Susb_audio_core_0.task.decouple.3.nstackwords,(decouple.nstackwords + 2)
	.set	_Susb_audio_core_0.task.decouple.3.maxcores,decouple.maxcores $M 1
	.set	_Susb_audio_core_0.task.decouple.3.maxtimers,decouple.maxtimers $M 0
	.set	_Susb_audio_core_0.task.decouple.3.maxchanends,decouple.maxchanends $M 0
.Ltmp104:
	.size	_Susb_audio_core_0.task.decouple.3, .Ltmp104-_Susb_audio_core_0.task.decouple.3
.Lfunc_end15:
	.cfi_endproc

	.globl	usb_audio_io
	.align	4
	.type	usb_audio_io,@function
	.cc_top usb_audio_io.function,usb_audio_io
usb_audio_io:                           # @usb_audio_io
	.cfi_startproc
	.issue_mode dual
# BB#0:                                 # %allocas
.Lxtalabel10:
.Ltmp105:
	.cfi_def_cfa_offset 8
.Ltmp106:
	.cfi_offset 15, 0
	#DEBUG_VALUE: usb_audio_io:c_spdif_rx <- R3
	#DEBUG_VALUE: usb_audio_io:c_adat_rx <- [SP+12]
	{
		mov r11, r1
		dualentsp 2
	}
	ldd r1, r3, sp[3]
	.loc	1 259 0                 # /Users/rcalhoun/code/git/sw_usb_audio/sc_usb_audio/module_usb_audio/main.xc:259:0
	clrsr 128
	.loc	1 446 0                 # /Users/rcalhoun/code/git/sw_usb_audio/sc_usb_audio/module_usb_audio/main.xc:446:0
	{
		mov r1, r2
		stw r1, sp[1]
	}
	{
		mov r2, r11
		nop
	}
.Lxta.call_labels10:
	bl audio
	.cc_bottom usb_audio_io.function
	.set	usb_audio_io.nstackwords,(audio.nstackwords + 2)
	.globl	usb_audio_io.nstackwords
	.set	usb_audio_io.maxcores,audio.maxcores $M 1
	.globl	usb_audio_io.maxcores
	.set	usb_audio_io.maxtimers,audio.maxtimers $M 0
	.globl	usb_audio_io.maxtimers
	.set	usb_audio_io.maxchanends,audio.maxchanends $M 0
	.globl	usb_audio_io.maxchanends
.Ltmp107:
	.size	usb_audio_io, .Ltmp107-usb_audio_io
	.cfi_endproc

	.globl	_Susb_audio_io_0
	.align	4
	.type	_Susb_audio_io_0,@function
	.cc_top _Susb_audio_io_0.function,_Susb_audio_io_0
_Susb_audio_io_0:                       # @_Susb_audio_io_0
	.cfi_startproc
	.issue_mode dual
# BB#0:                                 # %allocas
.Lxtalabel11:
.Ltmp108:
	.cfi_def_cfa_offset 8
.Ltmp109:
	.cfi_offset 15, 0
	{
		mov r3, r1
		dualentsp 2
	}
	.loc	1 259 0                 # /Users/rcalhoun/code/git/sw_usb_audio/sc_usb_audio/module_usb_audio/main.xc:259:0
	clrsr 128
	#DEBUG_VALUE: c_spdif_rx <- R1
	.loc	1 446 0                 # /Users/rcalhoun/code/git/sw_usb_audio/sc_usb_audio/module_usb_audio/main.xc:446:0
	{
		ldc r1, 0
		stw r2, sp[1]
	}
	{
		mov r2, r1
		nop
	}
.Lxta.call_labels11:
	bl audio
	.cc_bottom _Susb_audio_io_0.function
	.set	_Susb_audio_io_0.nstackwords,(audio.nstackwords + 2)
	.globl	_Susb_audio_io_0.nstackwords
	.set	_Susb_audio_io_0.maxcores,audio.maxcores $M 1
	.globl	_Susb_audio_io_0.maxcores
	.set	_Susb_audio_io_0.maxtimers,audio.maxtimers $M 0
	.globl	_Susb_audio_io_0.maxtimers
	.set	_Susb_audio_io_0.maxchanends,audio.maxchanends $M 0
	.globl	_Susb_audio_io_0.maxchanends
.Ltmp110:
	.size	_Susb_audio_io_0, .Ltmp110-_Susb_audio_io_0
	.cfi_endproc

	.globl	__main__main_tile_1
	.align	4
	.type	__main__main_tile_1,@function
	.cc_top __main__main_tile_1.function,__main__main_tile_1
__main__main_tile_1:                    # @__main__main_tile_1
	.cfi_startproc
	.issue_mode dual
# BB#0:                                 # %allocas
	{
		nop
		dualentsp 18
	}
.Ltmp111:
	.cfi_def_cfa_offset 72
.Ltmp112:
	.cfi_offset 15, 0
	std r5, r4, sp[8]               # 4-byte Folded Spill
.Ltmp113:
	.cfi_offset 4, -8
.Ltmp114:
	.cfi_offset 5, -4
	#DEBUG_VALUE: __main__main_tile_1:formal.c_pdm_pcm1 <- R0
	{
		getr r4, 2
		nop
	}
	{
		getr r5, 2
		nop
	}
	{
		setd res[r4], r5
		nop
	}
	{
		setd res[r5], r4
		nop
	}
	{
		getr r1, 2
		nop
	}
	{
		nop
		stw r1, sp[3]
	}
	ldaw r11, cp[.vtable]
	{
		nop
		stw r11, sp[4]
	}
	{
		nop
		stw r1, sp[2]
	}
	{
		nop
		stw r4, sp[14]
	}
	{
		ldaw r1, sp[2]
		stw r5, sp[15]
	}
	{
		ldaw r1, sp[3]
		stw r1, sp[7]
	}
	{
		nop
		stw r1, sp[8]
	}
	{
		nop
		stw r0, sp[5]
	}
	ldaw r1, dp[par.desc.3]
	{
		ldaw r0, sp[5]
		nop
	}
	bl __start_other_cores
	{
		freer res[r4]
		nop
	}
	{
		freer res[r5]
		ldw r0, sp[2]
	}
	{
		freer res[r0]
		nop
	}
	ldd r5, r4, sp[8]               # 4-byte Folded Reload
	{
		nop
		retsp 18
	}
	# RETURN_REG_HOLDER
	.cc_bottom __main__main_tile_1.function
	.set	__main__main_tile_1.nstackwords,((par.extra_stackwords + __main__main_tile_1_task_usb_audio_core_1.nstackwords + ((1 + __main__main_tile_1_task_usb_audio_io_2.nstackwords) $A 2) + ((1 + __main__main_tile_1_task_genclock_4.nstackwords) $A 2)) + 18)
	.globl	__main__main_tile_1.nstackwords
	.set	__main__main_tile_1.maxcores,(0 + __main__main_tile_1_task_usb_audio_core_1.maxcores + __main__main_tile_1_task_usb_audio_io_2.maxcores + __main__main_tile_1_task_genclock_4.maxcores) $M 1
	.globl	__main__main_tile_1.maxcores
	.set	__main__main_tile_1.maxtimers,(2 + __main__main_tile_1_task_usb_audio_core_1.maxtimers + __main__main_tile_1_task_usb_audio_io_2.maxtimers + __main__main_tile_1_task_genclock_4.maxtimers) $M 0
	.globl	__main__main_tile_1.maxtimers
	.set	__main__main_tile_1.maxchanends,(3 + (0 + __main__main_tile_1_task_usb_audio_core_1.maxchanends + __main__main_tile_1_task_usb_audio_io_2.maxchanends + __main__main_tile_1_task_genclock_4.maxchanends)) $M 3
	.globl	__main__main_tile_1.maxchanends
.Ltmp115:
	.size	__main__main_tile_1, .Ltmp115-__main__main_tile_1
	.cfi_endproc

	.align	4
	.type	__main__main_tile_1_task_usb_audio_core_1,@function
	.cc_top __main__main_tile_1_task_usb_audio_core_1.function,__main__main_tile_1_task_usb_audio_core_1
__main__main_tile_1_task_usb_audio_core_1: # @__main__main_tile_1_task_usb_audio_core_1
.Lfunc_begin19:
	.loc	1 562 0                 # /Users/rcalhoun/code/git/sw_usb_audio/sc_usb_audio/module_usb_audio/main.xc:562:0
	.cfi_startproc
	.issue_mode dual
# BB#0:                                 # %allocas
	{
		nop
		dualentsp 2
	}
.Ltmp116:
	.cfi_def_cfa_offset 8
.Ltmp117:
	.cfi_offset 15, 0
	#DEBUG_VALUE: __main__main_tile_1_task_usb_audio_core_1:frame <- R0
	{
		nop
		ldw r2, r0[9]
	}
	.loc	1 562 0 prologue_end    # /Users/rcalhoun/code/git/sw_usb_audio/sc_usb_audio/module_usb_audio/main.xc:562:0
.Ltmp118:
	{
		mov r0, r2
		ldw r1, r0[3]
	}
.Ltmp119:
	.loc	1 562 0                 # /Users/rcalhoun/code/git/sw_usb_audio/sc_usb_audio/module_usb_audio/main.xc:562:0
.Lxta.call_labels12:
	bl _Susb_audio_core_0
	{
		nop
		retsp 2
	}
	# RETURN_REG_HOLDER
.Ltmp120:
	.cc_bottom __main__main_tile_1_task_usb_audio_core_1.function
	.set	__main__main_tile_1_task_usb_audio_core_1.nstackwords,(_Susb_audio_core_0.nstackwords + 2)
	.set	__main__main_tile_1_task_usb_audio_core_1.maxcores,_Susb_audio_core_0.maxcores $M 1
	.set	__main__main_tile_1_task_usb_audio_core_1.maxtimers,_Susb_audio_core_0.maxtimers $M 0
	.set	__main__main_tile_1_task_usb_audio_core_1.maxchanends,_Susb_audio_core_0.maxchanends $M 0
.Ltmp121:
	.size	__main__main_tile_1_task_usb_audio_core_1, .Ltmp121-__main__main_tile_1_task_usb_audio_core_1
.Lfunc_end19:
	.cfi_endproc

	.align	4
	.type	__main__main_tile_1_task_usb_audio_io_2,@function
	.cc_top __main__main_tile_1_task_usb_audio_io_2.function,__main__main_tile_1_task_usb_audio_io_2
__main__main_tile_1_task_usb_audio_io_2: # @__main__main_tile_1_task_usb_audio_io_2
.Lfunc_begin20:
	.loc	1 580 0                 # /Users/rcalhoun/code/git/sw_usb_audio/sc_usb_audio/module_usb_audio/main.xc:580:0
	.cfi_startproc
	.issue_mode dual
# BB#0:                                 # %allocas
	{
		nop
		dualentsp 2
	}
.Ltmp122:
	.cfi_def_cfa_offset 8
.Ltmp123:
	.cfi_offset 15, 0
	#DEBUG_VALUE: __main__main_tile_1_task_usb_audio_io_2:frame <- R0
	{
		nop
		ldw r3, r0[10]
	}
	{
		nop
		ldw r1, r0[2]
	}
	.loc	1 580 0 prologue_end    # /Users/rcalhoun/code/git/sw_usb_audio/sc_usb_audio/module_usb_audio/main.xc:580:0
.Ltmp124:
	{
		mov r0, r3
		ldw r2, r0[0]
	}
.Ltmp125:
	.loc	1 580 0                 # /Users/rcalhoun/code/git/sw_usb_audio/sc_usb_audio/module_usb_audio/main.xc:580:0
.Lxta.call_labels13:
	bl _Susb_audio_io_0
.Ltmp126:
	.cc_bottom __main__main_tile_1_task_usb_audio_io_2.function
	.set	__main__main_tile_1_task_usb_audio_io_2.nstackwords,(_Susb_audio_io_0.nstackwords + 2)
	.set	__main__main_tile_1_task_usb_audio_io_2.maxcores,_Susb_audio_io_0.maxcores $M 1
	.set	__main__main_tile_1_task_usb_audio_io_2.maxtimers,_Susb_audio_io_0.maxtimers $M 0
	.set	__main__main_tile_1_task_usb_audio_io_2.maxchanends,_Susb_audio_io_0.maxchanends $M 0
.Ltmp127:
	.size	__main__main_tile_1_task_usb_audio_io_2, .Ltmp127-__main__main_tile_1_task_usb_audio_io_2
.Lfunc_end20:
	.cfi_endproc

	.align	4
	.type	__main__main_tile_1_task_genclock_4,@function
	.cc_top __main__main_tile_1_task_genclock_4.function,__main__main_tile_1_task_genclock_4
__main__main_tile_1_task_genclock_4:    # @__main__main_tile_1_task_genclock_4
.Lfunc_begin21:
	.loc	1 659 0                 # /Users/rcalhoun/code/git/sw_usb_audio/sc_usb_audio/module_usb_audio/main.xc:659:0
	.cfi_startproc
	.issue_mode dual
# BB#0:                                 # %allocas
	{
		nop
		dualentsp 2
	}
.Ltmp128:
	.cfi_def_cfa_offset 8
.Ltmp129:
	.cfi_offset 15, 0
	#DEBUG_VALUE: __main__main_tile_1_task_genclock_4:frame <- R0
	.loc	1 659 0 prologue_end    # /Users/rcalhoun/code/git/sw_usb_audio/sc_usb_audio/module_usb_audio/main.xc:659:0
.Ltmp130:
.Lxta.call_labels14:
	bl genclock
.Ltmp131:
	{
		nop
		retsp 2
	}
	# RETURN_REG_HOLDER
.Ltmp132:
	.cc_bottom __main__main_tile_1_task_genclock_4.function
	.set	__main__main_tile_1_task_genclock_4.nstackwords,(genclock.nstackwords + 2)
	.set	__main__main_tile_1_task_genclock_4.maxcores,genclock.maxcores $M 1
	.set	__main__main_tile_1_task_genclock_4.maxtimers,genclock.maxtimers $M 0
	.set	__main__main_tile_1_task_genclock_4.maxchanends,genclock.maxchanends $M 0
.Ltmp133:
	.size	__main__main_tile_1_task_genclock_4, .Ltmp133-__main__main_tile_1_task_genclock_4
.Lfunc_end21:
	.cfi_endproc

	.globl	__main__main_tile_0
	.align	4
	.type	__main__main_tile_0,@function
	.cc_top __main__main_tile_0.function,__main__main_tile_0
__main__main_tile_0:                    # @__main__main_tile_0
.Lfunc_begin22:
	.file	3 "<synthesized>"
	.loc	3 0 0                   # <synthesized>:0:0
	.cfi_startproc
	.issue_mode dual
# BB#0:                                 # %allocas
	{
		nop
		dualentsp 2
	}
.Ltmp134:
	.cfi_def_cfa_offset 8
.Ltmp135:
	.cfi_offset 15, 0
	#DEBUG_VALUE: __main__main_tile_0:formal.c_pdm_pcm4 <- R0
	.loc	3 657 0 prologue_end    # <synthesized>:657:0
.Ltmp136:
.Lxta.call_labels15:
	bl pcm_pdm_mic
.Ltmp137:
	{
		nop
		retsp 2
	}
	# RETURN_REG_HOLDER
.Ltmp138:
	.cc_bottom __main__main_tile_0.function
	.set	__main__main_tile_0.nstackwords,(pcm_pdm_mic.nstackwords + 2)
	.globl	__main__main_tile_0.nstackwords
	.set	__main__main_tile_0.maxcores,pcm_pdm_mic.maxcores $M 1
	.globl	__main__main_tile_0.maxcores
	.set	__main__main_tile_0.maxtimers,pcm_pdm_mic.maxtimers $M 0
	.globl	__main__main_tile_0.maxtimers
	.set	__main__main_tile_0.maxchanends,pcm_pdm_mic.maxchanends $M 0
	.globl	__main__main_tile_0.maxchanends
.Ltmp139:
	.size	__main__main_tile_0, .Ltmp139-__main__main_tile_0
.Lfunc_end22:
	.cfi_endproc

	.section	.dp.rodata,"awd",@progbits
	.cc_top p_i2s_dac.data,p_i2s_dac
	.globl	p_i2s_dac.globound
p_i2s_dac.globound = 1
	.globl	p_i2s_dac
	.align	8
	.type	p_i2s_dac,@object
	.size	p_i2s_dac, 4
p_i2s_dac:
	.long	69376
	.cc_bottom p_i2s_dac.data
	.section	.dp.data,"awd",@progbits
	.cc_top epTypeTableOut.data,epTypeTableOut
	.globl	epTypeTableOut.globound
epTypeTableOut.globound = 2
	.globl	epTypeTableOut
	.align	8
	.type	epTypeTableOut,@object
	.size	epTypeTableOut, 8
epTypeTableOut:
	.long	2147483651              # 0x80000003
	.long	0                       # 0x0
	.cc_bottom epTypeTableOut.data
	.cc_top epTypeTableIn.data,epTypeTableIn
	.globl	epTypeTableIn.globound
epTypeTableIn.globound = 2
	.globl	epTypeTableIn
	.align	8
	.type	epTypeTableIn,@object
	.size	epTypeTableIn, 8
epTypeTableIn:
	.long	2147483651              # 0x80000003
	.long	0                       # 0x0
	.cc_bottom epTypeTableIn.data
	.section	.cp.rodata.4,"ac",@progbits
	.cc_top .str.data,.str
	.align	4
	.type	.str,@object
	.size	.str, 1
.str:
	.space	1
	.space	3
	.cc_bottom .str.data
	.cc_top .str3.data,.str3
	.align	4
	.type	.str3,@object
	.size	.str3, 1
.str3:
	.space	1
	.space	3
	.cc_bottom .str3.data
	.section	.dp.data.4,"awd",@progbits
	.cc_top par.desc.1.data,par.desc.1
	.align	4
	.type	par.desc.1,@object
	.size	par.desc.1, 32
par.desc.1:
	.long	usb_audio_core.task.buffer.1
	.long	usb_audio_core.task.decouple.3.nstackwords
	.long	usb_audio_core.task.Endpoint0.2
	.long	usb_audio_core.task.buffer.1.nstackwords
	.long	usb_audio_core.task.XUD_Manager.0
	.long	usb_audio_core.task.Endpoint0.2.nstackwords
	.long	0
	.long	usb_audio_core.task.decouple.3
	.cc_bottom par.desc.1.data
	.cc_top par.desc.2.data,par.desc.2
	.align	4
	.type	par.desc.2,@object
	.size	par.desc.2, 32
par.desc.2:
	.long	_Susb_audio_core_0.task.buffer.1
	.long	_Susb_audio_core_0.task.decouple.3.nstackwords
	.long	_Susb_audio_core_0.task.Endpoint0.2
	.long	_Susb_audio_core_0.task.buffer.1.nstackwords
	.long	_Susb_audio_core_0.task.XUD_Manager.0
	.long	_Susb_audio_core_0.task.Endpoint0.2.nstackwords
	.long	0
	.long	_Susb_audio_core_0.task.decouple.3
	.cc_bottom par.desc.2.data
	.section	.cp.rodata.4,"ac",@progbits
	.cc_top .vtable.data,.vtable
	.align	4
	.type	.vtable,@object
	.size	.vtable, 20
.vtable:
	.long	_i.i_dfu._chan.HandleDfuRequest
	.long	_i.i_dfu._chan.finish
	.long	__interface_client_push_yield
	.long	__interface_client_pop_yield
	.long	__noop
	.cc_bottom .vtable.data
	.section	.dp.data.4,"awd",@progbits
	.cc_top par.desc.3.data,par.desc.3
	.align	4
	.type	par.desc.3,@object
	.size	par.desc.3, 24
par.desc.3:
	.long	__main__main_tile_1_task_usb_audio_io_2
	.long	__main__main_tile_1_task_genclock_4.nstackwords
	.long	__main__main_tile_1_task_usb_audio_core_1
	.long	__main__main_tile_1_task_usb_audio_io_2.nstackwords
	.long	0
	.long	__main__main_tile_1_task_genclock_4
	.cc_bottom par.desc.3.data
	.cc_top __xcc1_internal_1.data,__xcc1_internal_1
	.align	4
	.type	__xcc1_internal_1,@object
	.size	__xcc1_internal_1, 4
__xcc1_internal_1:
	.long	69376
	.cc_bottom __xcc1_internal_1.data
	.section	.dp.data,"awd",@progbits
.Ldebug_end1:
	.section	.dp.rodata,"awd",@progbits
.Ldebug_end2:
	.text
.Ldebug_end3:
	.file	4 "/Applications/XMOS_XTC_15.1.4/target/include/timer.h"
	.section	.xtacalltable,"",@progbits
.Lentries_start0:
	.long	.Lentries_end1-.Lentries_start0
	.long	0
	.ascii	"/Users/rcalhoun/code/git/sw_usb_audio/sw_usb_audio/app_usb_aud_mic_array/.build_1i8o2"
	.byte	0
.cc_top cc_0,.Lxta.call_labels0
	.ascii	"/Users/rcalhoun/code/git/sw_usb_audio/sc_usb_audio/module_usb_audio/main.xc"
	.byte	0
	.long	266
	.long	.Lxta.call_labels0
.cc_bottom cc_0
.cc_top cc_1,.Lxta.call_labels1
	.ascii	"/Users/rcalhoun/code/git/sw_usb_audio/sc_usb_audio/module_usb_audio/main.xc"
	.byte	0
	.long	268
	.long	.Lxta.call_labels1
.cc_bottom cc_1
.cc_top cc_2,.Lxta.call_labels2
	.ascii	"/Users/rcalhoun/code/git/sw_usb_audio/sc_usb_audio/module_usb_audio/main.xc"
	.byte	0
	.long	318
	.long	.Lxta.call_labels2
.cc_bottom cc_2
.cc_top cc_3,.Lxta.call_labels6
	.ascii	"/Users/rcalhoun/code/git/sw_usb_audio/sc_usb_audio/module_usb_audio/main.xc"
	.byte	0
	.long	318
	.long	.Lxta.call_labels6
.cc_bottom cc_3
.cc_top cc_4,.Lxta.call_labels3
	.ascii	"/Users/rcalhoun/code/git/sw_usb_audio/sc_usb_audio/module_usb_audio/main.xc"
	.byte	0
	.long	340
	.long	.Lxta.call_labels3
.cc_bottom cc_4
.cc_top cc_5,.Lxta.call_labels7
	.ascii	"/Users/rcalhoun/code/git/sw_usb_audio/sc_usb_audio/module_usb_audio/main.xc"
	.byte	0
	.long	340
	.long	.Lxta.call_labels7
.cc_bottom cc_5
.cc_top cc_6,.Lxta.call_labels8
	.ascii	"/Users/rcalhoun/code/git/sw_usb_audio/sc_usb_audio/module_usb_audio/main.xc"
	.byte	0
	.long	383
	.long	.Lxta.call_labels8
.cc_bottom cc_6
.cc_top cc_7,.Lxta.call_labels4
	.ascii	"/Users/rcalhoun/code/git/sw_usb_audio/sc_usb_audio/module_usb_audio/main.xc"
	.byte	0
	.long	383
	.long	.Lxta.call_labels4
.cc_bottom cc_7
.cc_top cc_8,.Lxta.call_labels5
	.ascii	"/Users/rcalhoun/code/git/sw_usb_audio/sc_usb_audio/module_usb_audio/main.xc"
	.byte	0
	.long	389
	.long	.Lxta.call_labels5
.cc_bottom cc_8
.cc_top cc_9,.Lxta.call_labels9
	.ascii	"/Users/rcalhoun/code/git/sw_usb_audio/sc_usb_audio/module_usb_audio/main.xc"
	.byte	0
	.long	389
	.long	.Lxta.call_labels9
.cc_bottom cc_9
.cc_top cc_10,.Lxta.call_labels10
	.ascii	"/Users/rcalhoun/code/git/sw_usb_audio/sc_usb_audio/module_usb_audio/main.xc"
	.byte	0
	.long	446
	.long	.Lxta.call_labels10
.cc_bottom cc_10
.cc_top cc_11,.Lxta.call_labels11
	.ascii	"/Users/rcalhoun/code/git/sw_usb_audio/sc_usb_audio/module_usb_audio/main.xc"
	.byte	0
	.long	446
	.long	.Lxta.call_labels11
.cc_bottom cc_11
.cc_top cc_12,.Lxta.call_labels12
	.ascii	"/Users/rcalhoun/code/git/sw_usb_audio/sc_usb_audio/module_usb_audio/main.xc"
	.byte	0
	.long	562
	.long	.Lxta.call_labels12
.cc_bottom cc_12
.cc_top cc_13,.Lxta.call_labels13
	.ascii	"/Users/rcalhoun/code/git/sw_usb_audio/sc_usb_audio/module_usb_audio/main.xc"
	.byte	0
	.long	580
	.long	.Lxta.call_labels13
.cc_bottom cc_13
.cc_top cc_14,.Lxta.call_labels15
	.ascii	"/Users/rcalhoun/code/git/sw_usb_audio/sc_usb_audio/module_usb_audio/main.xc"
	.byte	0
	.long	657
	.long	.Lxta.call_labels15
.cc_bottom cc_14
.cc_top cc_15,.Lxta.call_labels14
	.ascii	"/Users/rcalhoun/code/git/sw_usb_audio/sc_usb_audio/module_usb_audio/main.xc"
	.byte	0
	.long	659
	.long	.Lxta.call_labels14
.cc_bottom cc_15
.Lentries_end1:
	.section	.xtalabeltable,"",@progbits
.Lentries_start2:
	.long	.Lentries_end3-.Lentries_start2
	.long	0
	.ascii	"/Users/rcalhoun/code/git/sw_usb_audio/sw_usb_audio/app_usb_aud_mic_array/.build_1i8o2"
	.byte	0
.cc_top cc_16,.Lxtalabel0
	.ascii	"/Users/rcalhoun/code/git/sw_usb_audio/sc_usb_audio/module_usb_audio/main.xc"
	.byte	0
	.long	254
	.long	254
	.long	.Lxtalabel0
.cc_bottom cc_16
.cc_top cc_17,.Lxtalabel8
	.ascii	"/Users/rcalhoun/code/git/sw_usb_audio/sc_usb_audio/module_usb_audio/main.xc"
	.byte	0
	.long	254
	.long	254
	.long	.Lxtalabel8
.cc_bottom cc_17
.cc_top cc_18,.Lxtalabel7
	.ascii	"/Users/rcalhoun/code/git/sw_usb_audio/sc_usb_audio/module_usb_audio/main.xc"
	.byte	0
	.long	254
	.long	254
	.long	.Lxtalabel7
.cc_bottom cc_18
.cc_top cc_19,.Lxtalabel10
	.ascii	"/Users/rcalhoun/code/git/sw_usb_audio/sc_usb_audio/module_usb_audio/main.xc"
	.byte	0
	.long	254
	.long	254
	.long	.Lxtalabel10
.cc_bottom cc_19
.cc_top cc_20,.Lxtalabel5
	.ascii	"/Users/rcalhoun/code/git/sw_usb_audio/sc_usb_audio/module_usb_audio/main.xc"
	.byte	0
	.long	254
	.long	254
	.long	.Lxtalabel5
.cc_bottom cc_20
.cc_top cc_21,.Lxtalabel9
	.ascii	"/Users/rcalhoun/code/git/sw_usb_audio/sc_usb_audio/module_usb_audio/main.xc"
	.byte	0
	.long	254
	.long	254
	.long	.Lxtalabel9
.cc_bottom cc_21
.cc_top cc_22,.Lxtalabel4
	.ascii	"/Users/rcalhoun/code/git/sw_usb_audio/sc_usb_audio/module_usb_audio/main.xc"
	.byte	0
	.long	254
	.long	254
	.long	.Lxtalabel4
.cc_bottom cc_22
.cc_top cc_23,.Lxtalabel3
	.ascii	"/Users/rcalhoun/code/git/sw_usb_audio/sc_usb_audio/module_usb_audio/main.xc"
	.byte	0
	.long	254
	.long	254
	.long	.Lxtalabel3
.cc_bottom cc_23
.cc_top cc_24,.Lxtalabel11
	.ascii	"/Users/rcalhoun/code/git/sw_usb_audio/sc_usb_audio/module_usb_audio/main.xc"
	.byte	0
	.long	254
	.long	254
	.long	.Lxtalabel11
.cc_bottom cc_24
.cc_top cc_25,.Lxtalabel4
	.ascii	"/Users/rcalhoun/code/git/sw_usb_audio/sc_usb_audio/module_usb_audio/main.xc"
	.byte	0
	.long	259
	.long	259
	.long	.Lxtalabel4
.cc_bottom cc_25
.cc_top cc_26,.Lxtalabel8
	.ascii	"/Users/rcalhoun/code/git/sw_usb_audio/sc_usb_audio/module_usb_audio/main.xc"
	.byte	0
	.long	259
	.long	259
	.long	.Lxtalabel8
.cc_bottom cc_26
.cc_top cc_27,.Lxtalabel5
	.ascii	"/Users/rcalhoun/code/git/sw_usb_audio/sc_usb_audio/module_usb_audio/main.xc"
	.byte	0
	.long	259
	.long	259
	.long	.Lxtalabel5
.cc_bottom cc_27
.cc_top cc_28,.Lxtalabel9
	.ascii	"/Users/rcalhoun/code/git/sw_usb_audio/sc_usb_audio/module_usb_audio/main.xc"
	.byte	0
	.long	259
	.long	259
	.long	.Lxtalabel9
.cc_bottom cc_28
.cc_top cc_29,.Lxtalabel7
	.ascii	"/Users/rcalhoun/code/git/sw_usb_audio/sc_usb_audio/module_usb_audio/main.xc"
	.byte	0
	.long	259
	.long	259
	.long	.Lxtalabel7
.cc_bottom cc_29
.cc_top cc_30,.Lxtalabel11
	.ascii	"/Users/rcalhoun/code/git/sw_usb_audio/sc_usb_audio/module_usb_audio/main.xc"
	.byte	0
	.long	259
	.long	259
	.long	.Lxtalabel11
.cc_bottom cc_30
.cc_top cc_31,.Lxtalabel3
	.ascii	"/Users/rcalhoun/code/git/sw_usb_audio/sc_usb_audio/module_usb_audio/main.xc"
	.byte	0
	.long	259
	.long	259
	.long	.Lxtalabel3
.cc_bottom cc_31
.cc_top cc_32,.Lxtalabel0
	.ascii	"/Users/rcalhoun/code/git/sw_usb_audio/sc_usb_audio/module_usb_audio/main.xc"
	.byte	0
	.long	259
	.long	259
	.long	.Lxtalabel0
.cc_bottom cc_32
.cc_top cc_33,.Lxtalabel10
	.ascii	"/Users/rcalhoun/code/git/sw_usb_audio/sc_usb_audio/module_usb_audio/main.xc"
	.byte	0
	.long	259
	.long	259
	.long	.Lxtalabel10
.cc_bottom cc_33
.cc_top cc_34,.Lxtalabel7
	.ascii	"/Users/rcalhoun/code/git/sw_usb_audio/sc_usb_audio/module_usb_audio/main.xc"
	.byte	0
	.long	261
	.long	261
	.long	.Lxtalabel7
.cc_bottom cc_34
.cc_top cc_35,.Lxtalabel9
	.ascii	"/Users/rcalhoun/code/git/sw_usb_audio/sc_usb_audio/module_usb_audio/main.xc"
	.byte	0
	.long	261
	.long	261
	.long	.Lxtalabel9
.cc_bottom cc_35
.cc_top cc_36,.Lxtalabel3
	.ascii	"/Users/rcalhoun/code/git/sw_usb_audio/sc_usb_audio/module_usb_audio/main.xc"
	.byte	0
	.long	261
	.long	261
	.long	.Lxtalabel3
.cc_bottom cc_36
.cc_top cc_37,.Lxtalabel11
	.ascii	"/Users/rcalhoun/code/git/sw_usb_audio/sc_usb_audio/module_usb_audio/main.xc"
	.byte	0
	.long	261
	.long	261
	.long	.Lxtalabel11
.cc_bottom cc_37
.cc_top cc_38,.Lxtalabel0
	.ascii	"/Users/rcalhoun/code/git/sw_usb_audio/sc_usb_audio/module_usb_audio/main.xc"
	.byte	0
	.long	261
	.long	261
	.long	.Lxtalabel0
.cc_bottom cc_38
.cc_top cc_39,.Lxtalabel4
	.ascii	"/Users/rcalhoun/code/git/sw_usb_audio/sc_usb_audio/module_usb_audio/main.xc"
	.byte	0
	.long	261
	.long	261
	.long	.Lxtalabel4
.cc_bottom cc_39
.cc_top cc_40,.Lxtalabel8
	.ascii	"/Users/rcalhoun/code/git/sw_usb_audio/sc_usb_audio/module_usb_audio/main.xc"
	.byte	0
	.long	261
	.long	261
	.long	.Lxtalabel8
.cc_bottom cc_40
.cc_top cc_41,.Lxtalabel10
	.ascii	"/Users/rcalhoun/code/git/sw_usb_audio/sc_usb_audio/module_usb_audio/main.xc"
	.byte	0
	.long	261
	.long	261
	.long	.Lxtalabel10
.cc_bottom cc_41
.cc_top cc_42,.Lxtalabel5
	.ascii	"/Users/rcalhoun/code/git/sw_usb_audio/sc_usb_audio/module_usb_audio/main.xc"
	.byte	0
	.long	261
	.long	261
	.long	.Lxtalabel5
.cc_bottom cc_42
.cc_top cc_43,.Lxtalabel1
	.ascii	"/Users/rcalhoun/code/git/sw_usb_audio/sc_usb_audio/module_usb_audio/main.xc"
	.byte	0
	.long	265
	.long	266
	.long	.Lxtalabel1
.cc_bottom cc_43
.cc_top cc_44,.Lxtalabel1
	.ascii	"/Users/rcalhoun/code/git/sw_usb_audio/sc_usb_audio/module_usb_audio/main.xc"
	.byte	0
	.long	268
	.long	269
	.long	.Lxtalabel1
.cc_bottom cc_44
.cc_top cc_45,.Lxtalabel2
	.ascii	"/Users/rcalhoun/code/git/sw_usb_audio/sc_usb_audio/module_usb_audio/main.xc"
	.byte	0
	.long	290
	.long	294
	.long	.Lxtalabel2
.cc_bottom cc_45
.cc_top cc_46,.Lxtalabel6
	.ascii	"/Users/rcalhoun/code/git/sw_usb_audio/sc_usb_audio/module_usb_audio/main.xc"
	.byte	0
	.long	290
	.long	294
	.long	.Lxtalabel6
.cc_bottom cc_46
.cc_top cc_47,.Lxtalabel6
	.ascii	"/Users/rcalhoun/code/git/sw_usb_audio/sc_usb_audio/module_usb_audio/main.xc"
	.byte	0
	.long	310
	.long	311
	.long	.Lxtalabel6
.cc_bottom cc_47
.cc_top cc_48,.Lxtalabel2
	.ascii	"/Users/rcalhoun/code/git/sw_usb_audio/sc_usb_audio/module_usb_audio/main.xc"
	.byte	0
	.long	310
	.long	311
	.long	.Lxtalabel2
.cc_bottom cc_48
.cc_top cc_49,.Lxtalabel2
	.ascii	"/Users/rcalhoun/code/git/sw_usb_audio/sc_usb_audio/module_usb_audio/main.xc"
	.byte	0
	.long	318
	.long	319
	.long	.Lxtalabel2
.cc_bottom cc_49
.cc_top cc_50,.Lxtalabel6
	.ascii	"/Users/rcalhoun/code/git/sw_usb_audio/sc_usb_audio/module_usb_audio/main.xc"
	.byte	0
	.long	318
	.long	319
	.long	.Lxtalabel6
.cc_bottom cc_50
.cc_top cc_51,.Lxtalabel6
	.ascii	"/Users/rcalhoun/code/git/sw_usb_audio/sc_usb_audio/module_usb_audio/main.xc"
	.byte	0
	.long	320
	.long	320
	.long	.Lxtalabel6
.cc_bottom cc_51
.cc_top cc_52,.Lxtalabel2
	.ascii	"/Users/rcalhoun/code/git/sw_usb_audio/sc_usb_audio/module_usb_audio/main.xc"
	.byte	0
	.long	320
	.long	320
	.long	.Lxtalabel2
.cc_bottom cc_52
.cc_top cc_53,.Lxtalabel2
	.ascii	"/Users/rcalhoun/code/git/sw_usb_audio/sc_usb_audio/module_usb_audio/main.xc"
	.byte	0
	.long	324
	.long	326
	.long	.Lxtalabel2
.cc_bottom cc_53
.cc_top cc_54,.Lxtalabel6
	.ascii	"/Users/rcalhoun/code/git/sw_usb_audio/sc_usb_audio/module_usb_audio/main.xc"
	.byte	0
	.long	324
	.long	326
	.long	.Lxtalabel6
.cc_bottom cc_54
.cc_top cc_55,.Lxtalabel6
	.ascii	"/Users/rcalhoun/code/git/sw_usb_audio/sc_usb_audio/module_usb_audio/main.xc"
	.byte	0
	.long	336
	.long	337
	.long	.Lxtalabel6
.cc_bottom cc_55
.cc_top cc_56,.Lxtalabel2
	.ascii	"/Users/rcalhoun/code/git/sw_usb_audio/sc_usb_audio/module_usb_audio/main.xc"
	.byte	0
	.long	336
	.long	337
	.long	.Lxtalabel2
.cc_bottom cc_56
.cc_top cc_57,.Lxtalabel6
	.ascii	"/Users/rcalhoun/code/git/sw_usb_audio/sc_usb_audio/module_usb_audio/main.xc"
	.byte	0
	.long	340
	.long	341
	.long	.Lxtalabel6
.cc_bottom cc_57
.cc_top cc_58,.Lxtalabel2
	.ascii	"/Users/rcalhoun/code/git/sw_usb_audio/sc_usb_audio/module_usb_audio/main.xc"
	.byte	0
	.long	340
	.long	341
	.long	.Lxtalabel2
.cc_bottom cc_58
.cc_top cc_59,.Lxtalabel6
	.ascii	"/Users/rcalhoun/code/git/sw_usb_audio/sc_usb_audio/module_usb_audio/main.xc"
	.byte	0
	.long	369
	.long	369
	.long	.Lxtalabel6
.cc_bottom cc_59
.cc_top cc_60,.Lxtalabel2
	.ascii	"/Users/rcalhoun/code/git/sw_usb_audio/sc_usb_audio/module_usb_audio/main.xc"
	.byte	0
	.long	369
	.long	369
	.long	.Lxtalabel2
.cc_bottom cc_60
.cc_top cc_61,.Lxtalabel6
	.ascii	"/Users/rcalhoun/code/git/sw_usb_audio/sc_usb_audio/module_usb_audio/main.xc"
	.byte	0
	.long	376
	.long	376
	.long	.Lxtalabel6
.cc_bottom cc_61
.cc_top cc_62,.Lxtalabel2
	.ascii	"/Users/rcalhoun/code/git/sw_usb_audio/sc_usb_audio/module_usb_audio/main.xc"
	.byte	0
	.long	376
	.long	376
	.long	.Lxtalabel2
.cc_bottom cc_62
.cc_top cc_63,.Lxtalabel6
	.ascii	"/Users/rcalhoun/code/git/sw_usb_audio/sc_usb_audio/module_usb_audio/main.xc"
	.byte	0
	.long	378
	.long	378
	.long	.Lxtalabel6
.cc_bottom cc_63
.cc_top cc_64,.Lxtalabel2
	.ascii	"/Users/rcalhoun/code/git/sw_usb_audio/sc_usb_audio/module_usb_audio/main.xc"
	.byte	0
	.long	378
	.long	378
	.long	.Lxtalabel2
.cc_bottom cc_64
.cc_top cc_65,.Lxtalabel6
	.ascii	"/Users/rcalhoun/code/git/sw_usb_audio/sc_usb_audio/module_usb_audio/main.xc"
	.byte	0
	.long	381
	.long	384
	.long	.Lxtalabel6
.cc_bottom cc_65
.cc_top cc_66,.Lxtalabel2
	.ascii	"/Users/rcalhoun/code/git/sw_usb_audio/sc_usb_audio/module_usb_audio/main.xc"
	.byte	0
	.long	381
	.long	384
	.long	.Lxtalabel2
.cc_bottom cc_66
.cc_top cc_67,.Lxtalabel2
	.ascii	"/Users/rcalhoun/code/git/sw_usb_audio/sc_usb_audio/module_usb_audio/main.xc"
	.byte	0
	.long	387
	.long	389
	.long	.Lxtalabel2
.cc_bottom cc_67
.cc_top cc_68,.Lxtalabel6
	.ascii	"/Users/rcalhoun/code/git/sw_usb_audio/sc_usb_audio/module_usb_audio/main.xc"
	.byte	0
	.long	387
	.long	389
	.long	.Lxtalabel6
.cc_bottom cc_68
.cc_top cc_69,.Lxtalabel2
	.ascii	"/Users/rcalhoun/code/git/sw_usb_audio/sc_usb_audio/module_usb_audio/main.xc"
	.byte	0
	.long	393
	.long	394
	.long	.Lxtalabel2
.cc_bottom cc_69
.cc_top cc_70,.Lxtalabel6
	.ascii	"/Users/rcalhoun/code/git/sw_usb_audio/sc_usb_audio/module_usb_audio/main.xc"
	.byte	0
	.long	393
	.long	394
	.long	.Lxtalabel6
.cc_bottom cc_70
.cc_top cc_71,.Lxtalabel2
	.ascii	"/Users/rcalhoun/code/git/sw_usb_audio/sc_usb_audio/module_usb_audio/main.xc"
	.byte	0
	.long	396
	.long	397
	.long	.Lxtalabel2
.cc_bottom cc_71
.cc_top cc_72,.Lxtalabel6
	.ascii	"/Users/rcalhoun/code/git/sw_usb_audio/sc_usb_audio/module_usb_audio/main.xc"
	.byte	0
	.long	396
	.long	397
	.long	.Lxtalabel6
.cc_bottom cc_72
.cc_top cc_73,.Lxtalabel11
	.ascii	"/Users/rcalhoun/code/git/sw_usb_audio/sc_usb_audio/module_usb_audio/main.xc"
	.byte	0
	.long	418
	.long	418
	.long	.Lxtalabel11
.cc_bottom cc_73
.cc_top cc_74,.Lxtalabel10
	.ascii	"/Users/rcalhoun/code/git/sw_usb_audio/sc_usb_audio/module_usb_audio/main.xc"
	.byte	0
	.long	418
	.long	418
	.long	.Lxtalabel10
.cc_bottom cc_74
.cc_top cc_75,.Lxtalabel11
	.ascii	"/Users/rcalhoun/code/git/sw_usb_audio/sc_usb_audio/module_usb_audio/main.xc"
	.byte	0
	.long	429
	.long	430
	.long	.Lxtalabel11
.cc_bottom cc_75
.cc_top cc_76,.Lxtalabel10
	.ascii	"/Users/rcalhoun/code/git/sw_usb_audio/sc_usb_audio/module_usb_audio/main.xc"
	.byte	0
	.long	429
	.long	430
	.long	.Lxtalabel10
.cc_bottom cc_76
.cc_top cc_77,.Lxtalabel11
	.ascii	"/Users/rcalhoun/code/git/sw_usb_audio/sc_usb_audio/module_usb_audio/main.xc"
	.byte	0
	.long	439
	.long	440
	.long	.Lxtalabel11
.cc_bottom cc_77
.cc_top cc_78,.Lxtalabel10
	.ascii	"/Users/rcalhoun/code/git/sw_usb_audio/sc_usb_audio/module_usb_audio/main.xc"
	.byte	0
	.long	439
	.long	440
	.long	.Lxtalabel10
.cc_bottom cc_78
.cc_top cc_79,.Lxtalabel11
	.ascii	"/Users/rcalhoun/code/git/sw_usb_audio/sc_usb_audio/module_usb_audio/main.xc"
	.byte	0
	.long	446
	.long	446
	.long	.Lxtalabel11
.cc_bottom cc_79
.cc_top cc_80,.Lxtalabel10
	.ascii	"/Users/rcalhoun/code/git/sw_usb_audio/sc_usb_audio/module_usb_audio/main.xc"
	.byte	0
	.long	446
	.long	446
	.long	.Lxtalabel10
.cc_bottom cc_80
.cc_top cc_81,.Lxtalabel10
	.ascii	"/Users/rcalhoun/code/git/sw_usb_audio/sc_usb_audio/module_usb_audio/main.xc"
	.byte	0
	.long	453
	.long	453
	.long	.Lxtalabel10
.cc_bottom cc_81
.cc_top cc_82,.Lxtalabel11
	.ascii	"/Users/rcalhoun/code/git/sw_usb_audio/sc_usb_audio/module_usb_audio/main.xc"
	.byte	0
	.long	453
	.long	453
	.long	.Lxtalabel11
.cc_bottom cc_82
.cc_top cc_83,.Lxtalabel11
	.ascii	"/Users/rcalhoun/code/git/sw_usb_audio/sc_usb_audio/module_usb_audio/main.xc"
	.byte	0
	.long	455
	.long	455
	.long	.Lxtalabel11
.cc_bottom cc_83
.cc_top cc_84,.Lxtalabel10
	.ascii	"/Users/rcalhoun/code/git/sw_usb_audio/sc_usb_audio/module_usb_audio/main.xc"
	.byte	0
	.long	455
	.long	455
	.long	.Lxtalabel10
.cc_bottom cc_84
.cc_top cc_85,.Lxtalabel11
	.ascii	"/Users/rcalhoun/code/git/sw_usb_audio/sc_usb_audio/module_usb_audio/main.xc"
	.byte	0
	.long	458
	.long	458
	.long	.Lxtalabel11
.cc_bottom cc_85
.cc_top cc_86,.Lxtalabel10
	.ascii	"/Users/rcalhoun/code/git/sw_usb_audio/sc_usb_audio/module_usb_audio/main.xc"
	.byte	0
	.long	458
	.long	458
	.long	.Lxtalabel10
.cc_bottom cc_86
.cc_top cc_87,.Lxtalabel11
	.ascii	"/Users/rcalhoun/code/git/sw_usb_audio/sc_usb_audio/module_usb_audio/main.xc"
	.byte	0
	.long	460
	.long	461
	.long	.Lxtalabel11
.cc_bottom cc_87
.cc_top cc_88,.Lxtalabel10
	.ascii	"/Users/rcalhoun/code/git/sw_usb_audio/sc_usb_audio/module_usb_audio/main.xc"
	.byte	0
	.long	460
	.long	461
	.long	.Lxtalabel10
.cc_bottom cc_88
.cc_top cc_89,.Lxtalabel10
	.ascii	"/Users/rcalhoun/code/git/sw_usb_audio/sc_usb_audio/module_usb_audio/main.xc"
	.byte	0
	.long	473
	.long	474
	.long	.Lxtalabel10
.cc_bottom cc_89
.cc_top cc_90,.Lxtalabel11
	.ascii	"/Users/rcalhoun/code/git/sw_usb_audio/sc_usb_audio/module_usb_audio/main.xc"
	.byte	0
	.long	473
	.long	474
	.long	.Lxtalabel11
.cc_bottom cc_90
.Lentries_end3:
	.section	.trap_info,"",@progbits
.Ltrap_info_entries_start0:
	.long	.Ltrap_info_entries_end0-.Ltrap_info_entries_start0
	.long	1
	.section	.trap_info_str,"MS",@progbits
.Ltrap_info_str0:
.asciiz"/Users/rcalhoun/code/git/sw_usb_audio/sc_usb_audio/module_usb_audio/main.xc:383:110: error: passing null argument to a non-null parameter\n            Endpoint0( c_xud_out[0], c_xud_in[0], c_aud_ctl, c_mix_ctl, c_clk_ctl, c_EANativeTransport_ctrl, dfuInterface);\n                                                                                                             ^~~~~~~~~~~~\n"
	.section	.trap_info,"",@progbits
.cc_top cc_trapinfo_0,.Ltrap_info0
	.long	.Ltrap_info0
	.long	.Ltrap_info_str0
.cc_bottom cc_trapinfo_0
	.section	.trap_info_str,"MS",@progbits
.Ltrap_info_str1:
.asciiz"/Users/rcalhoun/code/git/sw_usb_audio/sc_usb_audio/module_usb_audio/main.xc:383:110: error: passing null argument to a non-null parameter\n            Endpoint0( c_xud_out[0], c_xud_in[0], c_aud_ctl, c_mix_ctl, c_clk_ctl, c_EANativeTransport_ctrl, dfuInterface);\n                                                                                                             ^~~~~~~~~~~~\n"
	.section	.trap_info,"",@progbits
.cc_top cc_trapinfo_1,.Ltrap_info1
	.long	.Ltrap_info1
	.long	.Ltrap_info_str1
.cc_bottom cc_trapinfo_1
.Ltrap_info_entries_end0: