	.text
	.file	"/Users/rcalhoun/code/git/sw_usb_audio/sc_usb_audio/module_usb_audio/pdm_mics/pcm_pdm_mic.xc"
                                        # Start of file scope inline assembly
	.inline_definition delay_seconds
	.inline_definition delay_milliseconds
	.inline_definition delay_microseconds
	.inline_definition _safe_memcmp
	.inline_definition _safe_memmove
	.inline_definition _safe_memset
	.globalresource 0x10600,"p_pdm_clk","tile[0]"
	.globalresource 0x80100,"p_pdm_mics","tile[0]"
	.globalresource 0x10400,"p_mclk","tile[0]"
	.globalresource 0x306,"pdmclk","tile[0]"
	.set pcm_pdm_mic.savedstate,10
	.globl pcm_pdm_mic.savedstate
	.pushsection .netinfo, "", @netinfo
	.int      0x1eaba15c
.globl p_pdm_clk.info, "i:p"
p_pdm_clk.info:
	.int 0x00010600
	.long tile + 0
.globl p_pdm_mics.info, "bi:p:32"
p_pdm_mics.info:
	.int 0x00080100
	.long tile + 0
.globl p_mclk.info, "i:p"
p_mclk.info:
	.int 0x00010400
	.long tile + 0
.globl pdmclk.info, "ck"
pdmclk.info:
	.int 0x00000306
	.long tile + 0
	.popsection
	.set usage.anon.0,0
	.set usage.anon.1,0
	.set usage.anon.2,0
	.set usage.anon.3,0
	.set usage.anon.4,0
	.set usage.anon.5,0
	.set usage.anon.6,0
	.globread pdm_process,data_1,"/Users/rcalhoun/code/git/sw_usb_audio/sc_usb_audio/module_usb_audio/pdm_mics/pcm_pdm_mic.xc:55:91: note: object used here\n            mic_array_decimator_config_t dc[2] = {{&dcc, data_0, {0, 0, 0, 0}, 4}, {&dcc, data_1, {0, 0, 0, 0}, 4}};\n                                                                                          ^~~~~~"
	.globread pdm_process,data_0,"/Users/rcalhoun/code/git/sw_usb_audio/sc_usb_audio/module_usb_audio/pdm_mics/pcm_pdm_mic.xc:55:58: note: object used here\n            mic_array_decimator_config_t dc[2] = {{&dcc, data_0, {0, 0, 0, 0}, 4}, {&dcc, data_1, {0, 0, 0, 0}, 4}};\n                                                         ^~~~~~"
	.globread pdm_process,g_third_stage_div_12_fir,"/Users/rcalhoun/code/git/sw_usb_audio/sc_usb_audio/module_usb_audio/pdm_mics/pcm_pdm_mic.xc:52:154: note: object used here\n            const int * unsafe fir_coefs[7] = {0, g_third_stage_div_2_fir, g_third_stage_div_4_fir, g_third_stage_div_6_fir, g_third_stage_div_8_fir, 0, g_third_stage_div_12_fir};\n                                                                                                                                                         ^~~~~~~~~~~~~~~~~~~~~~~~"
	.globread pdm_process,g_third_stage_div_8_fir,"/Users/rcalhoun/code/git/sw_usb_audio/sc_usb_audio/module_usb_audio/pdm_mics/pcm_pdm_mic.xc:52:126: note: object used here\n            const int * unsafe fir_coefs[7] = {0, g_third_stage_div_2_fir, g_third_stage_div_4_fir, g_third_stage_div_6_fir, g_third_stage_div_8_fir, 0, g_third_stage_div_12_fir};\n                                                                                                                             ^~~~~~~~~~~~~~~~~~~~~~~"
	.globread pdm_process,g_third_stage_div_6_fir,"/Users/rcalhoun/code/git/sw_usb_audio/sc_usb_audio/module_usb_audio/pdm_mics/pcm_pdm_mic.xc:52:101: note: object used here\n            const int * unsafe fir_coefs[7] = {0, g_third_stage_div_2_fir, g_third_stage_div_4_fir, g_third_stage_div_6_fir, g_third_stage_div_8_fir, 0, g_third_stage_div_12_fir};\n                                                                                                    ^~~~~~~~~~~~~~~~~~~~~~~"
	.globread pdm_process,g_third_stage_div_4_fir,"/Users/rcalhoun/code/git/sw_usb_audio/sc_usb_audio/module_usb_audio/pdm_mics/pcm_pdm_mic.xc:52:76: note: object used here\n            const int * unsafe fir_coefs[7] = {0, g_third_stage_div_2_fir, g_third_stage_div_4_fir, g_third_stage_div_6_fir, g_third_stage_div_8_fir, 0, g_third_stage_div_12_fir};\n                                                                           ^~~~~~~~~~~~~~~~~~~~~~~"
	.globread pdm_process,g_third_stage_div_2_fir,"/Users/rcalhoun/code/git/sw_usb_audio/sc_usb_audio/module_usb_audio/pdm_mics/pcm_pdm_mic.xc:52:51: note: object used here\n            const int * unsafe fir_coefs[7] = {0, g_third_stage_div_2_fir, g_third_stage_div_4_fir, g_third_stage_div_6_fir, g_third_stage_div_8_fir, 0, g_third_stage_div_12_fir};\n                                                  ^~~~~~~~~~~~~~~~~~~~~~~"
	.globwrite pcm_pdm_mic,pdmclk,"/Users/rcalhoun/code/git/sw_usb_audio/sc_usb_audio/module_usb_audio/pdm_mics/pcm_pdm_mic.xc:98:32: note: object used here\n    configure_clock_src_divide(pdmclk, p_mclk, 2);\n                               ^~~~~~"
	.globwrite pcm_pdm_mic,p_mclk,"/Users/rcalhoun/code/git/sw_usb_audio/sc_usb_audio/module_usb_audio/pdm_mics/pcm_pdm_mic.xc:98:40: note: object used here\n    configure_clock_src_divide(pdmclk, p_mclk, 2);\n                                       ^~~~~~"
	.globwrite pcm_pdm_mic,p_pdm_mics,"/Users/rcalhoun/code/git/sw_usb_audio/sc_usb_audio/module_usb_audio/pdm_mics/pcm_pdm_mic.xc:100:23: note: object used here\n    configure_in_port(p_pdm_mics, pdmclk);\n                      ^~~~~~~~~~"
	.globwrite pcm_pdm_mic,p_pdm_clk,"/Users/rcalhoun/code/git/sw_usb_audio/sc_usb_audio/module_usb_audio/pdm_mics/pcm_pdm_mic.xc:99:33: note: object used here\n    configure_port_clock_output(p_pdm_clk, pdmclk);\n                                ^~~~~~~~~"
	.globwrite usage.anon.6,p_pdm_mics,"/Users/rcalhoun/code/git/sw_usb_audio/sc_usb_audio/module_usb_audio/pdm_mics/pcm_pdm_mic.xc:105:26: note: object used here\n        mic_array_pdm_rx(p_pdm_mics, c_4x_pdm_mic_0, c_4x_pdm_mic_1);\n                         ^~~~~~~~~~"
	.globwrite pdm_process,mic_audio,"/Users/rcalhoun/code/git/sw_usb_audio/sc_usb_audio/module_usb_audio/pdm_mics/pcm_pdm_mic.xc:58:66: note: object used here\n        mic_array_init_time_domain_frame(c_ds_output, 2, buffer, mic_audio, dc);\n                                                                 ^~~~~~~~~"
	.call pcm_pdm_mic,usage.anon.6
	.call pcm_pdm_mic,pdm_process
	.call pcm_pdm_mic,mic_array_decimate_to_pcm_4ch
	.call pcm_pdm_mic,configure_port_clock_output
	.call pcm_pdm_mic,configure_in_port
	.call pcm_pdm_mic,configure_clock_src_divide
	.call usage.anon.6,mic_array_pdm_rx
	.call pdm_process,user_pdm_process
	.call pdm_process,user_pdm_init
	.call pdm_process,mic_array_init_time_domain_frame
	.call pdm_process,mic_array_get_next_time_domain_frame
	.call pdm_process,mic_array_decimator_configure
	.call usage.anon.5,memset
	.call usage.anon.4,memmove
	.call usage.anon.3,memcmp
	.call usage.anon.2,delay_ticks_longlong
	.call usage.anon.1,delay_ticks_longlong
	.call usage.anon.0,delay_ticks_longlong
	.par usage.anon.6,mic_array_decimate_to_pcm_4ch,"/Users/rcalhoun/code/git/sw_usb_audio/sc_usb_audio/module_usb_audio/pdm_mics/pcm_pdm_mic.xc:103:5: error: use of `%s\' violates parallel usage rules\n    par\n    ^~~"
	.par usage.anon.6,mic_array_decimate_to_pcm_4ch,"/Users/rcalhoun/code/git/sw_usb_audio/sc_usb_audio/module_usb_audio/pdm_mics/pcm_pdm_mic.xc:103:5: error: use of `%s\' violates parallel usage rules\n    par\n    ^~~"
	.par usage.anon.6,pdm_process,"/Users/rcalhoun/code/git/sw_usb_audio/sc_usb_audio/module_usb_audio/pdm_mics/pcm_pdm_mic.xc:103:5: error: use of `%s\' violates parallel usage rules\n    par\n    ^~~"
	.par mic_array_decimate_to_pcm_4ch,mic_array_decimate_to_pcm_4ch,"/Users/rcalhoun/code/git/sw_usb_audio/sc_usb_audio/module_usb_audio/pdm_mics/pcm_pdm_mic.xc:103:5: error: use of `%s\' violates parallel usage rules\n    par\n    ^~~"
	.par mic_array_decimate_to_pcm_4ch,pdm_process,"/Users/rcalhoun/code/git/sw_usb_audio/sc_usb_audio/module_usb_audio/pdm_mics/pcm_pdm_mic.xc:103:5: error: use of `%s\' violates parallel usage rules\n    par\n    ^~~"
	.par mic_array_decimate_to_pcm_4ch,pdm_process,"/Users/rcalhoun/code/git/sw_usb_audio/sc_usb_audio/module_usb_audio/pdm_mics/pcm_pdm_mic.xc:103:5: error: use of `%s\' violates parallel usage rules\n    par\n    ^~~"
	.set pdm_process.locnoside, 0
	.set pcm_pdm_mic.locnoside, 0
	.set pcm_pdm_mic.locnochandec, 0
	.set pdm_process.locnoglobalaccess, 0
	.set pcm_pdm_mic.locnoglobalaccess, 0
	.assert 1,memset.actnoglobalaccess,"In file included from /Users/rcalhoun/code/git/sw_usb_audio/sc_usb_audio/module_usb_audio/pdm_mics/pcm_pdm_mic.xc:12:\nIn file included from /Applications/XMOS_XTC_15.1.4/target/include/xc/string.h:5:\n/Applications/XMOS_XTC_15.1.4/target/include/xc/safe/string.h:21:3: error: passing non-local alias to function `memset\' which accesses a global variable\n  memset(s, c, n);\n  ^~~~~~~~~~~~~~~"
	.assert 1,memmove.actnoglobalaccess,"In file included from /Users/rcalhoun/code/git/sw_usb_audio/sc_usb_audio/module_usb_audio/pdm_mics/pcm_pdm_mic.xc:12:\nIn file included from /Applications/XMOS_XTC_15.1.4/target/include/xc/string.h:5:\n/Applications/XMOS_XTC_15.1.4/target/include/xc/safe/string.h:15:3: error: passing non-local alias to function `memmove\' which accesses a global variable\n  memmove(s1, s2, n);\n  ^~~~~~~~~~~~~~~~~~"
	.globpassesref mic_array_pdm_rx, p_pdm_mics,"/Users/rcalhoun/code/git/sw_usb_audio/sc_usb_audio/module_usb_audio/pdm_mics/pcm_pdm_mic.xc:105:9: error: call to `mic_array_pdm_rx\' in `pcm_pdm_mic\' makes alias of global \'p_pdm_mics\'\n        mic_array_pdm_rx(p_pdm_mics, c_4x_pdm_mic_0, c_4x_pdm_mic_1);\n        ^~~~~~~~~~~~~~~~~~~~~~~~~~~~~~~~~~~~~~~~~~~~~~~~~~~~~~~~~~~~"
	.globpassesref configure_in_port, pdmclk,"/Users/rcalhoun/code/git/sw_usb_audio/sc_usb_audio/module_usb_audio/pdm_mics/pcm_pdm_mic.xc:100:5: error: call to `configure_in_port\' in `pcm_pdm_mic\' makes alias of global \'pdmclk\'\n    configure_in_port(p_pdm_mics, pdmclk);\n    ^~~~~~~~~~~~~~~~~~~~~~~~~~~~~~~~~~~~~"
	.globpassesref configure_in_port, p_pdm_mics,"/Users/rcalhoun/code/git/sw_usb_audio/sc_usb_audio/module_usb_audio/pdm_mics/pcm_pdm_mic.xc:100:5: error: call to `configure_in_port\' in `pcm_pdm_mic\' makes alias of global \'p_pdm_mics\'\n    configure_in_port(p_pdm_mics, pdmclk);\n    ^~~~~~~~~~~~~~~~~~~~~~~~~~~~~~~~~~~~~"
	.globpassesref configure_port_clock_output, pdmclk,"/Users/rcalhoun/code/git/sw_usb_audio/sc_usb_audio/module_usb_audio/pdm_mics/pcm_pdm_mic.xc:99:5: error: call to `configure_port_clock_output\' in `pcm_pdm_mic\' makes alias of global \'pdmclk\'\n    configure_port_clock_output(p_pdm_clk, pdmclk);\n    ^~~~~~~~~~~~~~~~~~~~~~~~~~~~~~~~~~~~~~~~~~~~~~"
	.globpassesref configure_port_clock_output, p_pdm_clk,"/Users/rcalhoun/code/git/sw_usb_audio/sc_usb_audio/module_usb_audio/pdm_mics/pcm_pdm_mic.xc:99:5: error: call to `configure_port_clock_output\' in `pcm_pdm_mic\' makes alias of global \'p_pdm_clk\'\n    configure_port_clock_output(p_pdm_clk, pdmclk);\n    ^~~~~~~~~~~~~~~~~~~~~~~~~~~~~~~~~~~~~~~~~~~~~~"
	.globpassesref configure_clock_src_divide, p_mclk,"/Users/rcalhoun/code/git/sw_usb_audio/sc_usb_audio/module_usb_audio/pdm_mics/pcm_pdm_mic.xc:98:5: error: call to `configure_clock_src_divide\' in `pcm_pdm_mic\' makes alias of global \'p_mclk\'\n    configure_clock_src_divide(pdmclk, p_mclk, 2);\n    ^~~~~~~~~~~~~~~~~~~~~~~~~~~~~~~~~~~~~~~~~~~~~"
	.globpassesref configure_clock_src_divide, pdmclk,"/Users/rcalhoun/code/git/sw_usb_audio/sc_usb_audio/module_usb_audio/pdm_mics/pcm_pdm_mic.xc:98:5: error: call to `configure_clock_src_divide\' in `pcm_pdm_mic\' makes alias of global \'pdmclk\'\n    configure_clock_src_divide(pdmclk, p_mclk, 2);\n    ^~~~~~~~~~~~~~~~~~~~~~~~~~~~~~~~~~~~~~~~~~~~~"
	.globpassesref mic_array_init_time_domain_frame, mic_audio,"/Users/rcalhoun/code/git/sw_usb_audio/sc_usb_audio/module_usb_audio/pdm_mics/pcm_pdm_mic.xc:58:9: error: call to `mic_array_init_time_domain_frame\' in `pdm_process\' makes alias of global \'mic_audio\'\n        mic_array_init_time_domain_frame(c_ds_output, 2, buffer, mic_audio, dc);\n        ^~~~~~~~~~~~~~~~~~~~~~~~~~~~~~~~~~~~~~~~~~~~~~~~~~~~~~~~~~~~~~~~~~~~~~~"
	.overlay_subgraph_conflict pcm_pdm_mic.task.mic_array_pdm_rx.0, pcm_pdm_mic.task.mic_array_decimate_to_pcm_4ch.1, pcm_pdm_mic.task.mic_array_decimate_to_pcm_4ch.2, pcm_pdm_mic.task.pdm_process.3

                                        # End of file scope inline assembly
	.section	.cp.rodata.cst4,"aMc",@progbits,4
	.cc_top .LCPI0_0.data,.LCPI0_0
	.align	4
	.type	.LCPI0_0,@object
	.size	.LCPI0_0, 4
.LCPI0_0:
	.long	96000                   # 0x17700
	.cc_bottom .LCPI0_0.data
	.cc_top .LCPI0_1.data,.LCPI0_1
	.align	4
	.type	.LCPI0_1,@object
	.size	.LCPI0_1, 4
.LCPI0_1:
	.long	4294967292              # 0xfffffffc
	.cc_bottom .LCPI0_1.data
	.text
	.globl	pdm_process
	.align	4
	.type	pdm_process,@function
	.cc_top pdm_process.function,pdm_process
pdm_process:                            # @pdm_process
.Lfunc_begin0:
	.loc	1 36 0                  # /Users/rcalhoun/code/git/sw_usb_audio/sc_usb_audio/module_usb_audio/pdm_mics/pcm_pdm_mic.xc:36:0
	.cfi_startproc
	.issue_mode dual
# BB#0:                                 # %allocas
.Lxtalabel0:
	{
		nop
		dualentsp 54
	}
.Ltmp0:
	.cfi_def_cfa_offset 216
.Ltmp1:
	.cfi_offset 15, 0
	{
		nop
		stw r4, sp[46]
	}
	{
		nop
		stw r5, sp[47]
	}
.Ltmp2:
	.cfi_offset 4, -32
.Ltmp3:
	.cfi_offset 5, -28
	{
		nop
		stw r6, sp[48]
	}
	{
		nop
		stw r7, sp[49]
	}
.Ltmp4:
	.cfi_offset 6, -24
.Ltmp5:
	.cfi_offset 7, -20
	{
		nop
		stw r8, sp[50]
	}
	{
		nop
		stw r9, sp[51]
	}
.Ltmp6:
	.cfi_offset 8, -16
.Ltmp7:
	.cfi_offset 9, -12
.Ltmp8:
	.cfi_offset 10, -8
	#DEBUG_VALUE: pdm_process:c_ds_output <- R0
	#DEBUG_VALUE: pdm_process:c_audio <- R1
.Ltmp9:
	#DEBUG_VALUE: pdm_process:c_audio <- R4
	{
		mov r4, r1
		stw r10, sp[52]
	}
.Ltmp10:
	#DEBUG_VALUE: buffer <- 1
	#DEBUG_VALUE: pdm_process:c_ds_output <- R5
	{
		mov r5, r0
		mkmsk r6, 1
	}
.Ltmp11:
	{
		nop
		stw r6, sp[45]
	}
	.loc	1 40 0 prologue_end     # /Users/rcalhoun/code/git/sw_usb_audio/sc_usb_audio/module_usb_audio/pdm_mics/pcm_pdm_mic.xc:40:0
.Ltmp12:
.Lxta.call_labels0:
	bl user_pdm_init
	.loc	1 46 0                  # /Users/rcalhoun/code/git/sw_usb_audio/sc_usb_audio/module_usb_audio/pdm_mics/pcm_pdm_mic.xc:46:0
.Ltmp13:
	{
		chkct res[r4], 1
		nop
	}
	.loc	1 46 0                  # /Users/rcalhoun/code/git/sw_usb_audio/sc_usb_audio/module_usb_audio/pdm_mics/pcm_pdm_mic.xc:46:0
	{
		outct res[r4], 1
		nop
	}
	.loc	1 46 0                  # /Users/rcalhoun/code/git/sw_usb_audio/sc_usb_audio/module_usb_audio/pdm_mics/pcm_pdm_mic.xc:46:0
.Lxta.endpoint_labels0:
	{
		in r0, res[r4]
		nop
	}
.Ltmp14:
	#DEBUG_VALUE: samplerate <- R0
	.loc	1 46 0                  # /Users/rcalhoun/code/git/sw_usb_audio/sc_usb_audio/module_usb_audio/pdm_mics/pcm_pdm_mic.xc:46:0
	{
		chkct res[r4], 1
		nop
	}
	.loc	1 46 0                  # /Users/rcalhoun/code/git/sw_usb_audio/sc_usb_audio/module_usb_audio/pdm_mics/pcm_pdm_mic.xc:46:0
	{
		outct res[r4], 1
		nop
	}
	ldw r1, cp[.LCPI0_0]
	.loc	1 48 0                  # /Users/rcalhoun/code/git/sw_usb_audio/sc_usb_audio/module_usb_audio/pdm_mics/pcm_pdm_mic.xc:48:0
.Ltmp15:
	divu r0, r1, r0
.Ltmp16:
	#DEBUG_VALUE: decimationfactor <- R0
	{
		ldc r3, 0
		nop
	}
	{
		nop
		stw r3, sp[27]
	}
	{
		nop
		stw r6, sp[28]
	}
	{
		nop
		stw r3, sp[29]
	}
	{
		nop
		stw r3, sp[30]
	}
	.loc	1 54 0                  # /Users/rcalhoun/code/git/sw_usb_audio/sc_usb_audio/module_usb_audio/pdm_mics/pcm_pdm_mic.xc:54:0
.Ltmp17:
	{
		shr r1, r0, 1
		stw r0, sp[31]
	}
	{
		ldc r2, 6
		nop
	}
	.loc	1 54 0                  # /Users/rcalhoun/code/git/sw_usb_audio/sc_usb_audio/module_usb_audio/pdm_mics/pcm_pdm_mic.xc:54:0
	{
		lsu r1, r2, r1
		nop
	}
.Ltrap_info0:
	{
		ecallt r1
		nop
	}
.Ltmp18:
	#DEBUG_VALUE: pdm_process:c_ds_output <- R5
	#DEBUG_VALUE: pdm_process:c_audio <- R4
	#DEBUG_VALUE: buffer <- 1
	#DEBUG_VALUE: decimationfactor <- R0
	.loc	1 62 0                  # /Users/rcalhoun/code/git/sw_usb_audio/sc_usb_audio/module_usb_audio/pdm_mics/pcm_pdm_mic.xc:62:0
	{
		add r1, r5, 8
		stw r5, sp[12]
	}
	.loc	1 62 0                  # /Users/rcalhoun/code/git/sw_usb_audio/sc_usb_audio/module_usb_audio/pdm_mics/pcm_pdm_mic.xc:62:0
	ldaw r8, dp[mic_audio]
	{
		lsu r1, r8, r1
		nop
	}
	ldaw r2, dp[mic_audio+144]
.Ltmp19:
	#DEBUG_VALUE: pdm_process:c_ds_output <- [SP+48]
	{
		mov r11, r3
		lsu r3, r5, r2
	}
	.loc	1 62 0                  # /Users/rcalhoun/code/git/sw_usb_audio/sc_usb_audio/module_usb_audio/pdm_mics/pcm_pdm_mic.xc:62:0
	{
		and r1, r1, r3
		nop
	}
	.loc	1 62 0                  # /Users/rcalhoun/code/git/sw_usb_audio/sc_usb_audio/module_usb_audio/pdm_mics/pcm_pdm_mic.xc:62:0
	{
		ldaw r1, sp[46]
		stw r1, sp[11]
	}
	.loc	1 62 0                  # /Users/rcalhoun/code/git/sw_usb_audio/sc_usb_audio/module_usb_audio/pdm_mics/pcm_pdm_mic.xc:62:0
	{
		lsu r1, r8, r1
		ldaw r3, sp[45]
	}
	.loc	1 62 0                  # /Users/rcalhoun/code/git/sw_usb_audio/sc_usb_audio/module_usb_audio/pdm_mics/pcm_pdm_mic.xc:62:0
	{
		lsu r3, r3, r2
		nop
	}
	.loc	1 62 0                  # /Users/rcalhoun/code/git/sw_usb_audio/sc_usb_audio/module_usb_audio/pdm_mics/pcm_pdm_mic.xc:62:0
	{
		and r1, r1, r3
		nop
	}
	{
		mov r3, r11
		stw r1, sp[10]
	}
	.loc	1 62 0                  # /Users/rcalhoun/code/git/sw_usb_audio/sc_usb_audio/module_usb_audio/pdm_mics/pcm_pdm_mic.xc:62:0
	{
		ldaw r1, sp[27]
		ldaw r9, sp[13]
	}
	.loc	1 62 0                  # /Users/rcalhoun/code/git/sw_usb_audio/sc_usb_audio/module_usb_audio/pdm_mics/pcm_pdm_mic.xc:62:0
	{
		lsu r2, r9, r2
		lsu r1, r8, r1
	}
	.loc	1 62 0                  # /Users/rcalhoun/code/git/sw_usb_audio/sc_usb_audio/module_usb_audio/pdm_mics/pcm_pdm_mic.xc:62:0
	{
		and r1, r2, r1
		nop
	}
	{
		ldc r6, 2
		stw r1, sp[9]
	}
	{
		ldaw r10, sp[37]
		ldc r7, 8
	}
	bu .LBB0_2
.Ltmp20:
.LBB0_1:                                # %LoopBody.loopexit
                                        #   in Loop: Header=BB0_2 Depth=1
.Lxtalabel1:
	#DEBUG_VALUE: pdm_process:c_ds_output <- [SP+48]
	#DEBUG_VALUE: pdm_process:c_audio <- R4
	#DEBUG_VALUE: buffer <- undef
	.loc	1 46 0                  # /Users/rcalhoun/code/git/sw_usb_audio/sc_usb_audio/module_usb_audio/pdm_mics/pcm_pdm_mic.xc:46:0
	{
		chkct res[r4], 1
		nop
	}
	.loc	1 46 0                  # /Users/rcalhoun/code/git/sw_usb_audio/sc_usb_audio/module_usb_audio/pdm_mics/pcm_pdm_mic.xc:46:0
	{
		outct res[r4], 1
		nop
	}
	.loc	1 46 0                  # /Users/rcalhoun/code/git/sw_usb_audio/sc_usb_audio/module_usb_audio/pdm_mics/pcm_pdm_mic.xc:46:0
.Lxta.endpoint_labels1:
	{
		in r0, res[r4]
		nop
	}
.Ltmp21:
	#DEBUG_VALUE: samplerate <- R0
	.loc	1 46 0                  # /Users/rcalhoun/code/git/sw_usb_audio/sc_usb_audio/module_usb_audio/pdm_mics/pcm_pdm_mic.xc:46:0
	{
		chkct res[r4], 1
		nop
	}
	.loc	1 46 0                  # /Users/rcalhoun/code/git/sw_usb_audio/sc_usb_audio/module_usb_audio/pdm_mics/pcm_pdm_mic.xc:46:0
	{
		outct res[r4], 1
		nop
	}
	ldw r1, cp[.LCPI0_0]
	.loc	1 48 0                  # /Users/rcalhoun/code/git/sw_usb_audio/sc_usb_audio/module_usb_audio/pdm_mics/pcm_pdm_mic.xc:48:0
.Ltmp22:
	divu r0, r1, r0
.Ltmp23:
	.loc	1 54 0                  # /Users/rcalhoun/code/git/sw_usb_audio/sc_usb_audio/module_usb_audio/pdm_mics/pcm_pdm_mic.xc:54:0
	{
		mkmsk r1, 1
		stw r3, sp[27]
	}
	{
		nop
		stw r1, sp[28]
	}
	{
		nop
		stw r3, sp[29]
	}
	{
		nop
		stw r3, sp[30]
	}
	.loc	1 54 0                  # /Users/rcalhoun/code/git/sw_usb_audio/sc_usb_audio/module_usb_audio/pdm_mics/pcm_pdm_mic.xc:54:0
	{
		shr r1, r0, 1
		stw r0, sp[31]
	}
	{
		ldc r2, 6
		nop
	}
	.loc	1 54 0                  # /Users/rcalhoun/code/git/sw_usb_audio/sc_usb_audio/module_usb_audio/pdm_mics/pcm_pdm_mic.xc:54:0
	{
		lsu r1, r2, r1
		nop
	}
.Ltrap_info1:
	{
		ecallt r1
		nop
	}
.Ltmp24:
.LBB0_2:                                # %afterboundcheck
                                        # =>This Loop Header: Depth=1
                                        #     Child Loop BB0_3 Depth 2
                                        #       Child Loop BB0_4 Depth 3
	#DEBUG_VALUE: pdm_process:c_ds_output <- [SP+48]
	#DEBUG_VALUE: pdm_process:c_audio <- R4
	#DEBUG_VALUE: buffer <- 1
	#DEBUG_VALUE: decimationfactor <- R0
	.loc	1 54 0                  # /Users/rcalhoun/code/git/sw_usb_audio/sc_usb_audio/module_usb_audio/pdm_mics/pcm_pdm_mic.xc:54:0
	{
		shl r0, r0, 1
		nop
	}
.Ltmp25:
	ldw r1, cp[.LCPI0_1]
	.loc	1 54 0                  # /Users/rcalhoun/code/git/sw_usb_audio/sc_usb_audio/module_usb_audio/pdm_mics/pcm_pdm_mic.xc:54:0
	{
		and r0, r0, r1
		nop
	}
	.loc	1 54 0                  # /Users/rcalhoun/code/git/sw_usb_audio/sc_usb_audio/module_usb_audio/pdm_mics/pcm_pdm_mic.xc:54:0
	ldaw r11, cp[pdm_process.0.init]
	{
		add r0, r11, r0
		nop
	}
	{
		nop
		ldw r0, r0[0]
	}
	{
		nop
		stw r0, sp[32]
	}
	{
		nop
		stw r3, sp[33]
	}
	{
		nop
		stw r3, sp[34]
	}
	.loc	1 54 0                  # /Users/rcalhoun/code/git/sw_usb_audio/sc_usb_audio/module_usb_audio/pdm_mics/pcm_pdm_mic.xc:54:0
	{
		mov r5, r6
		stw r3, sp[35]
	}
.Ltmp26:
	#DEBUG_VALUE: dcc <- [SP+24]
	.loc	1 54 0                  # /Users/rcalhoun/code/git/sw_usb_audio/sc_usb_audio/module_usb_audio/pdm_mics/pcm_pdm_mic.xc:54:0
	{
		ldaw r0, sp[27]
		stw r5, sp[36]
	}
	{
		mov r1, r0
		nop
	}
.Ltmp27:
	#DEBUG_VALUE: dcc <- [R1+0]
	{
		nop
		stw r1, sp[13]
	}
	.loc	1 55 0                  # /Users/rcalhoun/code/git/sw_usb_audio/sc_usb_audio/module_usb_audio/pdm_mics/pcm_pdm_mic.xc:55:0
.Ltmp28:
	ldaw r0, dp[data_0]
	{
		ldaw r0, sp[15]
		stw r0, sp[14]
	}
	{
		nop
		stw r3, r0[3]
	}
	{
		nop
		stw r3, r0[2]
	}
	{
		nop
		stw r3, r0[1]
	}
	.loc	1 55 0                  # /Users/rcalhoun/code/git/sw_usb_audio/sc_usb_audio/module_usb_audio/pdm_mics/pcm_pdm_mic.xc:55:0
	{
		ldc r0, 4
		stw r3, r0[0]
	}
	{
		mov r2, r0
		nop
	}
	{
		nop
		stw r2, sp[19]
	}
	{
		nop
		stw r1, sp[20]
	}
	.loc	1 55 0                  # /Users/rcalhoun/code/git/sw_usb_audio/sc_usb_audio/module_usb_audio/pdm_mics/pcm_pdm_mic.xc:55:0
	ldaw r0, dp[data_1]
.Ltmp29:
	#DEBUG_VALUE: dcc <- [SP+24]
	{
		ldaw r0, sp[22]
		stw r0, sp[21]
	}
	{
		nop
		stw r3, r0[3]
	}
	{
		nop
		stw r3, r0[2]
	}
	{
		nop
		stw r3, r0[1]
	}
	.loc	1 55 0                  # /Users/rcalhoun/code/git/sw_usb_audio/sc_usb_audio/module_usb_audio/pdm_mics/pcm_pdm_mic.xc:55:0
	{
		ldaw r0, sp[26]
		stw r3, r0[0]
	}
	{
		nop
		stw r2, r0[0]
	}
.Ltmp30:
	#DEBUG_VALUE: dc <- [R9+0]
	#DEBUG_VALUE: pdm_process:c_ds_output <- undef
	#DEBUG_VALUE: pdm_process:c_ds_output <- [SP+48]
	.loc	1 56 0                  # /Users/rcalhoun/code/git/sw_usb_audio/sc_usb_audio/module_usb_audio/pdm_mics/pcm_pdm_mic.xc:56:0
	{
		mov r1, r9
		ldw r0, sp[12]
	}
	{
		mov r2, r5
		mov r3, r5
	}
.Lxta.call_labels1:
	bl _Smic_array_decimator_configure_0
	.loc	1 58 0                  # /Users/rcalhoun/code/git/sw_usb_audio/sc_usb_audio/module_usb_audio/pdm_mics/pcm_pdm_mic.xc:58:0
	std r5, r5, sp[1]
	{
		nop
		stw r5, sp[1]
	}
.Ltmp31:
	#DEBUG_VALUE: buffer <- undef
	#DEBUG_VALUE: pdm_process:c_ds_output <- [SP+48]
	{
		ldaw r1, sp[45]
		ldw r0, sp[12]
	}
	{
		mov r2, r8
		mov r3, r9
	}
.Lxta.call_labels2:
	bl _Smic_array_init_time_domain_frame_0
	{
		nop
		ldw r0, sp[11]
	}
.Ltrap_info2:
	{
		ecallt r0
		nop
	}
	#DEBUG_VALUE: pdm_process:c_ds_output <- [SP+48]
	#DEBUG_VALUE: pdm_process:c_audio <- R4
	{
		nop
		ldw r0, sp[10]
	}
.Ltrap_info3:
	{
		ecallt r0
		nop
	}
	#DEBUG_VALUE: pdm_process:c_ds_output <- [SP+48]
	#DEBUG_VALUE: pdm_process:c_audio <- R4
	{
		ldc r3, 0
		ldw r0, sp[9]
	}
.Ltrap_info4:
	{
		ecallt r0
		nop
	}
	bu .LBB0_3
.Ltmp32:
.LBB0_4:                                # %afterboundcheck44
                                        #   Parent Loop BB0_2 Depth=1
                                        #     Parent Loop BB0_3 Depth=2
                                        # =>    This Inner Loop Header: Depth=3
.Lxtalabel2:
	#DEBUG_VALUE: pdm_process:c_ds_output <- [SP+48]
	#DEBUG_VALUE: pdm_process:c_audio <- R4
	#DEBUG_VALUE: buffer <- undef
	.loc	1 75 45                 # /Users/rcalhoun/code/git/sw_usb_audio/sc_usb_audio/module_usb_audio/pdm_mics/pcm_pdm_mic.xc:75:45
	{
		outct res[r4], 1
		ldw r1, r10[r0]
	}
	.loc	1 75 45                 # /Users/rcalhoun/code/git/sw_usb_audio/sc_usb_audio/module_usb_audio/pdm_mics/pcm_pdm_mic.xc:75:45
	{
		chkct res[r4], 1
		nop
	}
	.loc	1 75 45                 # /Users/rcalhoun/code/git/sw_usb_audio/sc_usb_audio/module_usb_audio/pdm_mics/pcm_pdm_mic.xc:75:45
.Lxta.endpoint_labels2:
	{
		out res[r4], r1
		nop
	}
	.loc	1 75 45                 # /Users/rcalhoun/code/git/sw_usb_audio/sc_usb_audio/module_usb_audio/pdm_mics/pcm_pdm_mic.xc:75:45
	{
		outct res[r4], 1
		nop
	}
.Ltmp33:
	#DEBUG_VALUE: i <- R0
	.loc	1 75 45                 # /Users/rcalhoun/code/git/sw_usb_audio/sc_usb_audio/module_usb_audio/pdm_mics/pcm_pdm_mic.xc:75:45
	{
		chkct res[r4], 1
		add r0, r0, 1
	}
.Ltmp34:
	.loc	1 73 0                  # /Users/rcalhoun/code/git/sw_usb_audio/sc_usb_audio/module_usb_audio/pdm_mics/pcm_pdm_mic.xc:73:0
	{
		lss r1, r0, r7
		nop
	}
.Lxta.loop_labels0:
	# LOOPMARKER 0
	bt r1, .LBB0_4
.Ltmp35:
.LBB0_3:                                # %completedaliascheck29
                                        #   Parent Loop BB0_2 Depth=1
                                        # =>  This Loop Header: Depth=2
                                        #       Child Loop BB0_4 Depth 3
.Lxtalabel3:
	#DEBUG_VALUE: pdm_process:c_ds_output <- [SP+48]
	#DEBUG_VALUE: pdm_process:c_audio <- R4
	{
		mov r2, r8
		nop
	}
	ldc r0, 144
	.loc	1 62 0                  # /Users/rcalhoun/code/git/sw_usb_audio/sc_usb_audio/module_usb_audio/pdm_mics/pcm_pdm_mic.xc:62:0
	std r0, r2, sp[1]
	{
		nop
		stw r6, sp[4]
	}
	{
		nop
		stw r6, sp[1]
	}
	#DEBUG_VALUE: buffer <- undef
	{
		ldaw r1, sp[45]
		ldw r0, sp[12]
	}
	{
		mov r5, r3
		mov r3, r9
	}
.Lxta.call_labels3:
	bl _Smic_array_get_next_time_domain_frame_0
	.loc	1 67 0                  # /Users/rcalhoun/code/git/sw_usb_audio/sc_usb_audio/module_usb_audio/pdm_mics/pcm_pdm_mic.xc:67:0
.Ltmp36:
	{
		mov r1, r10
		mov r2, r7
	}
.Lxta.call_labels4:
	bl user_pdm_process
	{
		chkct res[r4], 1
		mov r3, r5
	}
	.loc	1 69 0                  # /Users/rcalhoun/code/git/sw_usb_audio/sc_usb_audio/module_usb_audio/pdm_mics/pcm_pdm_mic.xc:69:0
	{
		outct res[r4], 1
		nop
	}
	.loc	1 69 0                  # /Users/rcalhoun/code/git/sw_usb_audio/sc_usb_audio/module_usb_audio/pdm_mics/pcm_pdm_mic.xc:69:0
.Lxta.endpoint_labels3:
	{
		in r1, res[r4]
		nop
	}
.Ltmp37:
	#DEBUG_VALUE: req <- R1
	.loc	1 69 0                  # /Users/rcalhoun/code/git/sw_usb_audio/sc_usb_audio/module_usb_audio/pdm_mics/pcm_pdm_mic.xc:69:0
	{
		chkct res[r4], 1
		nop
	}
	.loc	1 69 0                  # /Users/rcalhoun/code/git/sw_usb_audio/sc_usb_audio/module_usb_audio/pdm_mics/pcm_pdm_mic.xc:69:0
	{
		outct res[r4], 1
		mov r0, r3
	}
	bf r1, .LBB0_1
	bu .LBB0_4
.Ltmp38:
	.cc_bottom pdm_process.function
	.set	pdm_process.nstackwords,((user_pdm_init.nstackwords $M _Smic_array_decimator_configure_0.nstackwords $M _Smic_array_init_time_domain_frame_0.nstackwords $M _Smic_array_get_next_time_domain_frame_0.nstackwords $M user_pdm_process.nstackwords) + 54)
	.globl	pdm_process.nstackwords
	.set	pdm_process.maxcores,_Smic_array_decimator_configure_0.maxcores $M _Smic_array_get_next_time_domain_frame_0.maxcores $M _Smic_array_init_time_domain_frame_0.maxcores $M user_pdm_init.maxcores $M user_pdm_process.maxcores $M 1
	.globl	pdm_process.maxcores
	.set	pdm_process.maxtimers,_Smic_array_decimator_configure_0.maxtimers $M _Smic_array_get_next_time_domain_frame_0.maxtimers $M _Smic_array_init_time_domain_frame_0.maxtimers $M user_pdm_init.maxtimers $M user_pdm_process.maxtimers $M 0
	.globl	pdm_process.maxtimers
	.set	pdm_process.maxchanends,_Smic_array_decimator_configure_0.maxchanends $M _Smic_array_get_next_time_domain_frame_0.maxchanends $M _Smic_array_init_time_domain_frame_0.maxchanends $M user_pdm_init.maxchanends $M user_pdm_process.maxchanends $M 0
	.globl	pdm_process.maxchanends
.Ltmp39:
	.size	pdm_process, .Ltmp39-pdm_process
.Lfunc_end0:
	.cfi_endproc

	.globl	pcm_pdm_mic
	.align	4
	.type	pcm_pdm_mic,@function
	.cc_top pcm_pdm_mic.function,pcm_pdm_mic
pcm_pdm_mic:                            # @pcm_pdm_mic
.Lfunc_begin1:
	.loc	1 93 0                  # /Users/rcalhoun/code/git/sw_usb_audio/sc_usb_audio/module_usb_audio/pdm_mics/pcm_pdm_mic.xc:93:0
	.cfi_startproc
	.issue_mode dual
# BB#0:                                 # %allocas
.Lxtalabel4:
	{
		nop
		dualentsp 12
	}
.Ltmp40:
	.cfi_def_cfa_offset 48
.Ltmp41:
	.cfi_offset 15, 0
	{
		nop
		stw r4, sp[10]
	}
.Ltmp42:
	.cfi_offset 4, -8
	{
		getr r0, 2
		stw r0, sp[1]
	}
	.loc	1 94 0 prologue_end     # /Users/rcalhoun/code/git/sw_usb_audio/sc_usb_audio/module_usb_audio/pdm_mics/pcm_pdm_mic.xc:94:0
.Ltmp43:
	{
		getr r1, 2
		nop
	}
	.loc	1 94 0                  # /Users/rcalhoun/code/git/sw_usb_audio/sc_usb_audio/module_usb_audio/pdm_mics/pcm_pdm_mic.xc:94:0
	{
		setd res[r0], r1
		nop
	}
	.loc	1 94 0                  # /Users/rcalhoun/code/git/sw_usb_audio/sc_usb_audio/module_usb_audio/pdm_mics/pcm_pdm_mic.xc:94:0
	{
		setd res[r1], r0
		stw r0, sp[2]
	}
	.loc	1 94 0                  # /Users/rcalhoun/code/git/sw_usb_audio/sc_usb_audio/module_usb_audio/pdm_mics/pcm_pdm_mic.xc:94:0
	{
		getr r0, 2
		stw r1, sp[3]
	}
	.loc	1 94 0                  # /Users/rcalhoun/code/git/sw_usb_audio/sc_usb_audio/module_usb_audio/pdm_mics/pcm_pdm_mic.xc:94:0
	{
		getr r1, 2
		nop
	}
	.loc	1 94 0                  # /Users/rcalhoun/code/git/sw_usb_audio/sc_usb_audio/module_usb_audio/pdm_mics/pcm_pdm_mic.xc:94:0
	{
		setd res[r0], r1
		nop
	}
	.loc	1 94 0                  # /Users/rcalhoun/code/git/sw_usb_audio/sc_usb_audio/module_usb_audio/pdm_mics/pcm_pdm_mic.xc:94:0
	{
		setd res[r1], r0
		stw r0, sp[4]
	}
	.loc	1 94 0                  # /Users/rcalhoun/code/git/sw_usb_audio/sc_usb_audio/module_usb_audio/pdm_mics/pcm_pdm_mic.xc:94:0
	{
		getr r0, 2
		stw r1, sp[5]
	}
	.loc	1 95 0                  # /Users/rcalhoun/code/git/sw_usb_audio/sc_usb_audio/module_usb_audio/pdm_mics/pcm_pdm_mic.xc:95:0
.Ltmp44:
	{
		getr r1, 2
		nop
	}
	.loc	1 95 0                  # /Users/rcalhoun/code/git/sw_usb_audio/sc_usb_audio/module_usb_audio/pdm_mics/pcm_pdm_mic.xc:95:0
	{
		setd res[r0], r1
		nop
	}
	.loc	1 95 0                  # /Users/rcalhoun/code/git/sw_usb_audio/sc_usb_audio/module_usb_audio/pdm_mics/pcm_pdm_mic.xc:95:0
	{
		setd res[r1], r0
		stw r0, sp[7]
	}
	.loc	1 95 0                  # /Users/rcalhoun/code/git/sw_usb_audio/sc_usb_audio/module_usb_audio/pdm_mics/pcm_pdm_mic.xc:95:0
	{
		getr r0, 2
		stw r1, sp[9]
	}
	.loc	1 95 0                  # /Users/rcalhoun/code/git/sw_usb_audio/sc_usb_audio/module_usb_audio/pdm_mics/pcm_pdm_mic.xc:95:0
	{
		getr r1, 2
		nop
	}
	.loc	1 95 0                  # /Users/rcalhoun/code/git/sw_usb_audio/sc_usb_audio/module_usb_audio/pdm_mics/pcm_pdm_mic.xc:95:0
	{
		setd res[r0], r1
		nop
	}
	.loc	1 95 0                  # /Users/rcalhoun/code/git/sw_usb_audio/sc_usb_audio/module_usb_audio/pdm_mics/pcm_pdm_mic.xc:95:0
	{
		setd res[r1], r0
		stw r0, sp[6]
	}
	{
		nop
		stw r1, sp[8]
	}
	.loc	1 98 0                  # /Users/rcalhoun/code/git/sw_usb_audio/sc_usb_audio/module_usb_audio/pdm_mics/pcm_pdm_mic.xc:98:0
	ldw r4, dp[pdmclk]
	.loc	1 98 0                  # /Users/rcalhoun/code/git/sw_usb_audio/sc_usb_audio/module_usb_audio/pdm_mics/pcm_pdm_mic.xc:98:0
	ldw r1, dp[p_mclk]
	{
		ldc r2, 2
		mov r0, r4
	}
	.loc	1 98 0                  # /Users/rcalhoun/code/git/sw_usb_audio/sc_usb_audio/module_usb_audio/pdm_mics/pcm_pdm_mic.xc:98:0
.Lxta.call_labels5:
	bl configure_clock_src_divide
	.loc	1 99 0                  # /Users/rcalhoun/code/git/sw_usb_audio/sc_usb_audio/module_usb_audio/pdm_mics/pcm_pdm_mic.xc:99:0
	ldw r0, dp[p_pdm_clk]
	.loc	1 99 0                  # /Users/rcalhoun/code/git/sw_usb_audio/sc_usb_audio/module_usb_audio/pdm_mics/pcm_pdm_mic.xc:99:0
	{
		mov r1, r4
		nop
	}
.Lxta.call_labels6:
	bl configure_port_clock_output
	.loc	1 100 0                 # /Users/rcalhoun/code/git/sw_usb_audio/sc_usb_audio/module_usb_audio/pdm_mics/pcm_pdm_mic.xc:100:0
	ldw r0, dp[p_pdm_mics]
	.loc	1 100 0                 # /Users/rcalhoun/code/git/sw_usb_audio/sc_usb_audio/module_usb_audio/pdm_mics/pcm_pdm_mic.xc:100:0
	{
		mov r1, r4
		nop
	}
.Lxta.call_labels7:
	bl configure_in_port
	.loc	1 101 0                 # /Users/rcalhoun/code/git/sw_usb_audio/sc_usb_audio/module_usb_audio/pdm_mics/pcm_pdm_mic.xc:101:0
	{
		setc res[r4], 15
		nop
	}
	.loc	1 101 0                 # /Users/rcalhoun/code/git/sw_usb_audio/sc_usb_audio/module_usb_audio/pdm_mics/pcm_pdm_mic.xc:101:0
	ldaw r1, dp[par.desc.1]
	{
		ldaw r0, sp[1]
		nop
	}
	#DEBUG_VALUE: pcm_pdm_mic:c_pcm_out <- [R0+0]
	bl __start_other_cores
.Ltmp45:
	.cc_bottom pcm_pdm_mic.function
	.set	pcm_pdm_mic.nstackwords,((configure_clock_src_divide.nstackwords $M configure_port_clock_output.nstackwords $M configure_in_port.nstackwords $M (par.extra_stackwords + pcm_pdm_mic.task.mic_array_pdm_rx.0.nstackwords + ((1 + pcm_pdm_mic.task.mic_array_decimate_to_pcm_4ch.1.nstackwords) $A 2) + ((1 + pcm_pdm_mic.task.mic_array_decimate_to_pcm_4ch.2.nstackwords) $A 2) + ((1 + pcm_pdm_mic.task.pdm_process.3.nstackwords) $A 2))) + 12)
	.globl	pcm_pdm_mic.nstackwords
	.set	pcm_pdm_mic.maxcores,(0 + pcm_pdm_mic.task.mic_array_pdm_rx.0.maxcores + pcm_pdm_mic.task.mic_array_decimate_to_pcm_4ch.1.maxcores + pcm_pdm_mic.task.mic_array_decimate_to_pcm_4ch.2.maxcores + pcm_pdm_mic.task.pdm_process.3.maxcores) $M configure_clock_src_divide.maxcores $M configure_in_port.maxcores $M configure_port_clock_output.maxcores $M 1
	.globl	pcm_pdm_mic.maxcores
	.set	pcm_pdm_mic.maxtimers,(3 + pcm_pdm_mic.task.mic_array_pdm_rx.0.maxtimers + pcm_pdm_mic.task.mic_array_decimate_to_pcm_4ch.1.maxtimers + pcm_pdm_mic.task.mic_array_decimate_to_pcm_4ch.2.maxtimers + pcm_pdm_mic.task.pdm_process.3.maxtimers) $M configure_clock_src_divide.maxtimers $M configure_in_port.maxtimers $M configure_port_clock_output.maxtimers $M 0
	.globl	pcm_pdm_mic.maxtimers
	.set	pcm_pdm_mic.maxchanends,(8 + (0 + pcm_pdm_mic.task.mic_array_pdm_rx.0.maxchanends + pcm_pdm_mic.task.mic_array_decimate_to_pcm_4ch.1.maxchanends + pcm_pdm_mic.task.mic_array_decimate_to_pcm_4ch.2.maxchanends + pcm_pdm_mic.task.pdm_process.3.maxchanends)) $M (8 + configure_clock_src_divide.maxchanends) $M (8 + configure_in_port.maxchanends) $M (8 + configure_port_clock_output.maxchanends) $M 8
	.globl	pcm_pdm_mic.maxchanends
.Ltmp46:
	.size	pcm_pdm_mic, .Ltmp46-pcm_pdm_mic
.Lfunc_end1:
	.cfi_endproc

	.align	4
	.type	pcm_pdm_mic.task.mic_array_pdm_rx.0,@function
	.cc_top pcm_pdm_mic.task.mic_array_pdm_rx.0.function,pcm_pdm_mic.task.mic_array_pdm_rx.0
pcm_pdm_mic.task.mic_array_pdm_rx.0:    # @pcm_pdm_mic.task.mic_array_pdm_rx.0
.Lfunc_begin2:
	.loc	1 105 0                 # /Users/rcalhoun/code/git/sw_usb_audio/sc_usb_audio/module_usb_audio/pdm_mics/pcm_pdm_mic.xc:105:0
	.cfi_startproc
	.issue_mode dual
# BB#0:                                 # %allocas
	{
		nop
		dualentsp 2
	}
.Ltmp47:
	.cfi_def_cfa_offset 8
.Ltmp48:
	.cfi_offset 15, 0
	#DEBUG_VALUE: pcm_pdm_mic.task.mic_array_pdm_rx.0:frame <- R0
	.loc	1 105 0 prologue_end    # /Users/rcalhoun/code/git/sw_usb_audio/sc_usb_audio/module_usb_audio/pdm_mics/pcm_pdm_mic.xc:105:0
.Ltmp49:
	ldw r3, dp[p_pdm_mics]
	{
		nop
		ldw r1, r0[1]
	}
	.loc	1 105 0                 # /Users/rcalhoun/code/git/sw_usb_audio/sc_usb_audio/module_usb_audio/pdm_mics/pcm_pdm_mic.xc:105:0
	{
		mov r0, r3
		ldw r2, r0[3]
	}
.Ltmp50:
	.loc	1 105 0                 # /Users/rcalhoun/code/git/sw_usb_audio/sc_usb_audio/module_usb_audio/pdm_mics/pcm_pdm_mic.xc:105:0
.Lxta.call_labels8:
	bl mic_array_pdm_rx
	{
		nop
		retsp 2
	}
	# RETURN_REG_HOLDER
.Ltmp51:
	.cc_bottom pcm_pdm_mic.task.mic_array_pdm_rx.0.function
	.set	pcm_pdm_mic.task.mic_array_pdm_rx.0.nstackwords,(mic_array_pdm_rx.nstackwords + 2)
	.set	pcm_pdm_mic.task.mic_array_pdm_rx.0.maxcores,mic_array_pdm_rx.maxcores $M 1
	.set	pcm_pdm_mic.task.mic_array_pdm_rx.0.maxtimers,mic_array_pdm_rx.maxtimers $M 0
	.set	pcm_pdm_mic.task.mic_array_pdm_rx.0.maxchanends,mic_array_pdm_rx.maxchanends $M 0
.Ltmp52:
	.size	pcm_pdm_mic.task.mic_array_pdm_rx.0, .Ltmp52-pcm_pdm_mic.task.mic_array_pdm_rx.0
.Lfunc_end2:
	.cfi_endproc

	.align	4
	.type	pcm_pdm_mic.task.mic_array_decimate_to_pcm_4ch.1,@function
	.cc_top pcm_pdm_mic.task.mic_array_decimate_to_pcm_4ch.1.function,pcm_pdm_mic.task.mic_array_decimate_to_pcm_4ch.1
pcm_pdm_mic.task.mic_array_decimate_to_pcm_4ch.1: # @pcm_pdm_mic.task.mic_array_decimate_to_pcm_4ch.1
.Lfunc_begin3:
	.loc	1 106 0                 # /Users/rcalhoun/code/git/sw_usb_audio/sc_usb_audio/module_usb_audio/pdm_mics/pcm_pdm_mic.xc:106:0
	.cfi_startproc
	.issue_mode dual
# BB#0:                                 # %allocas
	{
		nop
		dualentsp 2
	}
.Ltmp53:
	.cfi_def_cfa_offset 8
.Ltmp54:
	.cfi_offset 15, 0
	#DEBUG_VALUE: pcm_pdm_mic.task.mic_array_decimate_to_pcm_4ch.1:frame <- R0
	{
		nop
		ldw r2, r0[2]
	}
	.loc	1 106 0 prologue_end    # /Users/rcalhoun/code/git/sw_usb_audio/sc_usb_audio/module_usb_audio/pdm_mics/pcm_pdm_mic.xc:106:0
.Ltmp55:
	{
		mov r0, r2
		ldw r1, r0[5]
	}
.Ltmp56:
	.loc	1 106 0                 # /Users/rcalhoun/code/git/sw_usb_audio/sc_usb_audio/module_usb_audio/pdm_mics/pcm_pdm_mic.xc:106:0
.Lxta.call_labels9:
	bl mic_array_decimate_to_pcm_4ch
	{
		nop
		retsp 2
	}
	# RETURN_REG_HOLDER
.Ltmp57:
	.cc_bottom pcm_pdm_mic.task.mic_array_decimate_to_pcm_4ch.1.function
	.set	pcm_pdm_mic.task.mic_array_decimate_to_pcm_4ch.1.nstackwords,(mic_array_decimate_to_pcm_4ch.nstackwords + 2)
	.set	pcm_pdm_mic.task.mic_array_decimate_to_pcm_4ch.1.maxcores,mic_array_decimate_to_pcm_4ch.maxcores $M 1
	.set	pcm_pdm_mic.task.mic_array_decimate_to_pcm_4ch.1.maxtimers,mic_array_decimate_to_pcm_4ch.maxtimers $M 0
	.set	pcm_pdm_mic.task.mic_array_decimate_to_pcm_4ch.1.maxchanends,mic_array_decimate_to_pcm_4ch.maxchanends $M 0
.Ltmp58:
	.size	pcm_pdm_mic.task.mic_array_decimate_to_pcm_4ch.1, .Ltmp58-pcm_pdm_mic.task.mic_array_decimate_to_pcm_4ch.1
.Lfunc_end3:
	.cfi_endproc

	.align	4
	.type	pcm_pdm_mic.task.mic_array_decimate_to_pcm_4ch.2,@function
	.cc_top pcm_pdm_mic.task.mic_array_decimate_to_pcm_4ch.2.function,pcm_pdm_mic.task.mic_array_decimate_to_pcm_4ch.2
pcm_pdm_mic.task.mic_array_decimate_to_pcm_4ch.2: # @pcm_pdm_mic.task.mic_array_decimate_to_pcm_4ch.2
.Lfunc_begin4:
	.loc	1 107 0                 # /Users/rcalhoun/code/git/sw_usb_audio/sc_usb_audio/module_usb_audio/pdm_mics/pcm_pdm_mic.xc:107:0
	.cfi_startproc
	.issue_mode dual
# BB#0:                                 # %allocas
	{
		nop
		dualentsp 2
	}
.Ltmp59:
	.cfi_def_cfa_offset 8
.Ltmp60:
	.cfi_offset 15, 0
	#DEBUG_VALUE: pcm_pdm_mic.task.mic_array_decimate_to_pcm_4ch.2:frame <- R0
	{
		nop
		ldw r2, r0[4]
	}
	.loc	1 107 0 prologue_end    # /Users/rcalhoun/code/git/sw_usb_audio/sc_usb_audio/module_usb_audio/pdm_mics/pcm_pdm_mic.xc:107:0
.Ltmp61:
	{
		mov r0, r2
		ldw r1, r0[6]
	}
.Ltmp62:
	.loc	1 107 0                 # /Users/rcalhoun/code/git/sw_usb_audio/sc_usb_audio/module_usb_audio/pdm_mics/pcm_pdm_mic.xc:107:0
.Lxta.call_labels10:
	bl mic_array_decimate_to_pcm_4ch
	{
		nop
		retsp 2
	}
	# RETURN_REG_HOLDER
.Ltmp63:
	.cc_bottom pcm_pdm_mic.task.mic_array_decimate_to_pcm_4ch.2.function
	.set	pcm_pdm_mic.task.mic_array_decimate_to_pcm_4ch.2.nstackwords,(mic_array_decimate_to_pcm_4ch.nstackwords + 2)
	.set	pcm_pdm_mic.task.mic_array_decimate_to_pcm_4ch.2.maxcores,mic_array_decimate_to_pcm_4ch.maxcores $M 1
	.set	pcm_pdm_mic.task.mic_array_decimate_to_pcm_4ch.2.maxtimers,mic_array_decimate_to_pcm_4ch.maxtimers $M 0
	.set	pcm_pdm_mic.task.mic_array_decimate_to_pcm_4ch.2.maxchanends,mic_array_decimate_to_pcm_4ch.maxchanends $M 0
.Ltmp64:
	.size	pcm_pdm_mic.task.mic_array_decimate_to_pcm_4ch.2, .Ltmp64-pcm_pdm_mic.task.mic_array_decimate_to_pcm_4ch.2
.Lfunc_end4:
	.cfi_endproc

	.align	4
	.type	pcm_pdm_mic.task.pdm_process.3,@function
	.cc_top pcm_pdm_mic.task.pdm_process.3.function,pcm_pdm_mic.task.pdm_process.3
pcm_pdm_mic.task.pdm_process.3:         # @pcm_pdm_mic.task.pdm_process.3
.Lfunc_begin5:
	.loc	1 108 0                 # /Users/rcalhoun/code/git/sw_usb_audio/sc_usb_audio/module_usb_audio/pdm_mics/pcm_pdm_mic.xc:108:0
	.cfi_startproc
	.issue_mode dual
# BB#0:                                 # %allocas
	{
		nop
		dualentsp 2
	}
.Ltmp65:
	.cfi_def_cfa_offset 8
.Ltmp66:
	.cfi_offset 15, 0
	#DEBUG_VALUE: pcm_pdm_mic.task.pdm_process.3:frame <- R0
	.loc	1 108 0 prologue_end    # /Users/rcalhoun/code/git/sw_usb_audio/sc_usb_audio/module_usb_audio/pdm_mics/pcm_pdm_mic.xc:108:0
.Ltmp67:
	ldaw r2, r0[7]
	.loc	1 108 0                 # /Users/rcalhoun/code/git/sw_usb_audio/sc_usb_audio/module_usb_audio/pdm_mics/pcm_pdm_mic.xc:108:0
	{
		mov r0, r2
		ldw r1, r0[0]
	}
.Ltmp68:
	.loc	1 108 0                 # /Users/rcalhoun/code/git/sw_usb_audio/sc_usb_audio/module_usb_audio/pdm_mics/pcm_pdm_mic.xc:108:0
.Lxta.call_labels11:
	bl pdm_process
.Ltmp69:
	.cc_bottom pcm_pdm_mic.task.pdm_process.3.function
	.set	pcm_pdm_mic.task.pdm_process.3.nstackwords,(pdm_process.nstackwords + 2)
	.set	pcm_pdm_mic.task.pdm_process.3.maxcores,pdm_process.maxcores $M 1
	.set	pcm_pdm_mic.task.pdm_process.3.maxtimers,pdm_process.maxtimers $M 0
	.set	pcm_pdm_mic.task.pdm_process.3.maxchanends,pdm_process.maxchanends $M 0
.Ltmp70:
	.size	pcm_pdm_mic.task.pdm_process.3, .Ltmp70-pcm_pdm_mic.task.pdm_process.3
.Lfunc_end5:
	.cfi_endproc

	.section	.dp.bss,"awd",@nobits
	.cc_top data_0.data,data_0
	.globl	data_0.globound
data_0.globound = 1536
	.globl	data_0
	.align	8
	.type	data_0,@object
	.size	data_0, 6144
data_0:
	.space	6144
	.cc_bottom data_0.data
	.cc_top data_1.data,data_1
	.globl	data_1.globound
data_1.globound = 1536
	.globl	data_1
	.align	8
	.type	data_1,@object
	.size	data_1, 6144
data_1:
	.space	6144
	.cc_bottom data_1.data
	.cc_top mic_audio.data,mic_audio
	.globl	mic_audio.globound
mic_audio.globound = 2
	.globl	mic_audio
	.align	8
	.type	mic_audio,@object
	.size	mic_audio, 144
mic_audio:
	.space	144
	.cc_bottom mic_audio.data
	.section	.cp.rodata.4,"ac",@progbits
	.cc_top pdm_process.0.init.data,pdm_process.0.init
	.align	4
	.type	pdm_process.0.init,@object
	.size	pdm_process.0.init, 28
pdm_process.0.init:
	.long	0
	.long	g_third_stage_div_2_fir
	.long	g_third_stage_div_4_fir
	.long	g_third_stage_div_6_fir
	.long	g_third_stage_div_8_fir
	.long	0
	.long	g_third_stage_div_12_fir
	.cc_bottom pdm_process.0.init.data
	.section	.dp.data.4,"awd",@progbits
	.cc_top par.desc.1.data,par.desc.1
	.align	4
	.type	par.desc.1,@object
	.size	par.desc.1, 32
par.desc.1:
	.long	pcm_pdm_mic.task.mic_array_decimate_to_pcm_4ch.1
	.long	pcm_pdm_mic.task.pdm_process.3.nstackwords
	.long	pcm_pdm_mic.task.mic_array_decimate_to_pcm_4ch.2
	.long	pcm_pdm_mic.task.mic_array_decimate_to_pcm_4ch.1.nstackwords
	.long	pcm_pdm_mic.task.mic_array_pdm_rx.0
	.long	pcm_pdm_mic.task.mic_array_decimate_to_pcm_4ch.2.nstackwords
	.long	0
	.long	pcm_pdm_mic.task.pdm_process.3
	.cc_bottom par.desc.1.data
	.section	.dp.bss,"awd",@nobits
.Ldebug_end1:
	.text
.Ldebug_end2:
	.file	2 "/Applications/XMOS_XTC_15.1.4/target/include/timer.h"
	.file	3 "/Applications/XMOS_XTC_15.1.4/target/include/xc/safe/string.h"
	.section	.xtacalltable,"",@progbits
.Lentries_start0:
	.long	.Lentries_end1-.Lentries_start0
	.long	0
	.ascii	"/Users/rcalhoun/code/git/sw_usb_audio/sw_usb_audio/app_usb_aud_mic_array/.build_1i8o2"
	.byte	0
.cc_top cc_0,.Lxta.call_labels0
	.ascii	"/Users/rcalhoun/code/git/sw_usb_audio/sc_usb_audio/module_usb_audio/pdm_mics/pcm_pdm_mic.xc"
	.byte	0
	.long	40
	.long	.Lxta.call_labels0
.cc_bottom cc_0
.cc_top cc_1,.Lxta.call_labels1
	.ascii	"/Users/rcalhoun/code/git/sw_usb_audio/sc_usb_audio/module_usb_audio/pdm_mics/pcm_pdm_mic.xc"
	.byte	0
	.long	56
	.long	.Lxta.call_labels1
.cc_bottom cc_1
.cc_top cc_2,.Lxta.call_labels2
	.ascii	"/Users/rcalhoun/code/git/sw_usb_audio/sc_usb_audio/module_usb_audio/pdm_mics/pcm_pdm_mic.xc"
	.byte	0
	.long	58
	.long	.Lxta.call_labels2
.cc_bottom cc_2
.cc_top cc_3,.Lxta.call_labels3
	.ascii	"/Users/rcalhoun/code/git/sw_usb_audio/sc_usb_audio/module_usb_audio/pdm_mics/pcm_pdm_mic.xc"
	.byte	0
	.long	62
	.long	.Lxta.call_labels3
.cc_bottom cc_3
.cc_top cc_4,.Lxta.call_labels4
	.ascii	"/Users/rcalhoun/code/git/sw_usb_audio/sc_usb_audio/module_usb_audio/pdm_mics/pcm_pdm_mic.xc"
	.byte	0
	.long	67
	.long	.Lxta.call_labels4
.cc_bottom cc_4
.cc_top cc_5,.Lxta.call_labels5
	.ascii	"/Users/rcalhoun/code/git/sw_usb_audio/sc_usb_audio/module_usb_audio/pdm_mics/pcm_pdm_mic.xc"
	.byte	0
	.long	98
	.long	.Lxta.call_labels5
.cc_bottom cc_5
.cc_top cc_6,.Lxta.call_labels6
	.ascii	"/Users/rcalhoun/code/git/sw_usb_audio/sc_usb_audio/module_usb_audio/pdm_mics/pcm_pdm_mic.xc"
	.byte	0
	.long	99
	.long	.Lxta.call_labels6
.cc_bottom cc_6
.cc_top cc_7,.Lxta.call_labels7
	.ascii	"/Users/rcalhoun/code/git/sw_usb_audio/sc_usb_audio/module_usb_audio/pdm_mics/pcm_pdm_mic.xc"
	.byte	0
	.long	100
	.long	.Lxta.call_labels7
.cc_bottom cc_7
.cc_top cc_8,.Lxta.call_labels8
	.ascii	"/Users/rcalhoun/code/git/sw_usb_audio/sc_usb_audio/module_usb_audio/pdm_mics/pcm_pdm_mic.xc"
	.byte	0
	.long	105
	.long	.Lxta.call_labels8
.cc_bottom cc_8
.cc_top cc_9,.Lxta.call_labels9
	.ascii	"/Users/rcalhoun/code/git/sw_usb_audio/sc_usb_audio/module_usb_audio/pdm_mics/pcm_pdm_mic.xc"
	.byte	0
	.long	106
	.long	.Lxta.call_labels9
.cc_bottom cc_9
.cc_top cc_10,.Lxta.call_labels10
	.ascii	"/Users/rcalhoun/code/git/sw_usb_audio/sc_usb_audio/module_usb_audio/pdm_mics/pcm_pdm_mic.xc"
	.byte	0
	.long	107
	.long	.Lxta.call_labels10
.cc_bottom cc_10
.cc_top cc_11,.Lxta.call_labels11
	.ascii	"/Users/rcalhoun/code/git/sw_usb_audio/sc_usb_audio/module_usb_audio/pdm_mics/pcm_pdm_mic.xc"
	.byte	0
	.long	108
	.long	.Lxta.call_labels11
.cc_bottom cc_11
.Lentries_end1:
	.section	.xtaendpointtable,"",@progbits
.Lentries_start2:
	.long	.Lentries_end3-.Lentries_start2
	.long	0
	.ascii	"/Users/rcalhoun/code/git/sw_usb_audio/sw_usb_audio/app_usb_aud_mic_array/.build_1i8o2"
	.byte	0
.cc_top cc_12,.Lxta.endpoint_labels0
	.ascii	"/Users/rcalhoun/code/git/sw_usb_audio/sc_usb_audio/module_usb_audio/pdm_mics/pcm_pdm_mic.xc"
	.byte	0
	.long	46
	.long	.Lxta.endpoint_labels0
.cc_bottom cc_12
.cc_top cc_13,.Lxta.endpoint_labels1
	.ascii	"/Users/rcalhoun/code/git/sw_usb_audio/sc_usb_audio/module_usb_audio/pdm_mics/pcm_pdm_mic.xc"
	.byte	0
	.long	46
	.long	.Lxta.endpoint_labels1
.cc_bottom cc_13
.cc_top cc_14,.Lxta.endpoint_labels3
	.ascii	"/Users/rcalhoun/code/git/sw_usb_audio/sc_usb_audio/module_usb_audio/pdm_mics/pcm_pdm_mic.xc"
	.byte	0
	.long	69
	.long	.Lxta.endpoint_labels3
.cc_bottom cc_14
.cc_top cc_15,.Lxta.endpoint_labels2
	.ascii	"/Users/rcalhoun/code/git/sw_usb_audio/sc_usb_audio/module_usb_audio/pdm_mics/pcm_pdm_mic.xc"
	.byte	0
	.long	75
	.long	.Lxta.endpoint_labels2
.cc_bottom cc_15
.Lentries_end3:
	.section	.xtalabeltable,"",@progbits
.Lentries_start4:
	.long	.Lentries_end5-.Lentries_start4
	.long	0
	.ascii	"/Users/rcalhoun/code/git/sw_usb_audio/sw_usb_audio/app_usb_aud_mic_array/.build_1i8o2"
	.byte	0
.cc_top cc_16,.Lxtalabel0
	.ascii	"/Users/rcalhoun/code/git/sw_usb_audio/sc_usb_audio/module_usb_audio/pdm_mics/pcm_pdm_mic.xc"
	.byte	0
	.long	36
	.long	38
	.long	.Lxtalabel0
.cc_bottom cc_16
.cc_top cc_17,.Lxtalabel0
	.ascii	"/Users/rcalhoun/code/git/sw_usb_audio/sc_usb_audio/module_usb_audio/pdm_mics/pcm_pdm_mic.xc"
	.byte	0
	.long	40
	.long	40
	.long	.Lxtalabel0
.cc_bottom cc_17
.cc_top cc_18,.Lxtalabel0
	.ascii	"/Users/rcalhoun/code/git/sw_usb_audio/sc_usb_audio/module_usb_audio/pdm_mics/pcm_pdm_mic.xc"
	.byte	0
	.long	42
	.long	42
	.long	.Lxtalabel0
.cc_bottom cc_18
.cc_top cc_19,.Lxtalabel1
	.ascii	"/Users/rcalhoun/code/git/sw_usb_audio/sc_usb_audio/module_usb_audio/pdm_mics/pcm_pdm_mic.xc"
	.byte	0
	.long	43
	.long	44
	.long	.Lxtalabel1
.cc_bottom cc_19
.cc_top cc_20,.Lxtalabel1
	.ascii	"/Users/rcalhoun/code/git/sw_usb_audio/sc_usb_audio/module_usb_audio/pdm_mics/pcm_pdm_mic.xc"
	.byte	0
	.long	46
	.long	46
	.long	.Lxtalabel1
.cc_bottom cc_20
.cc_top cc_21,.Lxtalabel1
	.ascii	"/Users/rcalhoun/code/git/sw_usb_audio/sc_usb_audio/module_usb_audio/pdm_mics/pcm_pdm_mic.xc"
	.byte	0
	.long	48
	.long	48
	.long	.Lxtalabel1
.cc_bottom cc_21
.cc_top cc_22,.Lxtalabel1
	.ascii	"/Users/rcalhoun/code/git/sw_usb_audio/sc_usb_audio/module_usb_audio/pdm_mics/pcm_pdm_mic.xc"
	.byte	0
	.long	50
	.long	52
	.long	.Lxtalabel1
.cc_bottom cc_22
.cc_top cc_23,.Lxtalabel1
	.ascii	"/Users/rcalhoun/code/git/sw_usb_audio/sc_usb_audio/module_usb_audio/pdm_mics/pcm_pdm_mic.xc"
	.byte	0
	.long	54
	.long	56
	.long	.Lxtalabel1
.cc_bottom cc_23
.cc_top cc_24,.Lxtalabel1
	.ascii	"/Users/rcalhoun/code/git/sw_usb_audio/sc_usb_audio/module_usb_audio/pdm_mics/pcm_pdm_mic.xc"
	.byte	0
	.long	58
	.long	58
	.long	.Lxtalabel1
.cc_bottom cc_24
.cc_top cc_25,.Lxtalabel1
	.ascii	"/Users/rcalhoun/code/git/sw_usb_audio/sc_usb_audio/module_usb_audio/pdm_mics/pcm_pdm_mic.xc"
	.byte	0
	.long	60
	.long	60
	.long	.Lxtalabel1
.cc_bottom cc_25
.cc_top cc_26,.Lxtalabel2
	.ascii	"/Users/rcalhoun/code/git/sw_usb_audio/sc_usb_audio/module_usb_audio/pdm_mics/pcm_pdm_mic.xc"
	.byte	0
	.long	61
	.long	62
	.long	.Lxtalabel2
.cc_bottom cc_26
.cc_top cc_27,.Lxtalabel2
	.ascii	"/Users/rcalhoun/code/git/sw_usb_audio/sc_usb_audio/module_usb_audio/pdm_mics/pcm_pdm_mic.xc"
	.byte	0
	.long	64
	.long	67
	.long	.Lxtalabel2
.cc_bottom cc_27
.cc_top cc_28,.Lxtalabel2
	.ascii	"/Users/rcalhoun/code/git/sw_usb_audio/sc_usb_audio/module_usb_audio/pdm_mics/pcm_pdm_mic.xc"
	.byte	0
	.long	69
	.long	69
	.long	.Lxtalabel2
.cc_bottom cc_28
.cc_top cc_29,.Lxtalabel2
	.ascii	"/Users/rcalhoun/code/git/sw_usb_audio/sc_usb_audio/module_usb_audio/pdm_mics/pcm_pdm_mic.xc"
	.byte	0
	.long	71
	.long	71
	.long	.Lxtalabel2
.cc_bottom cc_29
.cc_top cc_30,.Lxtalabel3
	.ascii	"/Users/rcalhoun/code/git/sw_usb_audio/sc_usb_audio/module_usb_audio/pdm_mics/pcm_pdm_mic.xc"
	.byte	0
	.long	72
	.long	73
	.long	.Lxtalabel3
.cc_bottom cc_30
.cc_top cc_31,.Lxtalabel2
	.ascii	"/Users/rcalhoun/code/git/sw_usb_audio/sc_usb_audio/module_usb_audio/pdm_mics/pcm_pdm_mic.xc"
	.byte	0
	.long	74
	.long	76
	.long	.Lxtalabel2
.cc_bottom cc_31
.cc_top cc_32,.Lxtalabel3
	.ascii	"/Users/rcalhoun/code/git/sw_usb_audio/sc_usb_audio/module_usb_audio/pdm_mics/pcm_pdm_mic.xc"
	.byte	0
	.long	78
	.long	81
	.long	.Lxtalabel3
.cc_bottom cc_32
.cc_top cc_33,.Lxtalabel3
	.ascii	"/Users/rcalhoun/code/git/sw_usb_audio/sc_usb_audio/module_usb_audio/pdm_mics/pcm_pdm_mic.xc"
	.byte	0
	.long	84
	.long	85
	.long	.Lxtalabel3
.cc_bottom cc_33
.cc_top cc_34,.Lxtalabel4
	.ascii	"/Users/rcalhoun/code/git/sw_usb_audio/sc_usb_audio/module_usb_audio/pdm_mics/pcm_pdm_mic.xc"
	.byte	0
	.long	93
	.long	95
	.long	.Lxtalabel4
.cc_bottom cc_34
.cc_top cc_35,.Lxtalabel4
	.ascii	"/Users/rcalhoun/code/git/sw_usb_audio/sc_usb_audio/module_usb_audio/pdm_mics/pcm_pdm_mic.xc"
	.byte	0
	.long	98
	.long	100
	.long	.Lxtalabel4
.cc_bottom cc_35
.cc_top cc_36,.Lxtalabel4
	.ascii	"/Users/rcalhoun/code/git/sw_usb_audio/sc_usb_audio/module_usb_audio/pdm_mics/pcm_pdm_mic.xc"
	.byte	0
	.long	101
	.long	101
	.long	.Lxtalabel4
.cc_bottom cc_36
.cc_top cc_37,.Lxtalabel4
	.ascii	"/Users/rcalhoun/code/git/sw_usb_audio/sc_usb_audio/module_usb_audio/pdm_mics/pcm_pdm_mic.xc"
	.byte	0
	.long	103
	.long	110
	.long	.Lxtalabel4
.cc_bottom cc_37
.Lentries_end5:
	.section	.xtalooplabeltable,"",@progbits
.Lentries_start6:
	.long	.Lentries_end7-.Lentries_start6
	.long	0
	.ascii	"/Users/rcalhoun/code/git/sw_usb_audio/sw_usb_audio/app_usb_aud_mic_array/.build_1i8o2"
	.byte	0
.cc_top cc_38,.Lxta.loop_labels0
	.ascii	"/Users/rcalhoun/code/git/sw_usb_audio/sc_usb_audio/module_usb_audio/pdm_mics/pcm_pdm_mic.xc"
	.byte	0
	.long	74
	.long	76
	.long	.Lxta.loop_labels0
.cc_bottom cc_38
.Lentries_end7:
	.section	.trap_info,"",@progbits
.Ltrap_info_entries_start0:
	.long	.Ltrap_info_entries_end0-.Ltrap_info_entries_start0
	.long	1
	.section	.trap_info_str,"MS",@progbits
.Ltrap_info_str0:
.asciiz"/Users/rcalhoun/code/git/sw_usb_audio/sc_usb_audio/module_usb_audio/pdm_mics/pcm_pdm_mic.xc:54:112: error: out of bounds array access\n            mic_array_decimator_conf_common_t dcc = {MIC_ARRAY_MAX_FRAME_SIZE_LOG2, 1, 0, 0, decimationfactor, fir_coefs[decimationfactor/2], 0, 0, DECIMATOR_NO_FRAME_OVERLAP, 2};\n                                                                                                               ^~~~~~~~~~~~~~~~~~~~~~~~~~~~~\n"
	.section	.trap_info,"",@progbits
.cc_top cc_trapinfo_0,.Ltrap_info0
	.long	.Ltrap_info0
	.long	.Ltrap_info_str0
.cc_bottom cc_trapinfo_0
	.section	.trap_info_str,"MS",@progbits
.Ltrap_info_str1:
.asciiz"/Users/rcalhoun/code/git/sw_usb_audio/sc_usb_audio/module_usb_audio/pdm_mics/pcm_pdm_mic.xc:54:112: error: out of bounds array access\n            mic_array_decimator_conf_common_t dcc = {MIC_ARRAY_MAX_FRAME_SIZE_LOG2, 1, 0, 0, decimationfactor, fir_coefs[decimationfactor/2], 0, 0, DECIMATOR_NO_FRAME_OVERLAP, 2};\n                                                                                                               ^~~~~~~~~~~~~~~~~~~~~~~~~~~~~\n"
	.section	.trap_info,"",@progbits
.cc_top cc_trapinfo_1,.Ltrap_info1
	.long	.Ltrap_info1
	.long	.Ltrap_info_str1
.cc_bottom cc_trapinfo_1
	.section	.trap_info_str,"MS",@progbits
.Ltrap_info_str2:
.asciiz"/Users/rcalhoun/code/git/sw_usb_audio/sc_usb_audio/module_usb_audio/pdm_mics/pcm_pdm_mic.xc:62:60: error: function arguments alias same memory region\n            mic_array_frame_time_domain * unsafe current = mic_array_get_next_time_domain_frame(c_ds_output, 2, buffer, mic_audio, dc);\n                                                           ^~~~~~~~~~~~~~~~~~~~~~~~~~~~~~~~~~~~~~~~~~~~~~~~~~~~~~~~~~~~~~~~~~~~~~~~~~~\n/Users/rcalhoun/code/git/sw_usb_audio/sc_usb_audio/module_usb_audio/pdm_mics/pcm_pdm_mic.xc:62:121: note: aliased object is here\n            mic_array_frame_time_domain * unsafe current = mic_array_get_next_time_domain_frame(c_ds_output, 2, buffer, mic_audio, dc);\n                                                                                                                        ^~~~~~~~~\n/Users/rcalhoun/code/git/sw_usb_audio/sc_usb_audio/module_usb_audio/pdm_mics/pcm_pdm_mic.xc:62:97: note: aliased object is here\n            mic_array_frame_time_domain * unsafe current = mic_array_get_next_time_domain_frame(c_ds_output, 2, buffer, mic_audio, dc);\n                                                                                                ^~~~~~~~~~~\n"
	.section	.trap_info,"",@progbits
.cc_top cc_trapinfo_2,.Ltrap_info2
	.long	.Ltrap_info2
	.long	.Ltrap_info_str2
.cc_bottom cc_trapinfo_2
	.section	.trap_info_str,"MS",@progbits
.Ltrap_info_str3:
.asciiz"/Users/rcalhoun/code/git/sw_usb_audio/sc_usb_audio/module_usb_audio/pdm_mics/pcm_pdm_mic.xc:62:60: error: function arguments alias same memory region\n            mic_array_frame_time_domain * unsafe current = mic_array_get_next_time_domain_frame(c_ds_output, 2, buffer, mic_audio, dc);\n                                                           ^~~~~~~~~~~~~~~~~~~~~~~~~~~~~~~~~~~~~~~~~~~~~~~~~~~~~~~~~~~~~~~~~~~~~~~~~~~\n/Users/rcalhoun/code/git/sw_usb_audio/sc_usb_audio/module_usb_audio/pdm_mics/pcm_pdm_mic.xc:62:121: note: aliased object is here\n            mic_array_frame_time_domain * unsafe current = mic_array_get_next_time_domain_frame(c_ds_output, 2, buffer, mic_audio, dc);\n                                                                                                                        ^~~~~~~~~\n/Users/rcalhoun/code/git/sw_usb_audio/sc_usb_audio/module_usb_audio/pdm_mics/pcm_pdm_mic.xc:62:113: note: aliased object is here\n            mic_array_frame_time_domain * unsafe current = mic_array_get_next_time_domain_frame(c_ds_output, 2, buffer, mic_audio, dc);\n                                                                                                                ^~~~~~\n"
	.section	.trap_info,"",@progbits
.cc_top cc_trapinfo_3,.Ltrap_info3
	.long	.Ltrap_info3
	.long	.Ltrap_info_str3
.cc_bottom cc_trapinfo_3
	.section	.trap_info_str,"MS",@progbits
.Ltrap_info_str4:
.asciiz"/Users/rcalhoun/code/git/sw_usb_audio/sc_usb_audio/module_usb_audio/pdm_mics/pcm_pdm_mic.xc:62:60: error: function arguments alias same memory region\n            mic_array_frame_time_domain * unsafe current = mic_array_get_next_time_domain_frame(c_ds_output, 2, buffer, mic_audio, dc);\n                                                           ^~~~~~~~~~~~~~~~~~~~~~~~~~~~~~~~~~~~~~~~~~~~~~~~~~~~~~~~~~~~~~~~~~~~~~~~~~~\n/Users/rcalhoun/code/git/sw_usb_audio/sc_usb_audio/module_usb_audio/pdm_mics/pcm_pdm_mic.xc:62:132: note: aliased object is here\n            mic_array_frame_time_domain * unsafe current = mic_array_get_next_time_domain_frame(c_ds_output, 2, buffer, mic_audio, dc);\n                                                                                                                                   ^~\n/Users/rcalhoun/code/git/sw_usb_audio/sc_usb_audio/module_usb_audio/pdm_mics/pcm_pdm_mic.xc:62:121: note: aliased object is here\n            mic_array_frame_time_domain * unsafe current = mic_array_get_next_time_domain_frame(c_ds_output, 2, buffer, mic_audio, dc);\n                                                                                                                        ^~~~~~~~~\n"
	.section	.trap_info,"",@progbits
.cc_top cc_trapinfo_4,.Ltrap_info4
	.long	.Ltrap_info4
	.long	.Ltrap_info_str4
.cc_bottom cc_trapinfo_4
.Ltrap_info_entries_end0: