	.text
	.file	"/Users/rcalhoun/code/git/sw_usb_audio/sc_usb_audio/module_usb_audio/ports/audioports.xc"
                                        # Start of file scope inline assembly
	.inline_definition delay_seconds
	.inline_definition delay_milliseconds
	.inline_definition delay_microseconds
	.set usage.anon.0,0
	.set usage.anon.1,0
	.set usage.anon.2,0
	.globwrite ConfigAudioPorts,clk_audio_bclk,"/Users/rcalhoun/code/git/sw_usb_audio/sc_usb_audio/module_usb_audio/ports/audioports.xc:36:16: note: object used here\n    stop_clock(clk_audio_bclk);\n               ^~~~~~~~~~~~~~\n/Applications/XMOS_XTC_15.1.4/target/include/xs1.h:572:67: note: expanded from macro \'stop_clock\'\n#define stop_clock(clk)                      __builtin_stop_clock(clk)\n                                                                  ^"
	.globwrite ConfigAudioPorts,p_mclk_in,"/Users/rcalhoun/code/git/sw_usb_audio/sc_usb_audio/module_usb_audio/ports/audioports.xc:60:48: note: object used here\n    configure_clock_src_divide(clk_audio_bclk, p_mclk_in, (divide/2));\n                                               ^~~~~~~~~"
	.call ConfigAudioPorts,configure_port_clock_output
	.call ConfigAudioPorts,configure_out_port
	.call ConfigAudioPorts,configure_clock_src_divide
	.call usage.anon.2,delay_ticks_longlong
	.call usage.anon.1,delay_ticks_longlong
	.call usage.anon.0,delay_ticks_longlong
	.set ConfigAudioPorts.locnoside, 0
	.set ConfigAudioPorts.locnoglobalaccess, 0
	.globpassesref configure_out_port, clk_audio_bclk,"/Users/rcalhoun/code/git/sw_usb_audio/sc_usb_audio/module_usb_audio/ports/audioports.xc:96:9: error: call to `configure_out_port\' in `ConfigAudioPorts\' makes alias of global \'clk_audio_bclk\'\n        configure_out_port_no_ready(p_i2s_dac[i], clk_audio_bclk, 0);\n        ^~~~~~~~~~~~~~~~~~~~~~~~~~~~~~~~~~~~~~~~~~~~~~~~~~~~~~~~~~~~\n/Applications/XMOS_XTC_15.1.4/target/include/xs1.h:256:54: note: expanded from macro \'configure_out_port_no_ready\'\n#define configure_out_port_no_ready(p, clk, initial) configure_out_port(p, clk, initial)\n                                                     ^~~~~~~~~~~~~~~~~~~~~~~~~~~~~~~~~~~"
	.globpassesref configure_out_port, clk_audio_bclk,"/Users/rcalhoun/code/git/sw_usb_audio/sc_usb_audio/module_usb_audio/ports/audioports.xc:89:9: error: call to `configure_out_port\' in `ConfigAudioPorts\' makes alias of global \'clk_audio_bclk\'\n        configure_out_port_no_ready(p_lrclk, clk_audio_bclk, 0);\n        ^~~~~~~~~~~~~~~~~~~~~~~~~~~~~~~~~~~~~~~~~~~~~~~~~~~~~~~\n/Applications/XMOS_XTC_15.1.4/target/include/xs1.h:256:54: note: expanded from macro \'configure_out_port_no_ready\'\n#define configure_out_port_no_ready(p, clk, initial) configure_out_port(p, clk, initial)\n                                                     ^~~~~~~~~~~~~~~~~~~~~~~~~~~~~~~~~~~"
	.globpassesref configure_port_clock_output, clk_audio_bclk,"/Users/rcalhoun/code/git/sw_usb_audio/sc_usb_audio/module_usb_audio/ports/audioports.xc:61:5: error: call to `configure_port_clock_output\' in `ConfigAudioPorts\' makes alias of global \'clk_audio_bclk\'\n    configure_port_clock_output(p_bclk, clk_audio_bclk);\n    ^~~~~~~~~~~~~~~~~~~~~~~~~~~~~~~~~~~~~~~~~~~~~~~~~~~"
	.globpassesref configure_clock_src_divide, p_mclk_in,"/Users/rcalhoun/code/git/sw_usb_audio/sc_usb_audio/module_usb_audio/ports/audioports.xc:60:5: error: call to `configure_clock_src_divide\' in `ConfigAudioPorts\' makes alias of global \'p_mclk_in\'\n    configure_clock_src_divide(clk_audio_bclk, p_mclk_in, (divide/2));\n    ^~~~~~~~~~~~~~~~~~~~~~~~~~~~~~~~~~~~~~~~~~~~~~~~~~~~~~~~~~~~~~~~~"
	.globpassesref configure_clock_src_divide, clk_audio_bclk,"/Users/rcalhoun/code/git/sw_usb_audio/sc_usb_audio/module_usb_audio/ports/audioports.xc:60:5: error: call to `configure_clock_src_divide\' in `ConfigAudioPorts\' makes alias of global \'clk_audio_bclk\'\n    configure_clock_src_divide(clk_audio_bclk, p_mclk_in, (divide/2));\n    ^~~~~~~~~~~~~~~~~~~~~~~~~~~~~~~~~~~~~~~~~~~~~~~~~~~~~~~~~~~~~~~~~"

                                        # End of file scope inline assembly
	.text
	.globl	ConfigAudioPorts
	.align	4
	.type	ConfigAudioPorts,@function
	.cc_top ConfigAudioPorts.function,ConfigAudioPorts
ConfigAudioPorts:                       # @ConfigAudioPorts
.Lfunc_begin0:
	.file	1 "/Users/rcalhoun/code/git/sw_usb_audio/sc_usb_audio/module_usb_audio/ports/audioports.xc"
	.loc	1 32 0                  # /Users/rcalhoun/code/git/sw_usb_audio/sc_usb_audio/module_usb_audio/ports/audioports.xc:32:0
	.cfi_startproc
	.issue_mode dual
# BB#0:                                 # %allocas
.Lxtalabel0:
	{
		nop
		dualentsp 8
	}
.Ltmp0:
	.cfi_def_cfa_offset 32
.Ltmp1:
	.cfi_offset 15, 0
	std r5, r4, sp[1]               # 4-byte Folded Spill
.Ltmp2:
	.cfi_offset 4, -24
.Ltmp3:
	.cfi_offset 5, -20
	std r7, r6, sp[2]               # 4-byte Folded Spill
.Ltmp4:
	.cfi_offset 6, -16
.Ltmp5:
	.cfi_offset 7, -12
	std r9, r8, sp[3]               # 4-byte Folded Spill
.Ltmp6:
	.cfi_offset 8, -8
.Ltmp7:
	.cfi_offset 9, -4
	#DEBUG_VALUE: ConfigAudioPorts:p_i2s_dac <- R0
	#DEBUG_VALUE: ConfigAudioPorts:numPortsDac <- R1
	#DEBUG_VALUE: ConfigAudioPorts:p_lrclk <- R2
	#DEBUG_VALUE: ConfigAudioPorts:p_bclk <- R3
.Ltmp8:
	#DEBUG_VALUE: ConfigAudioPorts:p_bclk <- R8
	#DEBUG_VALUE: ConfigAudioPorts:p_lrclk <- R7
	{
		mov r8, r3
		mov r7, r2
	}
.Ltmp9:
	#DEBUG_VALUE: ConfigAudioPorts:numPortsDac <- R4
	#DEBUG_VALUE: ConfigAudioPorts:p_i2s_dac <- R5
	{
		mov r4, r1
		mov r5, r0
	}
.Ltmp10:
	ldd r9, r0, sp[5]
	.loc	1 36 0 prologue_end     # /Users/rcalhoun/code/git/sw_usb_audio/sc_usb_audio/module_usb_audio/ports/audioports.xc:36:0
.Ltmp11:
	ldw r6, dp[clk_audio_bclk]
	.loc	1 36 0                  # /Users/rcalhoun/code/git/sw_usb_audio/sc_usb_audio/module_usb_audio/ports/audioports.xc:36:0
	{
		setc res[r6], 7
		nop
	}
	bf r7, .LBB0_1
# BB#9:                                 # %afternullcheck
.Lxtalabel1:
.Ltmp12:
	#DEBUG_VALUE: ConfigAudioPorts:p_i2s_dac <- R5
	#DEBUG_VALUE: ConfigAudioPorts:numPortsDac <- R4
	#DEBUG_VALUE: ConfigAudioPorts:p_lrclk <- R7
	#DEBUG_VALUE: ConfigAudioPorts:p_bclk <- R8
	.loc	1 40 0                  # /Users/rcalhoun/code/git/sw_usb_audio/sc_usb_audio/module_usb_audio/ports/audioports.xc:40:0
	{
		setc res[r7], 23
		nop
	}
.Ltmp13:
.LBB0_1:                                # %ifdone
.Lxtalabel2:
	#DEBUG_VALUE: ConfigAudioPorts:p_i2s_dac <- R5
	#DEBUG_VALUE: ConfigAudioPorts:numPortsDac <- R4
	#DEBUG_VALUE: ConfigAudioPorts:p_lrclk <- R7
	#DEBUG_VALUE: ConfigAudioPorts:p_bclk <- R8
	#DEBUG_VALUE: i <- 0
	.loc	1 42 0                  # /Users/rcalhoun/code/git/sw_usb_audio/sc_usb_audio/module_usb_audio/ports/audioports.xc:42:0
	{
		setc res[r8], 23
		ldc r0, 0
	}
	.loc	1 52 0                  # /Users/rcalhoun/code/git/sw_usb_audio/sc_usb_audio/module_usb_audio/ports/audioports.xc:52:0
.Ltmp14:
	{
		lss r1, r0, r4
		nop
	}
	bf r1, .LBB0_2
.Ltmp15:
.LBB0_7:                                # %LoopBody
                                        # =>This Inner Loop Header: Depth=1
.Lxtalabel3:
	#DEBUG_VALUE: ConfigAudioPorts:p_i2s_dac <- R5
	#DEBUG_VALUE: ConfigAudioPorts:numPortsDac <- R4
	#DEBUG_VALUE: ConfigAudioPorts:p_lrclk <- R7
	#DEBUG_VALUE: ConfigAudioPorts:p_bclk <- R8
	.loc	1 54 0                  # /Users/rcalhoun/code/git/sw_usb_audio/sc_usb_audio/module_usb_audio/ports/audioports.xc:54:0
	{
		lsu r1, r0, r9
		nop
	}
.Ltrap_info0:
	{
		ecallf r1
		nop
	}
	#DEBUG_VALUE: ConfigAudioPorts:p_i2s_dac <- R5
	#DEBUG_VALUE: ConfigAudioPorts:numPortsDac <- R4
	#DEBUG_VALUE: ConfigAudioPorts:p_lrclk <- R7
	#DEBUG_VALUE: ConfigAudioPorts:p_bclk <- R8
	{
		nop
		ldw r1, r5[r0]
	}
.Ltmp16:
	#DEBUG_VALUE: i <- R0
	.loc	1 54 0                  # /Users/rcalhoun/code/git/sw_usb_audio/sc_usb_audio/module_usb_audio/ports/audioports.xc:54:0
	{
		setc res[r1], 23
		add r0, r0, 1
	}
.Ltmp17:
	.loc	1 52 0                  # /Users/rcalhoun/code/git/sw_usb_audio/sc_usb_audio/module_usb_audio/ports/audioports.xc:52:0
	{
		lss r1, r0, r4
		nop
	}
.Lxta.loop_labels0:
	# LOOPMARKER 0
	bt r1, .LBB0_7
.Ltmp18:
.LBB0_2:                                # %ifdone6
.Lxtalabel4:
	#DEBUG_VALUE: ConfigAudioPorts:p_i2s_dac <- R5
	#DEBUG_VALUE: ConfigAudioPorts:numPortsDac <- R4
	#DEBUG_VALUE: ConfigAudioPorts:p_lrclk <- R7
	#DEBUG_VALUE: ConfigAudioPorts:p_bclk <- R8
	{
		nop
		ldw r0, sp[9]
	}
	#DEBUG_VALUE: ConfigAudioPorts:divide <- R0
	.loc	1 60 0                  # /Users/rcalhoun/code/git/sw_usb_audio/sc_usb_audio/module_usb_audio/ports/audioports.xc:60:0
	ldw r1, dp[p_mclk_in]
	.loc	1 60 0                  # /Users/rcalhoun/code/git/sw_usb_audio/sc_usb_audio/module_usb_audio/ports/audioports.xc:60:0
	{
		shr r2, r0, 1
		nop
	}
	.loc	1 60 0                  # /Users/rcalhoun/code/git/sw_usb_audio/sc_usb_audio/module_usb_audio/ports/audioports.xc:60:0
	{
		zext r2, 8
		mov r0, r6
	}
.Ltmp19:
.Lxta.call_labels0:
	bl configure_clock_src_divide
	.loc	1 61 0                  # /Users/rcalhoun/code/git/sw_usb_audio/sc_usb_audio/module_usb_audio/ports/audioports.xc:61:0
	{
		mov r0, r8
		mov r1, r6
	}
.Lxta.call_labels1:
	bl configure_port_clock_output
	bf r7, .LBB0_3
.Ltmp20:
# BB#8:                                 # %afternullcheck31
.Lxtalabel5:
	#DEBUG_VALUE: ConfigAudioPorts:p_i2s_dac <- R5
	#DEBUG_VALUE: ConfigAudioPorts:numPortsDac <- R4
	#DEBUG_VALUE: ConfigAudioPorts:p_lrclk <- R7
	{
		ldc r2, 0
		mov r0, r7
	}
	.loc	1 89 0                  # /Users/rcalhoun/code/git/sw_usb_audio/sc_usb_audio/module_usb_audio/ports/audioports.xc:89:0
	{
		mov r1, r6
		nop
	}
.Lxta.call_labels2:
	bl configure_out_port
.Ltmp21:
.LBB0_3:                                # %ifdone22
.Lxtalabel6:
	#DEBUG_VALUE: ConfigAudioPorts:p_i2s_dac <- R5
	#DEBUG_VALUE: ConfigAudioPorts:numPortsDac <- R4
	{
		ldc r8, 0
		nop
	}
	{
		lss r0, r8, r4
		nop
	}
.Ltmp22:
	#DEBUG_VALUE: i <- 0
	bf r0, .LBB0_6
.Ltmp23:
# BB#4:
	#DEBUG_VALUE: ConfigAudioPorts:p_i2s_dac <- R5
	#DEBUG_VALUE: ConfigAudioPorts:numPortsDac <- R4
	{
		ldc r7, 0
		nop
	}
.Ltmp24:
.LBB0_5:                                # %LoopBody42
                                        # =>This Inner Loop Header: Depth=1
.Lxtalabel7:
	#DEBUG_VALUE: ConfigAudioPorts:p_i2s_dac <- R5
	#DEBUG_VALUE: ConfigAudioPorts:numPortsDac <- R4
	.loc	1 96 0                  # /Users/rcalhoun/code/git/sw_usb_audio/sc_usb_audio/module_usb_audio/ports/audioports.xc:96:0
	{
		lsu r0, r8, r9
		nop
	}
.Ltrap_info1:
	{
		ecallf r0
		nop
	}
	#DEBUG_VALUE: ConfigAudioPorts:p_i2s_dac <- R5
	#DEBUG_VALUE: ConfigAudioPorts:numPortsDac <- R4
	.loc	1 96 0                  # /Users/rcalhoun/code/git/sw_usb_audio/sc_usb_audio/module_usb_audio/ports/audioports.xc:96:0
	{
		mov r1, r6
		ldw r0, r5[r8]
	}
	.loc	1 96 0                  # /Users/rcalhoun/code/git/sw_usb_audio/sc_usb_audio/module_usb_audio/ports/audioports.xc:96:0
	{
		mov r2, r7
		nop
	}
.Lxta.call_labels3:
	bl configure_out_port
	.loc	1 94 0                  # /Users/rcalhoun/code/git/sw_usb_audio/sc_usb_audio/module_usb_audio/ports/audioports.xc:94:0
	{
		add r8, r8, 1
		nop
	}
.Ltmp25:
	#DEBUG_VALUE: i <- R8
	.loc	1 94 0                  # /Users/rcalhoun/code/git/sw_usb_audio/sc_usb_audio/module_usb_audio/ports/audioports.xc:94:0
	{
		lss r0, r8, r4
		nop
	}
.Lxta.loop_labels1:
	# LOOPMARKER 1
	bt r0, .LBB0_5
.Ltmp26:
.LBB0_6:                                # %ifdone36
.Lxtalabel8:
	.loc	1 109 0                 # /Users/rcalhoun/code/git/sw_usb_audio/sc_usb_audio/module_usb_audio/ports/audioports.xc:109:0
	{
		setc res[r6], 15
		nop
	}
	ldd r9, r8, sp[3]               # 4-byte Folded Reload
	ldd r7, r6, sp[2]               # 4-byte Folded Reload
	ldd r5, r4, sp[1]               # 4-byte Folded Reload
	{
		nop
		retsp 8
	}
	# RETURN_REG_HOLDER
.Ltmp27:
	.cc_bottom ConfigAudioPorts.function
	.set	ConfigAudioPorts.nstackwords,((configure_clock_src_divide.nstackwords $M configure_port_clock_output.nstackwords $M configure_out_port.nstackwords) + 8)
	.globl	ConfigAudioPorts.nstackwords
	.set	ConfigAudioPorts.maxcores,configure_clock_src_divide.maxcores $M configure_out_port.maxcores $M configure_port_clock_output.maxcores $M 1
	.globl	ConfigAudioPorts.maxcores
	.set	ConfigAudioPorts.maxtimers,configure_clock_src_divide.maxtimers $M configure_out_port.maxtimers $M configure_port_clock_output.maxtimers $M 0
	.globl	ConfigAudioPorts.maxtimers
	.set	ConfigAudioPorts.maxchanends,configure_clock_src_divide.maxchanends $M configure_out_port.maxchanends $M configure_port_clock_output.maxchanends $M 0
	.globl	ConfigAudioPorts.maxchanends
.Ltmp28:
	.size	ConfigAudioPorts, .Ltmp28-ConfigAudioPorts
.Lfunc_end0:
	.cfi_endproc

.Ldebug_end0:
	.file	2 "/Applications/XMOS_XTC_15.1.4/target/include/timer.h"
	.section	.xtacalltable,"",@progbits
.Lentries_start0:
	.long	.Lentries_end1-.Lentries_start0
	.long	0
	.ascii	"/Users/rcalhoun/code/git/sw_usb_audio/sw_usb_audio/app_usb_aud_mic_array/.build_2i8o2"
	.byte	0
.cc_top cc_0,.Lxta.call_labels0
	.ascii	"/Users/rcalhoun/code/git/sw_usb_audio/sc_usb_audio/module_usb_audio/ports/audioports.xc"
	.byte	0
	.long	60
	.long	.Lxta.call_labels0
.cc_bottom cc_0
.cc_top cc_1,.Lxta.call_labels1
	.ascii	"/Users/rcalhoun/code/git/sw_usb_audio/sc_usb_audio/module_usb_audio/ports/audioports.xc"
	.byte	0
	.long	61
	.long	.Lxta.call_labels1
.cc_bottom cc_1
.cc_top cc_2,.Lxta.call_labels2
	.ascii	"/Users/rcalhoun/code/git/sw_usb_audio/sc_usb_audio/module_usb_audio/ports/audioports.xc"
	.byte	0
	.long	89
	.long	.Lxta.call_labels2
.cc_bottom cc_2
.cc_top cc_3,.Lxta.call_labels3
	.ascii	"/Users/rcalhoun/code/git/sw_usb_audio/sc_usb_audio/module_usb_audio/ports/audioports.xc"
	.byte	0
	.long	96
	.long	.Lxta.call_labels3
.cc_bottom cc_3
.Lentries_end1:
	.section	.xtalabeltable,"",@progbits
.Lentries_start2:
	.long	.Lentries_end3-.Lentries_start2
	.long	0
	.ascii	"/Users/rcalhoun/code/git/sw_usb_audio/sw_usb_audio/app_usb_aud_mic_array/.build_2i8o2"
	.byte	0
.cc_top cc_4,.Lxtalabel0
	.ascii	"/Users/rcalhoun/code/git/sw_usb_audio/sc_usb_audio/module_usb_audio/ports/audioports.xc"
	.byte	0
	.long	32
	.long	32
	.long	.Lxtalabel0
.cc_bottom cc_4
.cc_top cc_5,.Lxtalabel0
	.ascii	"/Users/rcalhoun/code/git/sw_usb_audio/sc_usb_audio/module_usb_audio/ports/audioports.xc"
	.byte	0
	.long	36
	.long	36
	.long	.Lxtalabel0
.cc_bottom cc_5
.cc_top cc_6,.Lxtalabel0
	.ascii	"/Users/rcalhoun/code/git/sw_usb_audio/sc_usb_audio/module_usb_audio/ports/audioports.xc"
	.byte	0
	.long	38
	.long	38
	.long	.Lxtalabel0
.cc_bottom cc_6
.cc_top cc_7,.Lxtalabel1
	.ascii	"/Users/rcalhoun/code/git/sw_usb_audio/sc_usb_audio/module_usb_audio/ports/audioports.xc"
	.byte	0
	.long	39
	.long	39
	.long	.Lxtalabel1
.cc_bottom cc_7
.cc_top cc_8,.Lxtalabel1
	.ascii	"/Users/rcalhoun/code/git/sw_usb_audio/sc_usb_audio/module_usb_audio/ports/audioports.xc"
	.byte	0
	.long	40
	.long	40
	.long	.Lxtalabel1
.cc_bottom cc_8
.cc_top cc_9,.Lxtalabel1
	.ascii	"/Users/rcalhoun/code/git/sw_usb_audio/sc_usb_audio/module_usb_audio/ports/audioports.xc"
	.byte	0
	.long	41
	.long	41
	.long	.Lxtalabel1
.cc_bottom cc_9
.cc_top cc_10,.Lxtalabel2
	.ascii	"/Users/rcalhoun/code/git/sw_usb_audio/sc_usb_audio/module_usb_audio/ports/audioports.xc"
	.byte	0
	.long	42
	.long	42
	.long	.Lxtalabel2
.cc_bottom cc_10
.cc_top cc_11,.Lxtalabel2
	.ascii	"/Users/rcalhoun/code/git/sw_usb_audio/sc_usb_audio/module_usb_audio/ports/audioports.xc"
	.byte	0
	.long	52
	.long	52
	.long	.Lxtalabel2
.cc_bottom cc_11
.cc_top cc_12,.Lxtalabel3
	.ascii	"/Users/rcalhoun/code/git/sw_usb_audio/sc_usb_audio/module_usb_audio/ports/audioports.xc"
	.byte	0
	.long	53
	.long	53
	.long	.Lxtalabel3
.cc_bottom cc_12
.cc_top cc_13,.Lxtalabel3
	.ascii	"/Users/rcalhoun/code/git/sw_usb_audio/sc_usb_audio/module_usb_audio/ports/audioports.xc"
	.byte	0
	.long	54
	.long	54
	.long	.Lxtalabel3
.cc_bottom cc_13
.cc_top cc_14,.Lxtalabel3
	.ascii	"/Users/rcalhoun/code/git/sw_usb_audio/sc_usb_audio/module_usb_audio/ports/audioports.xc"
	.byte	0
	.long	55
	.long	55
	.long	.Lxtalabel3
.cc_bottom cc_14
.cc_top cc_15,.Lxtalabel4
	.ascii	"/Users/rcalhoun/code/git/sw_usb_audio/sc_usb_audio/module_usb_audio/ports/audioports.xc"
	.byte	0
	.long	60
	.long	61
	.long	.Lxtalabel4
.cc_bottom cc_15
.cc_top cc_16,.Lxtalabel4
	.ascii	"/Users/rcalhoun/code/git/sw_usb_audio/sc_usb_audio/module_usb_audio/ports/audioports.xc"
	.byte	0
	.long	86
	.long	86
	.long	.Lxtalabel4
.cc_bottom cc_16
.cc_top cc_17,.Lxtalabel5
	.ascii	"/Users/rcalhoun/code/git/sw_usb_audio/sc_usb_audio/module_usb_audio/ports/audioports.xc"
	.byte	0
	.long	87
	.long	87
	.long	.Lxtalabel5
.cc_bottom cc_17
.cc_top cc_18,.Lxtalabel5
	.ascii	"/Users/rcalhoun/code/git/sw_usb_audio/sc_usb_audio/module_usb_audio/ports/audioports.xc"
	.byte	0
	.long	89
	.long	89
	.long	.Lxtalabel5
.cc_bottom cc_18
.cc_top cc_19,.Lxtalabel5
	.ascii	"/Users/rcalhoun/code/git/sw_usb_audio/sc_usb_audio/module_usb_audio/ports/audioports.xc"
	.byte	0
	.long	90
	.long	90
	.long	.Lxtalabel5
.cc_bottom cc_19
.cc_top cc_20,.Lxtalabel6
	.ascii	"/Users/rcalhoun/code/git/sw_usb_audio/sc_usb_audio/module_usb_audio/ports/audioports.xc"
	.byte	0
	.long	94
	.long	94
	.long	.Lxtalabel6
.cc_bottom cc_20
.cc_top cc_21,.Lxtalabel7
	.ascii	"/Users/rcalhoun/code/git/sw_usb_audio/sc_usb_audio/module_usb_audio/ports/audioports.xc"
	.byte	0
	.long	95
	.long	95
	.long	.Lxtalabel7
.cc_bottom cc_21
.cc_top cc_22,.Lxtalabel7
	.ascii	"/Users/rcalhoun/code/git/sw_usb_audio/sc_usb_audio/module_usb_audio/ports/audioports.xc"
	.byte	0
	.long	96
	.long	96
	.long	.Lxtalabel7
.cc_bottom cc_22
.cc_top cc_23,.Lxtalabel7
	.ascii	"/Users/rcalhoun/code/git/sw_usb_audio/sc_usb_audio/module_usb_audio/ports/audioports.xc"
	.byte	0
	.long	97
	.long	97
	.long	.Lxtalabel7
.cc_bottom cc_23
.cc_top cc_24,.Lxtalabel8
	.ascii	"/Users/rcalhoun/code/git/sw_usb_audio/sc_usb_audio/module_usb_audio/ports/audioports.xc"
	.byte	0
	.long	109
	.long	109
	.long	.Lxtalabel8
.cc_bottom cc_24
.cc_top cc_25,.Lxtalabel8
	.ascii	"/Users/rcalhoun/code/git/sw_usb_audio/sc_usb_audio/module_usb_audio/ports/audioports.xc"
	.byte	0
	.long	151
	.long	151
	.long	.Lxtalabel8
.cc_bottom cc_25
.Lentries_end3:
	.section	.xtalooplabeltable,"",@progbits
.Lentries_start4:
	.long	.Lentries_end5-.Lentries_start4
	.long	0
	.ascii	"/Users/rcalhoun/code/git/sw_usb_audio/sw_usb_audio/app_usb_aud_mic_array/.build_2i8o2"
	.byte	0
.cc_top cc_26,.Lxta.loop_labels0
	.ascii	"/Users/rcalhoun/code/git/sw_usb_audio/sc_usb_audio/module_usb_audio/ports/audioports.xc"
	.byte	0
	.long	53
	.long	53
	.long	.Lxta.loop_labels0
.cc_bottom cc_26
.cc_top cc_27,.Lxta.loop_labels0
	.ascii	"/Users/rcalhoun/code/git/sw_usb_audio/sc_usb_audio/module_usb_audio/ports/audioports.xc"
	.byte	0
	.long	54
	.long	54
	.long	.Lxta.loop_labels0
.cc_bottom cc_27
.cc_top cc_28,.Lxta.loop_labels0
	.ascii	"/Users/rcalhoun/code/git/sw_usb_audio/sc_usb_audio/module_usb_audio/ports/audioports.xc"
	.byte	0
	.long	55
	.long	55
	.long	.Lxta.loop_labels0
.cc_bottom cc_28
.cc_top cc_29,.Lxta.loop_labels1
	.ascii	"/Users/rcalhoun/code/git/sw_usb_audio/sc_usb_audio/module_usb_audio/ports/audioports.xc"
	.byte	0
	.long	95
	.long	95
	.long	.Lxta.loop_labels1
.cc_bottom cc_29
.cc_top cc_30,.Lxta.loop_labels1
	.ascii	"/Users/rcalhoun/code/git/sw_usb_audio/sc_usb_audio/module_usb_audio/ports/audioports.xc"
	.byte	0
	.long	96
	.long	96
	.long	.Lxta.loop_labels1
.cc_bottom cc_30
.cc_top cc_31,.Lxta.loop_labels1
	.ascii	"/Users/rcalhoun/code/git/sw_usb_audio/sc_usb_audio/module_usb_audio/ports/audioports.xc"
	.byte	0
	.long	97
	.long	97
	.long	.Lxta.loop_labels1
.cc_bottom cc_31
.Lentries_end5:
	.section	.trap_info,"",@progbits
.Ltrap_info_entries_start0:
	.long	.Ltrap_info_entries_end0-.Ltrap_info_entries_start0
	.long	1
	.section	.trap_info_str,"MS",@progbits
.Ltrap_info_str0:
.asciiz"/Users/rcalhoun/code/git/sw_usb_audio/sc_usb_audio/module_usb_audio/ports/audioports.xc:54:18: error: out of bounds array access\n        clearbuf(p_i2s_dac[i]);\n                 ^~~~~~~~~~~~\n/Applications/XMOS_XTC_15.1.4/target/include/xs1.h:1070:67: note: expanded from macro 'clearbuf'\n#define clearbuf(p)                          __builtin_clear_buff(p)\n                                                                  ^\n"
	.section	.trap_info,"",@progbits
.cc_top cc_trapinfo_0,.Ltrap_info0
	.long	.Ltrap_info0
	.long	.Ltrap_info_str0
.cc_bottom cc_trapinfo_0
	.section	.trap_info_str,"MS",@progbits
.Ltrap_info_str1:
.asciiz"/Users/rcalhoun/code/git/sw_usb_audio/sc_usb_audio/module_usb_audio/ports/audioports.xc:96:37: error: out of bounds array access\n        configure_out_port_no_ready(p_i2s_dac[i], clk_audio_bclk, 0);\n                                    ^~~~~~~~~~~~\n/Applications/XMOS_XTC_15.1.4/target/include/xs1.h:256:73: note: expanded from macro 'configure_out_port_no_ready'\n#define configure_out_port_no_ready(p, clk, initial) configure_out_port(p, clk, initial)\n                                                                        ^\n"
	.section	.trap_info,"",@progbits
.cc_top cc_trapinfo_1,.Ltrap_info1
	.long	.Ltrap_info1
	.long	.Ltrap_info_str1
.cc_bottom cc_trapinfo_1
.Ltrap_info_entries_end0: