	.text
	.file	"/Users/rcalhoun/code/git/sw_usb_audio/lib_mic_array/lib_mic_array/src/decimator_interface.xc"
                                        # Start of file scope inline assembly
	.inline_definition delay_seconds
	.inline_definition delay_milliseconds
	.inline_definition delay_microseconds
	.inline_definition _safe_memcmp
	.inline_definition _safe_memmove
	.inline_definition _safe_memset
	.set usage.anon.0,0
	.set usage.anon.1,0
	.set usage.anon.2,0
	.set usage.anon.3,0
	.set usage.anon.4,0
	.set usage.anon.5,0
	.call usage.anon.5,memset
	.call usage.anon.4,memmove
	.call usage.anon.3,memcmp
	.call usage.anon.2,delay_ticks_longlong
	.call usage.anon.1,delay_ticks_longlong
	.call usage.anon.0,delay_ticks_longlong
	.set mic_array_init_time_domain_frame.locnoside, 0
	.set mic_array_get_next_time_domain_frame.locnoside, 0
	.set mic_array_init_frequency_domain_frame.locnoside, 0
	.set mic_array_get_next_frequency_domain_frame.locnoside, 0
	.set mic_array_decimator_configure.locnoside, 0
	.assert 1,memset.actnoglobalaccess,"In file included from /Users/rcalhoun/code/git/sw_usb_audio/lib_mic_array/lib_mic_array/src/decimator_interface.xc:4:\nIn file included from /Applications/XMOS_XTC_15.1.4/target/include/xc/string.h:5:\n/Applications/XMOS_XTC_15.1.4/target/include/xc/safe/string.h:21:3: error: passing non-local alias to function `memset\' which accesses a global variable\n  memset(s, c, n);\n  ^~~~~~~~~~~~~~~"
	.assert 1,memmove.actnoglobalaccess,"In file included from /Users/rcalhoun/code/git/sw_usb_audio/lib_mic_array/lib_mic_array/src/decimator_interface.xc:4:\nIn file included from /Applications/XMOS_XTC_15.1.4/target/include/xc/string.h:5:\n/Applications/XMOS_XTC_15.1.4/target/include/xc/safe/string.h:15:3: error: passing non-local alias to function `memmove\' which accesses a global variable\n  memmove(s1, s2, n);\n  ^~~~~~~~~~~~~~~~~~"

                                        # End of file scope inline assembly
	.text
	.globl	mic_array_init_time_domain_frame
	.align	4
	.type	mic_array_init_time_domain_frame,@function
	.cc_top mic_array_init_time_domain_frame.function,mic_array_init_time_domain_frame
mic_array_init_time_domain_frame:       # @mic_array_init_time_domain_frame
.Lfunc_begin0:
	.loc	1 15 0                  # /Users/rcalhoun/code/git/sw_usb_audio/lib_mic_array/lib_mic_array/src/decimator_interface.xc:15:0
	.cfi_startproc
	.issue_mode dual
# BB#0:                                 # %allocas
.Lxtalabel0:
	{
		nop
		dualentsp 12
	}
.Ltmp0:
	.cfi_def_cfa_offset 48
.Ltmp1:
	.cfi_offset 15, 0
	std r5, r4, sp[2]               # 4-byte Folded Spill
.Ltmp2:
	.cfi_offset 4, -32
.Ltmp3:
	.cfi_offset 5, -28
	std r7, r6, sp[3]               # 4-byte Folded Spill
.Ltmp4:
	.cfi_offset 6, -24
.Ltmp5:
	.cfi_offset 7, -20
	std r9, r8, sp[4]               # 4-byte Folded Spill
.Ltmp6:
	.cfi_offset 8, -16
.Ltmp7:
	.cfi_offset 9, -12
	{
		nop
		stw r10, sp[10]
	}
.Ltmp8:
	.cfi_offset 10, -8
	#DEBUG_VALUE: mic_array_init_time_domain_frame:c_from_decimator <- R0
	#DEBUG_VALUE: mic_array_init_time_domain_frame:decimator_count <- R1
	#DEBUG_VALUE: mic_array_init_time_domain_frame:buffer <- R2
	#DEBUG_VALUE: mic_array_init_time_domain_frame:audio <- R3
.Ltmp9:
	#DEBUG_VALUE: frames <- 1
	ldd r4, r11, sp[7]
	{
		nop
		stw r4, sp[2]
	}
	{
		nop
		ldw r4, sp[16]
	}
.Ltrap_info0:
	{
		ecallf r4
		nop
	}
	#DEBUG_VALUE: mic_array_init_time_domain_frame:c_from_decimator <- R0
	#DEBUG_VALUE: mic_array_init_time_domain_frame:decimator_count <- R1
	#DEBUG_VALUE: mic_array_init_time_domain_frame:buffer <- R2
	#DEBUG_VALUE: mic_array_init_time_domain_frame:audio <- R3
	#DEBUG_VALUE: frames <- 1
	{
		nop
		ldw r4, sp[13]
	}
	#DEBUG_VALUE: mic_array_init_time_domain_frame:dc <- R4
	{
		nop
		ldw r4, r4[0]
	}
.Ltmp10:
	{
		nop
		ldw r4, r4[8]
	}
.Ltmp11:
	#DEBUG_VALUE: buffering_type <- R4
	.loc	1 22 0 prologue_end     # /Users/rcalhoun/code/git/sw_usb_audio/lib_mic_array/lib_mic_array/src/decimator_interface.xc:22:0
	bt r4, .LBB0_1
.Ltmp12:
# BB#2:                                 # %afterboundcheck
.Lxtalabel1:
	#DEBUG_VALUE: mic_array_init_time_domain_frame:c_from_decimator <- R0
	#DEBUG_VALUE: mic_array_init_time_domain_frame:decimator_count <- R1
	#DEBUG_VALUE: mic_array_init_time_domain_frame:buffer <- R2
	#DEBUG_VALUE: mic_array_init_time_domain_frame:audio <- R3
	{
		mkmsk r7, 1
		nop
	}
	bu .LBB0_3
.Ltmp13:
.LBB0_1:
	#DEBUG_VALUE: mic_array_init_time_domain_frame:c_from_decimator <- R0
	#DEBUG_VALUE: mic_array_init_time_domain_frame:decimator_count <- R1
	#DEBUG_VALUE: mic_array_init_time_domain_frame:buffer <- R2
	#DEBUG_VALUE: mic_array_init_time_domain_frame:audio <- R3
	{
		ldc r7, 2
		nop
	}
.Ltmp14:
.LBB0_3:                                # %afterboundcheck
.Lxtalabel2:
	#DEBUG_VALUE: mic_array_init_time_domain_frame:c_from_decimator <- R0
	#DEBUG_VALUE: mic_array_init_time_domain_frame:decimator_count <- R1
	#DEBUG_VALUE: mic_array_init_time_domain_frame:buffer <- R2
	#DEBUG_VALUE: mic_array_init_time_domain_frame:audio <- R3
	#DEBUG_VALUE: frames <- 1
	#DEBUG_VALUE: i <- 0
	{
		ldc r6, 0
		stw r7, sp[1]
	}
	.loc	1 34 0                  # /Users/rcalhoun/code/git/sw_usb_audio/lib_mic_array/lib_mic_array/src/decimator_interface.xc:34:0
.Ltmp15:
	bf r1, .LBB0_4
.Ltmp16:
# BB#17:
	#DEBUG_VALUE: mic_array_init_time_domain_frame:c_from_decimator <- R0
	#DEBUG_VALUE: mic_array_init_time_domain_frame:decimator_count <- R1
	#DEBUG_VALUE: mic_array_init_time_domain_frame:buffer <- R2
	#DEBUG_VALUE: mic_array_init_time_domain_frame:audio <- R3
	{
		mov r5, r6
		nop
	}
.Ltmp17:
.LBB0_18:                               # %LoopBody
                                        # =>This Inner Loop Header: Depth=1
.Lxtalabel3:
	#DEBUG_VALUE: mic_array_init_time_domain_frame:c_from_decimator <- R0
	#DEBUG_VALUE: mic_array_init_time_domain_frame:decimator_count <- R1
	#DEBUG_VALUE: mic_array_init_time_domain_frame:buffer <- R2
	#DEBUG_VALUE: mic_array_init_time_domain_frame:audio <- R3
	.loc	1 35 38                 # /Users/rcalhoun/code/git/sw_usb_audio/lib_mic_array/lib_mic_array/src/decimator_interface.xc:35:38
	{
		lsu r4, r5, r11
		nop
	}
.Ltrap_info1:
	{
		ecallf r4
		nop
	}
	#DEBUG_VALUE: mic_array_init_time_domain_frame:c_from_decimator <- R0
	#DEBUG_VALUE: mic_array_init_time_domain_frame:decimator_count <- R1
	#DEBUG_VALUE: mic_array_init_time_domain_frame:buffer <- R2
	#DEBUG_VALUE: mic_array_init_time_domain_frame:audio <- R3
	{
		nop
		ldw r4, r0[r5]
	}
.Ltmp18:
	#DEBUG_VALUE: i <- R5
	.loc	1 35 38                 # /Users/rcalhoun/code/git/sw_usb_audio/lib_mic_array/lib_mic_array/src/decimator_interface.xc:35:38
.Lxta.endpoint_labels0:
	{
		out res[r4], r7
		add r5, r5, 1
	}
.Ltmp19:
	.loc	1 34 0                  # /Users/rcalhoun/code/git/sw_usb_audio/lib_mic_array/lib_mic_array/src/decimator_interface.xc:34:0
	{
		lsu r4, r5, r1
		nop
	}
.Lxta.loop_labels0:
	# LOOPMARKER 0
	bt r4, .LBB0_18
.Ltmp20:
# BB#10:                                # %LoopBody32.preheader
	#DEBUG_VALUE: mic_array_init_time_domain_frame:c_from_decimator <- R0
	#DEBUG_VALUE: mic_array_init_time_domain_frame:decimator_count <- R1
	#DEBUG_VALUE: mic_array_init_time_domain_frame:buffer <- R2
	#DEBUG_VALUE: mic_array_init_time_domain_frame:audio <- R3
	{
		nop
		stw r2, sp[0]
	}
.Ltmp21:
	#DEBUG_VALUE: mic_array_init_time_domain_frame:buffer <- [SP+0]
	bf r1, .LBB0_5
.Ltmp22:
# BB#11:                                # %LoopBody43.preheader.us.preheader
	#DEBUG_VALUE: mic_array_init_time_domain_frame:c_from_decimator <- R0
	#DEBUG_VALUE: mic_array_init_time_domain_frame:decimator_count <- R1
	#DEBUG_VALUE: mic_array_init_time_domain_frame:buffer <- [SP+0]
	#DEBUG_VALUE: mic_array_init_time_domain_frame:audio <- R3
	ldaw r2, r3[10]
	{
		ldc r4, 0
		stw r2, sp[3]
	}
	{
		mkmsk r8, 3
		nop
	}
	ldc r9, 72
	{
		mov r10, r4
		nop
	}
.Ltmp23:
.LBB0_14:                               # %LoopBody43.preheader.us
                                        # =>This Loop Header: Depth=1
                                        #     Child Loop BB0_15 Depth 2
                                        #     Child Loop BB0_12 Depth 2
.Lxtalabel4:
	#DEBUG_VALUE: mic_array_init_time_domain_frame:c_from_decimator <- R0
	#DEBUG_VALUE: mic_array_init_time_domain_frame:decimator_count <- R1
	#DEBUG_VALUE: mic_array_init_time_domain_frame:buffer <- [SP+0]
	#DEBUG_VALUE: mic_array_init_time_domain_frame:audio <- R3
	#DEBUG_VALUE: i <- 0
	{
		nop
		ldw r2, sp[2]
	}
	{
		lsu r2, r10, r2
		mov r7, r4
	}
	{
		mov r6, r4
		nop
	}
	bf r2, .LBB0_19
.Ltmp24:
.LBB0_15:                               # %LoopBody43.us.us
                                        #   Parent Loop BB0_14 Depth=1
                                        # =>  This Inner Loop Header: Depth=2
.Lxtalabel5:
	#DEBUG_VALUE: mic_array_init_time_domain_frame:c_from_decimator <- R0
	#DEBUG_VALUE: mic_array_init_time_domain_frame:decimator_count <- R1
	#DEBUG_VALUE: mic_array_init_time_domain_frame:buffer <- [SP+0]
	#DEBUG_VALUE: mic_array_init_time_domain_frame:audio <- R3
	#DEBUG_VALUE: i <- 0
	.loc	1 42 77                 # /Users/rcalhoun/code/git/sw_usb_audio/lib_mic_array/lib_mic_array/src/decimator_interface.xc:42:77
	{
		lsu r2, r7, r11
		nop
	}
.Ltrap_info2:
	{
		ecallf r2
		nop
	}
	#DEBUG_VALUE: mic_array_init_time_domain_frame:c_from_decimator <- R0
	#DEBUG_VALUE: mic_array_init_time_domain_frame:decimator_count <- R1
	#DEBUG_VALUE: mic_array_init_time_domain_frame:buffer <- [SP+0]
	#DEBUG_VALUE: mic_array_init_time_domain_frame:audio <- R3
	#DEBUG_VALUE: i <- 0
	.loc	1 42 77                 # /Users/rcalhoun/code/git/sw_usb_audio/lib_mic_array/lib_mic_array/src/decimator_interface.xc:42:77
	{
		shl r5, r7, 2
		nop
	}
	.loc	1 42 77                 # /Users/rcalhoun/code/git/sw_usb_audio/lib_mic_array/lib_mic_array/src/decimator_interface.xc:42:77
	{
		lsu r2, r8, r5
		nop
	}
.Ltrap_info3:
	{
		ecallt r2
		nop
	}
	#DEBUG_VALUE: mic_array_init_time_domain_frame:c_from_decimator <- R0
	#DEBUG_VALUE: mic_array_init_time_domain_frame:decimator_count <- R1
	#DEBUG_VALUE: mic_array_init_time_domain_frame:buffer <- [SP+0]
	#DEBUG_VALUE: mic_array_init_time_domain_frame:audio <- R3
	#DEBUG_VALUE: i <- 0
	{
		nop
		ldw r2, r0[r7]
	}
	.loc	1 42 77                 # /Users/rcalhoun/code/git/sw_usb_audio/lib_mic_array/lib_mic_array/src/decimator_interface.xc:42:77
	mul r4, r10, r9
	{
		add r4, r3, r4
		nop
	}
	ldaw r4, r4[r5]
	{
		add r4, r4, 8
		nop
	}
	.loc	1 42 77                 # /Users/rcalhoun/code/git/sw_usb_audio/lib_mic_array/lib_mic_array/src/decimator_interface.xc:42:77
	#APP
	#NO_APP
.Ltmp25:
	#DEBUG_VALUE: i <- R7
	.loc	1 42 77                 # /Users/rcalhoun/code/git/sw_usb_audio/lib_mic_array/lib_mic_array/src/decimator_interface.xc:42:77
.Lxta.endpoint_labels1:
	{
		out res[r2], r4
		add r7, r7, 1
	}
.Ltmp26:
	.loc	1 38 0                  # /Users/rcalhoun/code/git/sw_usb_audio/lib_mic_array/lib_mic_array/src/decimator_interface.xc:38:0
	{
		lsu r2, r7, r1
		nop
	}
.Lxta.loop_labels1:
	# LOOPMARKER 2
	bt r2, .LBB0_15
.Ltmp27:
# BB#16:                                #   in Loop: Header=BB0_14 Depth=1
	#DEBUG_VALUE: mic_array_init_time_domain_frame:c_from_decimator <- R0
	#DEBUG_VALUE: mic_array_init_time_domain_frame:decimator_count <- R1
	#DEBUG_VALUE: mic_array_init_time_domain_frame:buffer <- [SP+0]
	#DEBUG_VALUE: mic_array_init_time_domain_frame:audio <- R3
	{
		mov r4, r6
		ldw r7, sp[3]
	}
	{
		mov r5, r4
		nop
	}
.Ltmp28:
.LBB0_12:                               # %LoopBody77.us
                                        #   Parent Loop BB0_14 Depth=1
                                        # =>  This Inner Loop Header: Depth=2
.Lxtalabel6:
	#DEBUG_VALUE: mic_array_init_time_domain_frame:c_from_decimator <- R0
	#DEBUG_VALUE: mic_array_init_time_domain_frame:decimator_count <- R1
	#DEBUG_VALUE: mic_array_init_time_domain_frame:buffer <- [SP+0]
	#DEBUG_VALUE: mic_array_init_time_domain_frame:audio <- R3
	.loc	1 46 91                 # /Users/rcalhoun/code/git/sw_usb_audio/lib_mic_array/lib_mic_array/src/decimator_interface.xc:46:91
	{
		lsu r2, r5, r11
		nop
	}
.Ltrap_info4:
	{
		ecallf r2
		nop
	}
	#DEBUG_VALUE: mic_array_init_time_domain_frame:c_from_decimator <- R0
	#DEBUG_VALUE: mic_array_init_time_domain_frame:decimator_count <- R1
	#DEBUG_VALUE: mic_array_init_time_domain_frame:buffer <- [SP+0]
	#DEBUG_VALUE: mic_array_init_time_domain_frame:audio <- R3
	{
		nop
		ldw r2, r0[r5]
	}
	.loc	1 46 91                 # /Users/rcalhoun/code/git/sw_usb_audio/lib_mic_array/lib_mic_array/src/decimator_interface.xc:46:91
	#APP
	#NO_APP
.Ltmp29:
	#DEBUG_VALUE: i <- R5
	.loc	1 46 91                 # /Users/rcalhoun/code/git/sw_usb_audio/lib_mic_array/lib_mic_array/src/decimator_interface.xc:46:91
.Lxta.endpoint_labels2:
	{
		out res[r2], r7
		add r5, r5, 1
	}
.Ltmp30:
	.loc	1 45 0                  # /Users/rcalhoun/code/git/sw_usb_audio/lib_mic_array/lib_mic_array/src/decimator_interface.xc:45:0
	ldaw r7, r7[4]
	.loc	1 45 0                  # /Users/rcalhoun/code/git/sw_usb_audio/lib_mic_array/lib_mic_array/src/decimator_interface.xc:45:0
	{
		lsu r2, r5, r1
		nop
	}
.Lxta.loop_labels2:
	# LOOPMARKER 3
	bt r2, .LBB0_12
.Ltmp31:
# BB#13:                                # %LoopIncrement34.us
                                        #   in Loop: Header=BB0_14 Depth=1
.Lxtalabel7:
	#DEBUG_VALUE: mic_array_init_time_domain_frame:c_from_decimator <- R0
	#DEBUG_VALUE: mic_array_init_time_domain_frame:decimator_count <- R1
	#DEBUG_VALUE: mic_array_init_time_domain_frame:buffer <- [SP+0]
	#DEBUG_VALUE: mic_array_init_time_domain_frame:audio <- R3
	#DEBUG_VALUE: f <- R10
	.loc	1 36 0                  # /Users/rcalhoun/code/git/sw_usb_audio/lib_mic_array/lib_mic_array/src/decimator_interface.xc:36:0
	{
		add r10, r10, 1
		ldw r2, sp[3]
	}
.Ltmp32:
	.loc	1 36 0                  # /Users/rcalhoun/code/git/sw_usb_audio/lib_mic_array/lib_mic_array/src/decimator_interface.xc:36:0
	{
		add r2, r2, r9
		nop
	}
	{
		nop
		stw r2, sp[3]
	}
.Lxta.loop_labels3:
	# LOOPMARKER 4
	{
		nop
		ldw r7, sp[1]
	}
	.loc	1 36 0                  # /Users/rcalhoun/code/git/sw_usb_audio/lib_mic_array/lib_mic_array/src/decimator_interface.xc:36:0
	{
		lsu r2, r10, r7
		nop
	}
	bt r2, .LBB0_14
	bu .LBB0_6
.Ltmp33:
.LBB0_4:
	#DEBUG_VALUE: mic_array_init_time_domain_frame:c_from_decimator <- R0
	#DEBUG_VALUE: mic_array_init_time_domain_frame:decimator_count <- R1
	#DEBUG_VALUE: mic_array_init_time_domain_frame:buffer <- R2
	{
		nop
		stw r2, sp[0]
	}
.Ltmp34:
	#DEBUG_VALUE: mic_array_init_time_domain_frame:buffer <- [SP+0]
.LBB0_5:                                # %LoopIncrement34
                                        # =>This Inner Loop Header: Depth=1
.Lxtalabel8:
	#DEBUG_VALUE: mic_array_init_time_domain_frame:c_from_decimator <- R0
	#DEBUG_VALUE: mic_array_init_time_domain_frame:decimator_count <- R1
	#DEBUG_VALUE: mic_array_init_time_domain_frame:buffer <- [SP+0]
	#DEBUG_VALUE: frames <- 1
	#DEBUG_VALUE: i <- 0
	.loc	1 36 0                  # /Users/rcalhoun/code/git/sw_usb_audio/lib_mic_array/lib_mic_array/src/decimator_interface.xc:36:0
	{
		add r6, r6, 1
		nop
	}
.Ltmp35:
	#DEBUG_VALUE: f <- R6
	.loc	1 36 0                  # /Users/rcalhoun/code/git/sw_usb_audio/lib_mic_array/lib_mic_array/src/decimator_interface.xc:36:0
	{
		lsu r2, r6, r7
		nop
	}
.Lxta.loop_labels4:
	# LOOPMARKER 1
	bt r2, .LBB0_5
.Ltmp36:
.LBB0_6:                                # %ifdone26
.Lxtalabel9:
	#DEBUG_VALUE: mic_array_init_time_domain_frame:c_from_decimator <- R0
	#DEBUG_VALUE: mic_array_init_time_domain_frame:decimator_count <- R1
	#DEBUG_VALUE: mic_array_init_time_domain_frame:buffer <- [SP+0]
	#DEBUG_VALUE: frames <- 1
	#DEBUG_VALUE: i <- 0
	{
		nop
		ldw r4, sp[0]
	}
.Ltmp37:
	#DEBUG_VALUE: mic_array_init_time_domain_frame:buffer <- R4
	bf r1, .LBB0_9
.Ltmp38:
# BB#7:
	#DEBUG_VALUE: mic_array_init_time_domain_frame:c_from_decimator <- R0
	#DEBUG_VALUE: mic_array_init_time_domain_frame:decimator_count <- R1
	#DEBUG_VALUE: mic_array_init_time_domain_frame:buffer <- R4
	{
		ldc r2, 0
		nop
	}
.Ltmp39:
.LBB0_8:                                # %LoopBody116
                                        # =>This Inner Loop Header: Depth=1
.Lxtalabel10:
	#DEBUG_VALUE: mic_array_init_time_domain_frame:c_from_decimator <- R0
	#DEBUG_VALUE: mic_array_init_time_domain_frame:decimator_count <- R1
	#DEBUG_VALUE: mic_array_init_time_domain_frame:buffer <- R4
	.loc	1 50 0                  # /Users/rcalhoun/code/git/sw_usb_audio/lib_mic_array/lib_mic_array/src/decimator_interface.xc:50:0
	{
		lsu r3, r2, r11
		nop
	}
.Ltrap_info5:
	{
		ecallf r3
		nop
	}
	#DEBUG_VALUE: mic_array_init_time_domain_frame:c_from_decimator <- R0
	#DEBUG_VALUE: mic_array_init_time_domain_frame:decimator_count <- R1
	#DEBUG_VALUE: mic_array_init_time_domain_frame:buffer <- R4
	{
		nop
		ldw r3, r0[r2]
	}
.Ltmp40:
	#DEBUG_VALUE: i <- R2
	.loc	1 50 0                  # /Users/rcalhoun/code/git/sw_usb_audio/lib_mic_array/lib_mic_array/src/decimator_interface.xc:50:0
	{
		chkct res[r3], 8
		add r2, r2, 1
	}
.Ltmp41:
	.loc	1 49 0                  # /Users/rcalhoun/code/git/sw_usb_audio/lib_mic_array/lib_mic_array/src/decimator_interface.xc:49:0
	{
		lsu r3, r2, r1
		nop
	}
.Lxta.loop_labels5:
	# LOOPMARKER 5
	bt r3, .LBB0_8
.Ltmp42:
.LBB0_9:                                # %ifdone110
.Lxtalabel11:
	#DEBUG_VALUE: mic_array_init_time_domain_frame:buffer <- R4
	#DEBUG_VALUE: frames <- 1
	{
		nop
		stw r7, r4[0]
	}
	{
		nop
		ldw r10, sp[10]
	}
	ldd r9, r8, sp[4]               # 4-byte Folded Reload
	ldd r7, r6, sp[3]               # 4-byte Folded Reload
	ldd r5, r4, sp[2]               # 4-byte Folded Reload
.Ltmp43:
	{
		nop
		retsp 12
	}
	# RETURN_REG_HOLDER
.LBB0_19:                               # %LoopBody43.us133
.Lxtalabel12:
	#DEBUG_VALUE: i <- 0
.Ltrap_info6:
	{
		ecallf r11
		nop
	}
	{
		ldc r0, 0
		nop
	}
.Ltrap_info7:
.xtataskstop
	{
		ecallf r0
		nop
	}
	.cc_bottom mic_array_init_time_domain_frame.function
	.set	mic_array_init_time_domain_frame.nstackwords,12
	.globl	mic_array_init_time_domain_frame.nstackwords
	.set	mic_array_init_time_domain_frame.maxcores,1
	.globl	mic_array_init_time_domain_frame.maxcores
	.set	mic_array_init_time_domain_frame.maxtimers,0
	.globl	mic_array_init_time_domain_frame.maxtimers
	.set	mic_array_init_time_domain_frame.maxchanends,0
	.globl	mic_array_init_time_domain_frame.maxchanends
.Ltmp44:
	.size	mic_array_init_time_domain_frame, .Ltmp44-mic_array_init_time_domain_frame
.Lfunc_end0:
	.cfi_endproc

	.globl	_Smic_array_init_time_domain_frame_0
	.align	4
	.type	_Smic_array_init_time_domain_frame_0,@function
	.cc_top _Smic_array_init_time_domain_frame_0.function,_Smic_array_init_time_domain_frame_0
_Smic_array_init_time_domain_frame_0:   # @_Smic_array_init_time_domain_frame_0
.Lfunc_begin1:
	.loc	1 15 0                  # /Users/rcalhoun/code/git/sw_usb_audio/lib_mic_array/lib_mic_array/src/decimator_interface.xc:15:0
	.cfi_startproc
	.issue_mode dual
# BB#0:                                 # %allocas
.Lxtalabel13:
	{
		nop
		dualentsp 10
	}
.Ltmp45:
	.cfi_def_cfa_offset 40
.Ltmp46:
	.cfi_offset 15, 0
	std r5, r4, sp[1]               # 4-byte Folded Spill
.Ltmp47:
	.cfi_offset 4, -32
.Ltmp48:
	.cfi_offset 5, -28
	std r7, r6, sp[2]               # 4-byte Folded Spill
.Ltmp49:
	.cfi_offset 6, -24
.Ltmp50:
	.cfi_offset 7, -20
	std r9, r8, sp[3]               # 4-byte Folded Spill
.Ltmp51:
	.cfi_offset 8, -16
.Ltmp52:
	.cfi_offset 9, -12
	{
		nop
		stw r10, sp[8]
	}
.Ltmp53:
	.cfi_offset 10, -8
	#DEBUG_VALUE: mic_array_init_time_domain_frame:c_from_decimator <- R0
	#DEBUG_VALUE: mic_array_init_time_domain_frame:buffer <- R1
	#DEBUG_VALUE: mic_array_init_time_domain_frame:audio <- R2
	#DEBUG_VALUE: mic_array_init_time_domain_frame:dc <- R3
.Ltmp54:
	#DEBUG_VALUE: decimator_count <- 2
	#DEBUG_VALUE: frames <- 1
	ldd r11, r4, sp[6]
	#DEBUG_VALUE: mic_array_init_time_domain_frame:c_from_decimator <- R0
	#DEBUG_VALUE: mic_array_init_time_domain_frame:buffer <- R1
	#DEBUG_VALUE: mic_array_init_time_domain_frame:audio <- R2
	#DEBUG_VALUE: mic_array_init_time_domain_frame:dc <- R3
	#DEBUG_VALUE: decimator_count <- 2
	#DEBUG_VALUE: frames <- 1
	.loc	1 19 0 prologue_end     # /Users/rcalhoun/code/git/sw_usb_audio/lib_mic_array/lib_mic_array/src/decimator_interface.xc:19:0
.Ltmp55:
.Ltrap_info8:
	{
		ecallf r11
		stw r4, sp[1]
	}
	{
		nop
		ldw r3, r3[0]
	}
.Ltmp56:
	#DEBUG_VALUE: buffering_type <- R11
	.loc	1 19 0                  # /Users/rcalhoun/code/git/sw_usb_audio/lib_mic_array/lib_mic_array/src/decimator_interface.xc:19:0
	{
		ldc r5, 2
		ldw r11, r3[8]
	}
.Ltmp57:
	.loc	1 22 0                  # /Users/rcalhoun/code/git/sw_usb_audio/lib_mic_array/lib_mic_array/src/decimator_interface.xc:22:0
	{
		mov r3, r5
		nop
	}
	bt r11, .LBB1_2
.Ltmp58:
# BB#1:                                 # %afterboundcheck
	#DEBUG_VALUE: mic_array_init_time_domain_frame:c_from_decimator <- R0
	#DEBUG_VALUE: mic_array_init_time_domain_frame:buffer <- R1
	#DEBUG_VALUE: mic_array_init_time_domain_frame:audio <- R2
	{
		mkmsk r3, 1
		nop
	}
.Ltmp59:
.LBB1_2:                                # %afterboundcheck
	#DEBUG_VALUE: mic_array_init_time_domain_frame:c_from_decimator <- R0
	#DEBUG_VALUE: mic_array_init_time_domain_frame:buffer <- R1
	#DEBUG_VALUE: mic_array_init_time_domain_frame:audio <- R2
	#DEBUG_VALUE: decimator_count <- 2
	#DEBUG_VALUE: frames <- 1
	{
		nop
		stw r1, sp[0]
	}
.Ltmp60:
	#DEBUG_VALUE: mic_array_init_time_domain_frame:buffer <- [SP+0]
	{
		ldc r4, 0
		ldw r11, sp[11]
	}
.Ltmp61:
.LBB1_3:                                # %LoopBody
                                        # =>This Inner Loop Header: Depth=1
.Lxtalabel14:
	#DEBUG_VALUE: mic_array_init_time_domain_frame:c_from_decimator <- R0
	#DEBUG_VALUE: mic_array_init_time_domain_frame:buffer <- [SP+0]
	#DEBUG_VALUE: mic_array_init_time_domain_frame:audio <- R2
	#DEBUG_VALUE: decimator_count <- 2
	#DEBUG_VALUE: frames <- 1
	.loc	1 35 38                 # /Users/rcalhoun/code/git/sw_usb_audio/lib_mic_array/lib_mic_array/src/decimator_interface.xc:35:38
	{
		lsu r6, r4, r11
		nop
	}
.Ltrap_info9:
	{
		ecallf r6
		nop
	}
	#DEBUG_VALUE: mic_array_init_time_domain_frame:c_from_decimator <- R0
	#DEBUG_VALUE: mic_array_init_time_domain_frame:buffer <- [SP+0]
	#DEBUG_VALUE: mic_array_init_time_domain_frame:audio <- R2
	#DEBUG_VALUE: decimator_count <- 2
	#DEBUG_VALUE: frames <- 1
	{
		nop
		ldw r6, r0[r4]
	}
.Ltmp62:
	#DEBUG_VALUE: i <- R4
	.loc	1 35 38                 # /Users/rcalhoun/code/git/sw_usb_audio/lib_mic_array/lib_mic_array/src/decimator_interface.xc:35:38
.Lxta.endpoint_labels3:
	{
		out res[r6], r3
		add r4, r4, 1
	}
.Ltmp63:
	.loc	1 34 0                  # /Users/rcalhoun/code/git/sw_usb_audio/lib_mic_array/lib_mic_array/src/decimator_interface.xc:34:0
	{
		lsu r6, r4, r5
		nop
	}
.Lxta.loop_labels6:
	# LOOPMARKER 0
	bt r6, .LBB1_3
.Ltmp64:
# BB#4:                                 # %LoopBody32.preheader
	#DEBUG_VALUE: mic_array_init_time_domain_frame:c_from_decimator <- R0
	#DEBUG_VALUE: mic_array_init_time_domain_frame:buffer <- [SP+0]
	#DEBUG_VALUE: mic_array_init_time_domain_frame:audio <- R2
	#DEBUG_VALUE: decimator_count <- 2
	#DEBUG_VALUE: frames <- 1
	{
		add r6, r2, 8
		nop
	}
	ldaw r7, r2[10]
	{
		ldc r4, 0
		ldc r5, 2
	}
	ldc r8, 72
	{
		mov r9, r4
		nop
	}
.Ltmp65:
.LBB1_5:                                # %LoopBody32
                                        # =>This Loop Header: Depth=1
                                        #     Child Loop BB1_6 Depth 2
                                        #     Child Loop BB1_8 Depth 2
.Lxtalabel15:
	#DEBUG_VALUE: mic_array_init_time_domain_frame:c_from_decimator <- R0
	#DEBUG_VALUE: mic_array_init_time_domain_frame:buffer <- [SP+0]
	#DEBUG_VALUE: i <- 0
	{
		nop
		ldw r1, sp[1]
	}
	{
		lsu r1, r9, r1
		mov r10, r6
	}
	{
		mov r2, r4
		nop
	}
	bf r1, .LBB1_12
.Ltmp66:
.LBB1_6:                                # %LoopBody43.us
                                        #   Parent Loop BB1_5 Depth=1
                                        # =>  This Inner Loop Header: Depth=2
.Lxtalabel16:
	#DEBUG_VALUE: mic_array_init_time_domain_frame:c_from_decimator <- R0
	#DEBUG_VALUE: mic_array_init_time_domain_frame:buffer <- [SP+0]
	#DEBUG_VALUE: i <- 0
	.loc	1 42 77                 # /Users/rcalhoun/code/git/sw_usb_audio/lib_mic_array/lib_mic_array/src/decimator_interface.xc:42:77
	{
		lsu r1, r2, r11
		nop
	}
.Ltrap_info10:
	{
		ecallf r1
		nop
	}
	#DEBUG_VALUE: mic_array_init_time_domain_frame:c_from_decimator <- R0
	#DEBUG_VALUE: mic_array_init_time_domain_frame:buffer <- [SP+0]
	#DEBUG_VALUE: i <- 0
	{
		nop
		ldw r1, r0[r2]
	}
	.loc	1 42 77                 # /Users/rcalhoun/code/git/sw_usb_audio/lib_mic_array/lib_mic_array/src/decimator_interface.xc:42:77
	#APP
	#NO_APP
.Ltmp67:
	#DEBUG_VALUE: i <- R2
	.loc	1 42 77                 # /Users/rcalhoun/code/git/sw_usb_audio/lib_mic_array/lib_mic_array/src/decimator_interface.xc:42:77
.Lxta.endpoint_labels4:
	{
		out res[r1], r10
		add r2, r2, 1
	}
.Ltmp68:
	.loc	1 38 0                  # /Users/rcalhoun/code/git/sw_usb_audio/lib_mic_array/lib_mic_array/src/decimator_interface.xc:38:0
	ldaw r10, r10[4]
	.loc	1 38 0                  # /Users/rcalhoun/code/git/sw_usb_audio/lib_mic_array/lib_mic_array/src/decimator_interface.xc:38:0
	{
		lsu r1, r2, r5
		nop
	}
.Lxta.loop_labels7:
	# LOOPMARKER 1
	bt r1, .LBB1_6
.Ltmp69:
# BB#7:                                 #   in Loop: Header=BB1_5 Depth=1
	#DEBUG_VALUE: mic_array_init_time_domain_frame:c_from_decimator <- R0
	#DEBUG_VALUE: mic_array_init_time_domain_frame:buffer <- [SP+0]
	{
		mov r10, r7
		mov r2, r4
	}
.Ltmp70:
.LBB1_8:                                # %LoopBody77
                                        #   Parent Loop BB1_5 Depth=1
                                        # =>  This Inner Loop Header: Depth=2
.Lxtalabel17:
	#DEBUG_VALUE: mic_array_init_time_domain_frame:c_from_decimator <- R0
	#DEBUG_VALUE: mic_array_init_time_domain_frame:buffer <- [SP+0]
	.loc	1 46 91                 # /Users/rcalhoun/code/git/sw_usb_audio/lib_mic_array/lib_mic_array/src/decimator_interface.xc:46:91
	{
		lsu r1, r2, r11
		nop
	}
.Ltrap_info11:
	{
		ecallf r1
		nop
	}
	#DEBUG_VALUE: mic_array_init_time_domain_frame:c_from_decimator <- R0
	#DEBUG_VALUE: mic_array_init_time_domain_frame:buffer <- [SP+0]
	{
		nop
		ldw r1, r0[r2]
	}
	.loc	1 46 91                 # /Users/rcalhoun/code/git/sw_usb_audio/lib_mic_array/lib_mic_array/src/decimator_interface.xc:46:91
	#APP
	#NO_APP
.Ltmp71:
	#DEBUG_VALUE: i <- R2
	.loc	1 46 91                 # /Users/rcalhoun/code/git/sw_usb_audio/lib_mic_array/lib_mic_array/src/decimator_interface.xc:46:91
.Lxta.endpoint_labels5:
	{
		out res[r1], r10
		add r2, r2, 1
	}
.Ltmp72:
	.loc	1 45 0                  # /Users/rcalhoun/code/git/sw_usb_audio/lib_mic_array/lib_mic_array/src/decimator_interface.xc:45:0
	ldaw r10, r10[4]
	.loc	1 45 0                  # /Users/rcalhoun/code/git/sw_usb_audio/lib_mic_array/lib_mic_array/src/decimator_interface.xc:45:0
	{
		lsu r1, r2, r5
		nop
	}
.Lxta.loop_labels8:
	# LOOPMARKER 2
	bt r1, .LBB1_8
.Ltmp73:
# BB#9:                                 # %LoopIncrement34
                                        #   in Loop: Header=BB1_5 Depth=1
.Lxtalabel18:
	#DEBUG_VALUE: mic_array_init_time_domain_frame:c_from_decimator <- R0
	#DEBUG_VALUE: mic_array_init_time_domain_frame:buffer <- [SP+0]
	#DEBUG_VALUE: f <- R9
	.loc	1 36 0                  # /Users/rcalhoun/code/git/sw_usb_audio/lib_mic_array/lib_mic_array/src/decimator_interface.xc:36:0
	{
		add r9, r9, 1
		add r6, r6, r8
	}
.Ltmp74:
	.loc	1 36 0                  # /Users/rcalhoun/code/git/sw_usb_audio/lib_mic_array/lib_mic_array/src/decimator_interface.xc:36:0
	{
		add r7, r7, r8
		lsu r1, r9, r3
	}
.Lxta.loop_labels9:
	# LOOPMARKER 3
	bt r1, .LBB1_5
.Ltmp75:
.LBB1_10:                               # %LoopBody116
                                        # =>This Inner Loop Header: Depth=1
.Lxtalabel19:
	#DEBUG_VALUE: mic_array_init_time_domain_frame:c_from_decimator <- R0
	#DEBUG_VALUE: mic_array_init_time_domain_frame:buffer <- [SP+0]
	.loc	1 50 0                  # /Users/rcalhoun/code/git/sw_usb_audio/lib_mic_array/lib_mic_array/src/decimator_interface.xc:50:0
	{
		lsu r1, r4, r11
		nop
	}
.Ltrap_info12:
	{
		ecallf r1
		nop
	}
	#DEBUG_VALUE: mic_array_init_time_domain_frame:c_from_decimator <- R0
	#DEBUG_VALUE: mic_array_init_time_domain_frame:buffer <- [SP+0]
	{
		nop
		ldw r1, r0[r4]
	}
.Ltmp76:
	#DEBUG_VALUE: i <- R4
	.loc	1 50 0                  # /Users/rcalhoun/code/git/sw_usb_audio/lib_mic_array/lib_mic_array/src/decimator_interface.xc:50:0
	{
		chkct res[r1], 8
		add r4, r4, 1
	}
.Ltmp77:
	.loc	1 49 0                  # /Users/rcalhoun/code/git/sw_usb_audio/lib_mic_array/lib_mic_array/src/decimator_interface.xc:49:0
	{
		lsu r1, r4, r5
		nop
	}
.Lxta.loop_labels10:
	# LOOPMARKER 4
	bt r1, .LBB1_10
.Ltmp78:
# BB#11:                                # %ifdone110
.Lxtalabel20:
	#DEBUG_VALUE: mic_array_init_time_domain_frame:buffer <- [SP+0]
	{
		nop
		ldw r0, sp[0]
	}
	{
		nop
		stw r3, r0[0]
	}
	{
		nop
		ldw r10, sp[8]
	}
	ldd r9, r8, sp[3]               # 4-byte Folded Reload
	ldd r7, r6, sp[2]               # 4-byte Folded Reload
	ldd r5, r4, sp[1]               # 4-byte Folded Reload
	{
		nop
		retsp 10
	}
.Ltmp79:
	# RETURN_REG_HOLDER
.LBB1_12:                               # %LoopBody43
.Lxtalabel21:
.Ltmp80:
	#DEBUG_VALUE: i <- 0
.Ltrap_info13:
	{
		ecallt r11
		nop
	}
	{
		ldc r0, 0
		nop
	}
.Ltrap_info14:
.xtataskstop
	{
		ecallf r0
		nop
	}
	.cc_bottom _Smic_array_init_time_domain_frame_0.function
	.set	_Smic_array_init_time_domain_frame_0.nstackwords,10
	.globl	_Smic_array_init_time_domain_frame_0.nstackwords
	.set	_Smic_array_init_time_domain_frame_0.maxcores,1
	.globl	_Smic_array_init_time_domain_frame_0.maxcores
	.set	_Smic_array_init_time_domain_frame_0.maxtimers,0
	.globl	_Smic_array_init_time_domain_frame_0.maxtimers
	.set	_Smic_array_init_time_domain_frame_0.maxchanends,0
	.globl	_Smic_array_init_time_domain_frame_0.maxchanends
.Ltmp81:
	.size	_Smic_array_init_time_domain_frame_0, .Ltmp81-_Smic_array_init_time_domain_frame_0
.Lfunc_end1:
	.cfi_endproc

	.section	.cp.rodata.cst4,"aMc",@progbits,4
	.cc_top .LCPI2_0.data,.LCPI2_0
	.align	4
	.type	.LCPI2_0,@object
	.size	.LCPI2_0, 4
.LCPI2_0:
	.long	4294967225              # 0xffffffb9
	.cc_bottom .LCPI2_0.data
	.cc_top .LCPI2_1.data,.LCPI2_1
	.align	4
	.type	.LCPI2_1,@object
	.size	.LCPI2_1, 4
.LCPI2_1:
	.long	4294967294              # 0xfffffffe
	.cc_bottom .LCPI2_1.data
	.text
	.globl	mic_array_get_next_time_domain_frame
	.align	4
	.type	mic_array_get_next_time_domain_frame,@function
	.cc_top mic_array_get_next_time_domain_frame.function,mic_array_get_next_time_domain_frame
mic_array_get_next_time_domain_frame:   # @mic_array_get_next_time_domain_frame
.Lfunc_begin2:
	.loc	1 60 0                  # /Users/rcalhoun/code/git/sw_usb_audio/lib_mic_array/lib_mic_array/src/decimator_interface.xc:60:0
	.cfi_startproc
	.issue_mode dual
# BB#0:                                 # %allocas
.Lxtalabel22:
	{
		nop
		dualentsp 14
	}
.Ltmp82:
	.cfi_def_cfa_offset 56
.Ltmp83:
	.cfi_offset 15, 0
	std r5, r4, sp[3]               # 4-byte Folded Spill
.Ltmp84:
	.cfi_offset 4, -32
.Ltmp85:
	.cfi_offset 5, -28
	std r7, r6, sp[4]               # 4-byte Folded Spill
.Ltmp86:
	.cfi_offset 6, -24
.Ltmp87:
	.cfi_offset 7, -20
	std r9, r8, sp[5]               # 4-byte Folded Spill
.Ltmp88:
	.cfi_offset 8, -16
.Ltmp89:
	.cfi_offset 9, -12
	{
		nop
		stw r10, sp[12]
	}
.Ltmp90:
	.cfi_offset 10, -8
	#DEBUG_VALUE: mic_array_get_next_time_domain_frame:c_from_decimator <- R0
	#DEBUG_VALUE: mic_array_get_next_time_domain_frame:decimator_count <- R1
	#DEBUG_VALUE: mic_array_get_next_time_domain_frame:buffer <- R2
	{
		nop
		stw r3, sp[4]
	}
.Ltmp91:
	#DEBUG_VALUE: mic_array_get_next_time_domain_frame:buffer <- [SP+20]
	#DEBUG_VALUE: i <- 0
	#DEBUG_VALUE: mic_array_get_next_time_domain_frame:decimator_count <- R4
	{
		mov r4, r1
		stw r2, sp[5]
	}
.Ltmp92:
	ldd r7, r2, sp[9]
	ldd r1, r6, sp[8]
	{
		nop
		stw r1, sp[3]
	}
	bf r4, .LBB2_12
.Ltmp93:
# BB#1:
	#DEBUG_VALUE: mic_array_get_next_time_domain_frame:c_from_decimator <- R0
	#DEBUG_VALUE: mic_array_get_next_time_domain_frame:decimator_count <- R4
	#DEBUG_VALUE: mic_array_get_next_time_domain_frame:buffer <- [SP+20]
	{
		ldc r1, 0
		ldc r11, 0
	}
.Ltmp94:
.LBB2_2:                                # %LoopBody
                                        # =>This Inner Loop Header: Depth=1
.Lxtalabel23:
	#DEBUG_VALUE: mic_array_get_next_time_domain_frame:c_from_decimator <- R0
	#DEBUG_VALUE: mic_array_get_next_time_domain_frame:decimator_count <- R4
	#DEBUG_VALUE: mic_array_get_next_time_domain_frame:buffer <- [SP+20]
	.loc	1 73 0 prologue_end     # /Users/rcalhoun/code/git/sw_usb_audio/lib_mic_array/lib_mic_array/src/decimator_interface.xc:73:0
	{
		lsu r3, r1, r6
		nop
	}
.Ltrap_info15:
	{
		ecallf r3
		nop
	}
	#DEBUG_VALUE: mic_array_get_next_time_domain_frame:c_from_decimator <- R0
	#DEBUG_VALUE: mic_array_get_next_time_domain_frame:decimator_count <- R4
	#DEBUG_VALUE: mic_array_get_next_time_domain_frame:buffer <- [SP+20]
	{
		nop
		ldw r3, r0[r1]
	}
.Ltmp95:
	#DEBUG_VALUE: i <- R1
	.loc	1 73 0                  # /Users/rcalhoun/code/git/sw_usb_audio/lib_mic_array/lib_mic_array/src/decimator_interface.xc:73:0
	{
		chkct res[r3], 8
		add r1, r1, 1
	}
.Ltmp96:
	.loc	1 72 0                  # /Users/rcalhoun/code/git/sw_usb_audio/lib_mic_array/lib_mic_array/src/decimator_interface.xc:72:0
	{
		lsu r3, r1, r4
		nop
	}
.Lxta.loop_labels11:
	# LOOPMARKER 0
	bt r3, .LBB2_2
.Ltmp97:
.LBB2_3:                                # %LoopBody16
                                        # =>This Inner Loop Header: Depth=1
.Lxtalabel24:
	#DEBUG_VALUE: mic_array_get_next_time_domain_frame:c_from_decimator <- R0
	#DEBUG_VALUE: mic_array_get_next_time_domain_frame:decimator_count <- R4
	#DEBUG_VALUE: mic_array_get_next_time_domain_frame:buffer <- [SP+20]
	.loc	1 76 0                  # /Users/rcalhoun/code/git/sw_usb_audio/lib_mic_array/lib_mic_array/src/decimator_interface.xc:76:0
	{
		lsu r1, r11, r6
		nop
	}
.Ltrap_info16:
	{
		ecallf r1
		nop
	}
	#DEBUG_VALUE: mic_array_get_next_time_domain_frame:c_from_decimator <- R0
	#DEBUG_VALUE: mic_array_get_next_time_domain_frame:decimator_count <- R4
	#DEBUG_VALUE: mic_array_get_next_time_domain_frame:buffer <- [SP+20]
	{
		nop
		ldw r1, r0[r11]
	}
.Ltmp98:
	#DEBUG_VALUE: i <- R11
	.loc	1 76 0                  # /Users/rcalhoun/code/git/sw_usb_audio/lib_mic_array/lib_mic_array/src/decimator_interface.xc:76:0
.Lxta.endpoint_labels6:
	{
		outct res[r1], 0
		add r11, r11, 1
	}
.Ltmp99:
	.loc	1 75 0                  # /Users/rcalhoun/code/git/sw_usb_audio/lib_mic_array/lib_mic_array/src/decimator_interface.xc:75:0
	{
		lsu r1, r11, r4
		nop
	}
.Lxta.loop_labels12:
	# LOOPMARKER 1
	bt r1, .LBB2_3
.Ltmp100:
# BB#4:                                 # %LoopBody40.preheader
.Lxtalabel25:
	#DEBUG_VALUE: mic_array_get_next_time_domain_frame:c_from_decimator <- R0
	#DEBUG_VALUE: mic_array_get_next_time_domain_frame:decimator_count <- R4
	#DEBUG_VALUE: mic_array_get_next_time_domain_frame:buffer <- [SP+20]
	#DEBUG_VALUE: i <- 0
	ldc r1, 71
	.loc	1 83 79                 # /Users/rcalhoun/code/git/sw_usb_audio/lib_mic_array/lib_mic_array/src/decimator_interface.xc:83:79
.Ltmp101:
	{
		lsu r1, r2, r1
		ldc r8, 0
	}
	.loc	1 83 79                 # /Users/rcalhoun/code/git/sw_usb_audio/lib_mic_array/lib_mic_array/src/decimator_interface.xc:83:79
	{
		mov r11, r8
		nop
	}
	bt r1, .LBB2_6
.Ltmp102:
# BB#5:                                 # %LoopBody40.preheader
.Lxtalabel26:
	#DEBUG_VALUE: mic_array_get_next_time_domain_frame:c_from_decimator <- R0
	#DEBUG_VALUE: mic_array_get_next_time_domain_frame:decimator_count <- R4
	#DEBUG_VALUE: mic_array_get_next_time_domain_frame:buffer <- [SP+20]
	#DEBUG_VALUE: i <- 0
	ldw r1, cp[.LCPI2_0]
	.loc	1 83 79                 # /Users/rcalhoun/code/git/sw_usb_audio/lib_mic_array/lib_mic_array/src/decimator_interface.xc:83:79
	{
		add r11, r2, r1
		nop
	}
.Ltmp103:
.LBB2_6:                                # %LoopBody40.preheader
.Lxtalabel27:
	#DEBUG_VALUE: mic_array_get_next_time_domain_frame:c_from_decimator <- R0
	#DEBUG_VALUE: mic_array_get_next_time_domain_frame:decimator_count <- R4
	#DEBUG_VALUE: mic_array_get_next_time_domain_frame:buffer <- [SP+20]
	#DEBUG_VALUE: i <- 0
	{
		nop
		stw r7, sp[1]
	}
	{
		nop
		stw r2, sp[2]
	}
	{
		nop
		ldw r1, sp[4]
	}
	{
		add r9, r1, 8
		nop
	}
	ldc r2, 72
	{
		ldc r5, 8
		mov r7, r8
	}
.Ltmp104:
.LBB2_7:                                # %LoopBody40
                                        # =>This Inner Loop Header: Depth=1
.Lxtalabel28:
	#DEBUG_VALUE: mic_array_get_next_time_domain_frame:c_from_decimator <- R0
	#DEBUG_VALUE: mic_array_get_next_time_domain_frame:decimator_count <- R4
	#DEBUG_VALUE: mic_array_get_next_time_domain_frame:buffer <- [SP+20]
	#DEBUG_VALUE: i <- 0
	.loc	1 83 79                 # /Users/rcalhoun/code/git/sw_usb_audio/lib_mic_array/lib_mic_array/src/decimator_interface.xc:83:79
	{
		lsu r1, r7, r6
		nop
	}
.Ltrap_info17:
	{
		ecallf r1
		nop
	}
	#DEBUG_VALUE: mic_array_get_next_time_domain_frame:c_from_decimator <- R0
	#DEBUG_VALUE: mic_array_get_next_time_domain_frame:decimator_count <- R4
	#DEBUG_VALUE: mic_array_get_next_time_domain_frame:buffer <- [SP+20]
	#DEBUG_VALUE: i <- 0
	{
		nop
		ldw r1, sp[5]
	}
	{
		nop
		ldw r1, r1[0]
	}
	.loc	1 83 79                 # /Users/rcalhoun/code/git/sw_usb_audio/lib_mic_array/lib_mic_array/src/decimator_interface.xc:83:79
	mul r1, r1, r2
	{
		nop
		ldw r3, sp[4]
	}
	{
		add r10, r3, r1
		ldw r3, sp[3]
	}
	.loc	1 83 79                 # /Users/rcalhoun/code/git/sw_usb_audio/lib_mic_array/lib_mic_array/src/decimator_interface.xc:83:79
	{
		sub r3, r10, r3
		nop
	}
	.loc	1 83 79                 # /Users/rcalhoun/code/git/sw_usb_audio/lib_mic_array/lib_mic_array/src/decimator_interface.xc:83:79
	{
		lsu r3, r3, r11
		nop
	}
.Ltrap_info18:
	{
		ecallf r3
		nop
	}
	#DEBUG_VALUE: mic_array_get_next_time_domain_frame:c_from_decimator <- R0
	#DEBUG_VALUE: mic_array_get_next_time_domain_frame:decimator_count <- R4
	#DEBUG_VALUE: mic_array_get_next_time_domain_frame:buffer <- [SP+20]
	#DEBUG_VALUE: i <- 0
	.loc	1 83 79                 # /Users/rcalhoun/code/git/sw_usb_audio/lib_mic_array/lib_mic_array/src/decimator_interface.xc:83:79
	{
		lsu r3, r8, r5
		nop
	}
.Ltrap_info19:
	{
		ecallf r3
		nop
	}
	#DEBUG_VALUE: mic_array_get_next_time_domain_frame:c_from_decimator <- R0
	#DEBUG_VALUE: mic_array_get_next_time_domain_frame:decimator_count <- R4
	#DEBUG_VALUE: mic_array_get_next_time_domain_frame:buffer <- [SP+20]
	#DEBUG_VALUE: i <- 0
	{
		add r3, r0, r8
		nop
	}
	.loc	1 83 79                 # /Users/rcalhoun/code/git/sw_usb_audio/lib_mic_array/lib_mic_array/src/decimator_interface.xc:83:79
	{
		add r1, r9, r1
		ldw r3, r3[0]
	}
	.loc	1 83 79                 # /Users/rcalhoun/code/git/sw_usb_audio/lib_mic_array/lib_mic_array/src/decimator_interface.xc:83:79
	#APP
	#NO_APP
.Ltmp105:
	#DEBUG_VALUE: i <- R7
	.loc	1 83 79                 # /Users/rcalhoun/code/git/sw_usb_audio/lib_mic_array/lib_mic_array/src/decimator_interface.xc:83:79
.Lxta.endpoint_labels7:
	{
		out res[r3], r1
		add r7, r7, 1
	}
.Ltmp106:
	.loc	1 79 0                  # /Users/rcalhoun/code/git/sw_usb_audio/lib_mic_array/lib_mic_array/src/decimator_interface.xc:79:0
	ldaw r9, r9[4]
	.loc	1 79 0                  # /Users/rcalhoun/code/git/sw_usb_audio/lib_mic_array/lib_mic_array/src/decimator_interface.xc:79:0
	{
		add r8, r8, 4
		lsu r1, r7, r4
	}
.Lxta.loop_labels13:
	# LOOPMARKER 2
	bt r1, .LBB2_7
.Ltmp107:
# BB#8:                                 # %LoopBody73.preheader
	#DEBUG_VALUE: mic_array_get_next_time_domain_frame:c_from_decimator <- R0
	#DEBUG_VALUE: mic_array_get_next_time_domain_frame:decimator_count <- R4
	#DEBUG_VALUE: mic_array_get_next_time_domain_frame:buffer <- [SP+20]
	ldaw r1, r10[10]
	{
		ldc r5, 0
		nop
	}
	{
		mov r11, r5
		nop
	}
.Ltmp108:
.LBB2_9:                                # %LoopBody73
                                        # =>This Inner Loop Header: Depth=1
.Lxtalabel29:
	#DEBUG_VALUE: mic_array_get_next_time_domain_frame:c_from_decimator <- R0
	#DEBUG_VALUE: mic_array_get_next_time_domain_frame:decimator_count <- R4
	#DEBUG_VALUE: mic_array_get_next_time_domain_frame:buffer <- [SP+20]
	.loc	1 87 93                 # /Users/rcalhoun/code/git/sw_usb_audio/lib_mic_array/lib_mic_array/src/decimator_interface.xc:87:93
	{
		lsu r2, r11, r6
		nop
	}
.Ltrap_info20:
	{
		ecallf r2
		nop
	}
	#DEBUG_VALUE: mic_array_get_next_time_domain_frame:c_from_decimator <- R0
	#DEBUG_VALUE: mic_array_get_next_time_domain_frame:decimator_count <- R4
	#DEBUG_VALUE: mic_array_get_next_time_domain_frame:buffer <- [SP+20]
	{
		nop
		ldw r2, r0[r11]
	}
	.loc	1 87 93                 # /Users/rcalhoun/code/git/sw_usb_audio/lib_mic_array/lib_mic_array/src/decimator_interface.xc:87:93
	#APP
	#NO_APP
.Ltmp109:
	#DEBUG_VALUE: i <- R11
	.loc	1 87 93                 # /Users/rcalhoun/code/git/sw_usb_audio/lib_mic_array/lib_mic_array/src/decimator_interface.xc:87:93
.Lxta.endpoint_labels8:
	{
		out res[r2], r1
		add r11, r11, 1
	}
.Ltmp110:
	.loc	1 86 0                  # /Users/rcalhoun/code/git/sw_usb_audio/lib_mic_array/lib_mic_array/src/decimator_interface.xc:86:0
	ldaw r1, r1[4]
	.loc	1 86 0                  # /Users/rcalhoun/code/git/sw_usb_audio/lib_mic_array/lib_mic_array/src/decimator_interface.xc:86:0
	{
		lsu r2, r11, r4
		nop
	}
.Lxta.loop_labels14:
	# LOOPMARKER 3
	bt r2, .LBB2_9
.Ltmp111:
# BB#10:
	#DEBUG_VALUE: mic_array_get_next_time_domain_frame:c_from_decimator <- R0
	#DEBUG_VALUE: mic_array_get_next_time_domain_frame:decimator_count <- R4
	#DEBUG_VALUE: mic_array_get_next_time_domain_frame:buffer <- [SP+20]
	{
		nop
		ldw r2, sp[2]
	}
	{
		nop
		ldw r7, sp[1]
	}
.Ltmp112:
.LBB2_11:                               # %LoopBody113
                                        # =>This Inner Loop Header: Depth=1
.Lxtalabel30:
	#DEBUG_VALUE: mic_array_get_next_time_domain_frame:c_from_decimator <- R0
	#DEBUG_VALUE: mic_array_get_next_time_domain_frame:decimator_count <- R4
	#DEBUG_VALUE: mic_array_get_next_time_domain_frame:buffer <- [SP+20]
	.loc	1 91 0                  # /Users/rcalhoun/code/git/sw_usb_audio/lib_mic_array/lib_mic_array/src/decimator_interface.xc:91:0
	{
		lsu r1, r5, r6
		nop
	}
.Ltrap_info21:
	{
		ecallf r1
		nop
	}
	#DEBUG_VALUE: mic_array_get_next_time_domain_frame:c_from_decimator <- R0
	#DEBUG_VALUE: mic_array_get_next_time_domain_frame:decimator_count <- R4
	#DEBUG_VALUE: mic_array_get_next_time_domain_frame:buffer <- [SP+20]
	{
		nop
		ldw r1, r0[r5]
	}
.Ltmp113:
	#DEBUG_VALUE: i <- R5
	.loc	1 91 0                  # /Users/rcalhoun/code/git/sw_usb_audio/lib_mic_array/lib_mic_array/src/decimator_interface.xc:91:0
	{
		chkct res[r1], 8
		add r5, r5, 1
	}
.Ltmp114:
	.loc	1 90 0                  # /Users/rcalhoun/code/git/sw_usb_audio/lib_mic_array/lib_mic_array/src/decimator_interface.xc:90:0
	{
		lsu r1, r5, r4
		nop
	}
.Lxta.loop_labels15:
	# LOOPMARKER 4
	bt r1, .LBB2_11
.Ltmp115:
.LBB2_12:                               # %ifdone107
.Lxtalabel31:
	#DEBUG_VALUE: mic_array_get_next_time_domain_frame:buffer <- [SP+20]
.Ltrap_info22:
	{
		ecallf r7
		nop
	}
	#DEBUG_VALUE: mic_array_get_next_time_domain_frame:buffer <- [SP+20]
	{
		nop
		ldw r0, sp[15]
	}
	#DEBUG_VALUE: mic_array_get_next_time_domain_frame:dc <- R0
	{
		nop
		ldw r0, r0[0]
	}
.Ltmp116:
	{
		nop
		ldw r11, r0[8]
	}
.Ltmp117:
	#DEBUG_VALUE: buffering_type <- R11
	{
		nop
		ldw r0, r0[9]
	}
.Ltmp118:
	#DEBUG_VALUE: buffer_count <- R0
	{
		nop
		ldw r1, sp[5]
	}
	{
		nop
		ldw r1, r1[0]
	}
	.loc	1 101 0                 # /Users/rcalhoun/code/git/sw_usb_audio/lib_mic_array/lib_mic_array/src/decimator_interface.xc:101:0
.Ltmp119:
	{
		add r3, r1, r0
		nop
	}
	.loc	1 100 5                 # /Users/rcalhoun/code/git/sw_usb_audio/lib_mic_array/lib_mic_array/src/decimator_interface.xc:100:5
	bt r11, .LBB2_13
.Ltmp120:
# BB#14:                                # %afterboundcheck129
.Lxtalabel32:
	#DEBUG_VALUE: mic_array_get_next_time_domain_frame:buffer <- [SP+20]
	{
		mkmsk r11, 32
		nop
	}
	bu .LBB2_15
.Ltmp121:
.LBB2_13:
	#DEBUG_VALUE: mic_array_get_next_time_domain_frame:buffer <- [SP+20]
	ldw r11, cp[.LCPI2_1]
.Ltmp122:
.LBB2_15:                               # %afterboundcheck129
.Lxtalabel33:
	#DEBUG_VALUE: mic_array_get_next_time_domain_frame:buffer <- [SP+20]
	#DEBUG_VALUE: buffer_count <- R0
	.loc	1 100 5                 # /Users/rcalhoun/code/git/sw_usb_audio/lib_mic_array/lib_mic_array/src/decimator_interface.xc:100:5
	{
		add r3, r3, r11
		nop
	}
	.loc	1 105 5                 # /Users/rcalhoun/code/git/sw_usb_audio/lib_mic_array/lib_mic_array/src/decimator_interface.xc:105:5
	{
		lsu r5, r3, r0
		ldc r11, 0
	}
	.loc	1 105 5                 # /Users/rcalhoun/code/git/sw_usb_audio/lib_mic_array/lib_mic_array/src/decimator_interface.xc:105:5
	{
		mov r4, r11
		nop
	}
	bt r5, .LBB2_17
.Ltmp123:
# BB#16:                                # %afterboundcheck129
.Lxtalabel34:
	#DEBUG_VALUE: mic_array_get_next_time_domain_frame:buffer <- [SP+20]
	#DEBUG_VALUE: buffer_count <- R0
	{
		mov r4, r0
		nop
	}
.Ltmp124:
.LBB2_17:                               # %afterboundcheck129
.Lxtalabel35:
	#DEBUG_VALUE: mic_array_get_next_time_domain_frame:buffer <- [SP+20]
	#DEBUG_VALUE: buffer_count <- R0
	.loc	1 105 5                 # /Users/rcalhoun/code/git/sw_usb_audio/lib_mic_array/lib_mic_array/src/decimator_interface.xc:105:5
	{
		sub r3, r3, r4
		add r1, r1, 1
	}
	.loc	1 109 5                 # /Users/rcalhoun/code/git/sw_usb_audio/lib_mic_array/lib_mic_array/src/decimator_interface.xc:109:5
	{
		eq r0, r1, r0
		nop
	}
.Ltmp125:
	bt r0, .LBB2_19
.Ltmp126:
# BB#18:                                # %afterboundcheck129
.Lxtalabel36:
	#DEBUG_VALUE: mic_array_get_next_time_domain_frame:buffer <- [SP+20]
	.loc	1 109 5                 # /Users/rcalhoun/code/git/sw_usb_audio/lib_mic_array/lib_mic_array/src/decimator_interface.xc:109:5
	{
		mov r11, r1
		nop
	}
.Ltmp127:
.LBB2_19:                               # %afterboundcheck129
.Lxtalabel37:
	#DEBUG_VALUE: mic_array_get_next_time_domain_frame:buffer <- [SP+20]
	{
		nop
		ldw r0, sp[5]
	}
	{
		nop
		stw r11, r0[0]
	}
	ldc r0, 72
	.loc	1 111 5                 # /Users/rcalhoun/code/git/sw_usb_audio/lib_mic_array/lib_mic_array/src/decimator_interface.xc:111:5
	mul r0, r3, r0
	{
		nop
		ldw r1, sp[4]
	}
	{
		add r0, r1, r0
		ldw r1, sp[3]
	}
	{
		nop
		ldw r10, sp[12]
	}
	ldd r9, r8, sp[5]               # 4-byte Folded Reload
	ldd r7, r6, sp[4]               # 4-byte Folded Reload
	ldd r5, r4, sp[3]               # 4-byte Folded Reload
	{
		nop
		retsp 14
	}
.Ltmp128:
	# RETURN_REG_HOLDER
.Ltmp129:
	.cc_bottom mic_array_get_next_time_domain_frame.function
	.set	mic_array_get_next_time_domain_frame.nstackwords,14
	.globl	mic_array_get_next_time_domain_frame.nstackwords
	.set	mic_array_get_next_time_domain_frame.maxcores,1
	.globl	mic_array_get_next_time_domain_frame.maxcores
	.set	mic_array_get_next_time_domain_frame.maxtimers,0
	.globl	mic_array_get_next_time_domain_frame.maxtimers
	.set	mic_array_get_next_time_domain_frame.maxchanends,0
	.globl	mic_array_get_next_time_domain_frame.maxchanends
.Ltmp130:
	.size	mic_array_get_next_time_domain_frame, .Ltmp130-mic_array_get_next_time_domain_frame
.Lfunc_end2:
	.cfi_endproc

	.section	.cp.rodata.cst4,"aMc",@progbits,4
	.cc_top .LCPI3_0.data,.LCPI3_0
	.align	4
	.type	.LCPI3_0,@object
	.size	.LCPI3_0, 4
.LCPI3_0:
	.long	4294967225              # 0xffffffb9
	.cc_bottom .LCPI3_0.data
	.cc_top .LCPI3_1.data,.LCPI3_1
	.align	4
	.type	.LCPI3_1,@object
	.size	.LCPI3_1, 4
.LCPI3_1:
	.long	4294967294              # 0xfffffffe
	.cc_bottom .LCPI3_1.data
	.text
	.globl	_Smic_array_get_next_time_domain_frame_0
	.align	4
	.type	_Smic_array_get_next_time_domain_frame_0,@function
	.cc_top _Smic_array_get_next_time_domain_frame_0.function,_Smic_array_get_next_time_domain_frame_0
_Smic_array_get_next_time_domain_frame_0: # @_Smic_array_get_next_time_domain_frame_0
.Lfunc_begin3:
	.loc	1 60 0                  # /Users/rcalhoun/code/git/sw_usb_audio/lib_mic_array/lib_mic_array/src/decimator_interface.xc:60:0
	.cfi_startproc
	.issue_mode dual
# BB#0:                                 # %allocas
.Lxtalabel38:
	{
		nop
		dualentsp 12
	}
.Ltmp131:
	.cfi_def_cfa_offset 48
.Ltmp132:
	.cfi_offset 15, 0
	std r5, r4, sp[2]               # 4-byte Folded Spill
.Ltmp133:
	.cfi_offset 4, -32
.Ltmp134:
	.cfi_offset 5, -28
	std r7, r6, sp[3]               # 4-byte Folded Spill
.Ltmp135:
	.cfi_offset 6, -24
.Ltmp136:
	.cfi_offset 7, -20
	std r9, r8, sp[4]               # 4-byte Folded Spill
.Ltmp137:
	.cfi_offset 8, -16
.Ltmp138:
	.cfi_offset 9, -12
.Ltmp139:
	.cfi_offset 10, -8
	#DEBUG_VALUE: mic_array_get_next_time_domain_frame:c_from_decimator <- R0
	#DEBUG_VALUE: mic_array_get_next_time_domain_frame:buffer <- R1
	#DEBUG_VALUE: mic_array_get_next_time_domain_frame:dc <- R3
.Ltmp140:
	#DEBUG_VALUE: decimator_count <- 2
	#DEBUG_VALUE: mic_array_get_next_time_domain_frame:dc <- R8
	{
		mov r8, r3
		stw r10, sp[10]
	}
.Ltmp141:
	ldd r11, r3, sp[7]
	{
		nop
		stw r3, sp[3]
	}
.Ltmp142:
	#DEBUG_VALUE: i <- 0
	{
		ldc r5, 0
		ldw r6, sp[13]
	}
	{
		ldc r7, 2
		mov r3, r5
	}
.Ltmp143:
.LBB3_1:                                # %LoopBody
                                        # =>This Inner Loop Header: Depth=1
.Lxtalabel39:
	#DEBUG_VALUE: mic_array_get_next_time_domain_frame:c_from_decimator <- R0
	#DEBUG_VALUE: mic_array_get_next_time_domain_frame:buffer <- R1
	#DEBUG_VALUE: mic_array_get_next_time_domain_frame:dc <- R8
	#DEBUG_VALUE: decimator_count <- 2
	#DEBUG_VALUE: i <- 0
	.loc	1 73 0 prologue_end     # /Users/rcalhoun/code/git/sw_usb_audio/lib_mic_array/lib_mic_array/src/decimator_interface.xc:73:0
	{
		lsu r4, r3, r6
		nop
	}
.Ltrap_info23:
	{
		ecallf r4
		nop
	}
	#DEBUG_VALUE: mic_array_get_next_time_domain_frame:c_from_decimator <- R0
	#DEBUG_VALUE: mic_array_get_next_time_domain_frame:buffer <- R1
	#DEBUG_VALUE: mic_array_get_next_time_domain_frame:dc <- R8
	#DEBUG_VALUE: decimator_count <- 2
	#DEBUG_VALUE: i <- 0
	{
		nop
		ldw r4, r0[r3]
	}
.Ltmp144:
	#DEBUG_VALUE: i <- R3
	.loc	1 73 0                  # /Users/rcalhoun/code/git/sw_usb_audio/lib_mic_array/lib_mic_array/src/decimator_interface.xc:73:0
	{
		chkct res[r4], 8
		add r3, r3, 1
	}
.Ltmp145:
	.loc	1 72 0                  # /Users/rcalhoun/code/git/sw_usb_audio/lib_mic_array/lib_mic_array/src/decimator_interface.xc:72:0
	{
		lsu r4, r3, r7
		nop
	}
.Lxta.loop_labels16:
	# LOOPMARKER 0
	bt r4, .LBB3_1
.Ltmp146:
.LBB3_2:                                # %LoopBody16
                                        # =>This Inner Loop Header: Depth=1
.Lxtalabel40:
	#DEBUG_VALUE: mic_array_get_next_time_domain_frame:c_from_decimator <- R0
	#DEBUG_VALUE: mic_array_get_next_time_domain_frame:buffer <- R1
	#DEBUG_VALUE: mic_array_get_next_time_domain_frame:dc <- R8
	.loc	1 76 0                  # /Users/rcalhoun/code/git/sw_usb_audio/lib_mic_array/lib_mic_array/src/decimator_interface.xc:76:0
	{
		lsu r3, r5, r6
		nop
	}
.Ltrap_info24:
	{
		ecallf r3
		nop
	}
	#DEBUG_VALUE: mic_array_get_next_time_domain_frame:c_from_decimator <- R0
	#DEBUG_VALUE: mic_array_get_next_time_domain_frame:buffer <- R1
	#DEBUG_VALUE: mic_array_get_next_time_domain_frame:dc <- R8
	{
		nop
		ldw r3, r0[r5]
	}
.Ltmp147:
	#DEBUG_VALUE: i <- R5
	.loc	1 76 0                  # /Users/rcalhoun/code/git/sw_usb_audio/lib_mic_array/lib_mic_array/src/decimator_interface.xc:76:0
.Lxta.endpoint_labels9:
	{
		outct res[r3], 0
		add r5, r5, 1
	}
.Ltmp148:
	.loc	1 75 0                  # /Users/rcalhoun/code/git/sw_usb_audio/lib_mic_array/lib_mic_array/src/decimator_interface.xc:75:0
	{
		lsu r3, r5, r7
		nop
	}
.Lxta.loop_labels17:
	# LOOPMARKER 1
	bt r3, .LBB3_2
.Ltmp149:
# BB#3:                                 # %LoopBody40.preheader
	#DEBUG_VALUE: mic_array_get_next_time_domain_frame:c_from_decimator <- R0
	#DEBUG_VALUE: mic_array_get_next_time_domain_frame:buffer <- R1
	#DEBUG_VALUE: mic_array_get_next_time_domain_frame:dc <- R8
	{
		nop
		stw r8, sp[1]
	}
.Ltmp150:
	#DEBUG_VALUE: mic_array_get_next_time_domain_frame:dc <- [SP+4]
	ldc r3, 71
	.loc	1 83 79                 # /Users/rcalhoun/code/git/sw_usb_audio/lib_mic_array/lib_mic_array/src/decimator_interface.xc:83:79
.Ltmp151:
	{
		lsu r3, r11, r3
		ldc r10, 0
	}
	.loc	1 83 79                 # /Users/rcalhoun/code/git/sw_usb_audio/lib_mic_array/lib_mic_array/src/decimator_interface.xc:83:79
	{
		mov r5, r10
		nop
	}
	bt r3, .LBB3_5
.Ltmp152:
# BB#4:                                 # %LoopBody40.preheader
	#DEBUG_VALUE: mic_array_get_next_time_domain_frame:c_from_decimator <- R0
	#DEBUG_VALUE: mic_array_get_next_time_domain_frame:buffer <- R1
	#DEBUG_VALUE: mic_array_get_next_time_domain_frame:dc <- [SP+4]
	ldw r3, cp[.LCPI3_0]
	.loc	1 83 79                 # /Users/rcalhoun/code/git/sw_usb_audio/lib_mic_array/lib_mic_array/src/decimator_interface.xc:83:79
	{
		add r5, r11, r3
		nop
	}
.Ltmp153:
.LBB3_5:                                # %LoopBody40.preheader
	#DEBUG_VALUE: mic_array_get_next_time_domain_frame:c_from_decimator <- R0
	#DEBUG_VALUE: mic_array_get_next_time_domain_frame:buffer <- R1
	#DEBUG_VALUE: mic_array_get_next_time_domain_frame:dc <- [SP+4]
	{
		add r4, r2, 8
		stw r11, sp[2]
	}
.Ltmp154:
.LBB3_6:                                # %LoopBody40
                                        # =>This Inner Loop Header: Depth=1
.Lxtalabel41:
	#DEBUG_VALUE: mic_array_get_next_time_domain_frame:c_from_decimator <- R0
	#DEBUG_VALUE: mic_array_get_next_time_domain_frame:buffer <- R1
	#DEBUG_VALUE: mic_array_get_next_time_domain_frame:dc <- [SP+4]
	.loc	1 83 79                 # /Users/rcalhoun/code/git/sw_usb_audio/lib_mic_array/lib_mic_array/src/decimator_interface.xc:83:79
	{
		lsu r3, r10, r6
		nop
	}
.Ltrap_info25:
	{
		ecallf r3
		nop
	}
	#DEBUG_VALUE: mic_array_get_next_time_domain_frame:c_from_decimator <- R0
	#DEBUG_VALUE: mic_array_get_next_time_domain_frame:buffer <- R1
	#DEBUG_VALUE: mic_array_get_next_time_domain_frame:dc <- [SP+4]
	{
		nop
		ldw r9, r1[0]
	}
	ldc r3, 72
	.loc	1 83 79                 # /Users/rcalhoun/code/git/sw_usb_audio/lib_mic_array/lib_mic_array/src/decimator_interface.xc:83:79
	mul r8, r9, r3
	{
		add r3, r2, r8
		ldw r11, sp[3]
	}
	.loc	1 83 79                 # /Users/rcalhoun/code/git/sw_usb_audio/lib_mic_array/lib_mic_array/src/decimator_interface.xc:83:79
	{
		sub r11, r3, r11
		nop
	}
	.loc	1 83 79                 # /Users/rcalhoun/code/git/sw_usb_audio/lib_mic_array/lib_mic_array/src/decimator_interface.xc:83:79
	{
		lsu r11, r11, r5
		nop
	}
.Ltrap_info26:
	{
		ecallf r11
		nop
	}
	#DEBUG_VALUE: mic_array_get_next_time_domain_frame:c_from_decimator <- R0
	#DEBUG_VALUE: mic_array_get_next_time_domain_frame:buffer <- R1
	#DEBUG_VALUE: mic_array_get_next_time_domain_frame:dc <- [SP+4]
	.loc	1 83 79                 # /Users/rcalhoun/code/git/sw_usb_audio/lib_mic_array/lib_mic_array/src/decimator_interface.xc:83:79
	{
		add r8, r4, r8
		ldw r11, r0[r10]
	}
	.loc	1 83 79                 # /Users/rcalhoun/code/git/sw_usb_audio/lib_mic_array/lib_mic_array/src/decimator_interface.xc:83:79
	#APP
	#NO_APP
.Ltmp155:
	#DEBUG_VALUE: i <- R10
	.loc	1 83 79                 # /Users/rcalhoun/code/git/sw_usb_audio/lib_mic_array/lib_mic_array/src/decimator_interface.xc:83:79
.Lxta.endpoint_labels10:
	{
		out res[r11], r8
		add r10, r10, 1
	}
.Ltmp156:
	.loc	1 79 0                  # /Users/rcalhoun/code/git/sw_usb_audio/lib_mic_array/lib_mic_array/src/decimator_interface.xc:79:0
	ldaw r4, r4[4]
	.loc	1 79 0                  # /Users/rcalhoun/code/git/sw_usb_audio/lib_mic_array/lib_mic_array/src/decimator_interface.xc:79:0
	{
		lsu r11, r10, r7
		nop
	}
.Lxta.loop_labels18:
	# LOOPMARKER 2
	bt r11, .LBB3_6
.Ltmp157:
# BB#7:                                 # %LoopBody73.preheader
	#DEBUG_VALUE: mic_array_get_next_time_domain_frame:c_from_decimator <- R0
	#DEBUG_VALUE: mic_array_get_next_time_domain_frame:buffer <- R1
	#DEBUG_VALUE: mic_array_get_next_time_domain_frame:dc <- [SP+4]
	ldaw r4, r3[10]
	{
		ldc r10, 0
		nop
	}
	{
		mov r3, r10
		nop
	}
.Ltmp158:
.LBB3_8:                                # %LoopBody73
                                        # =>This Inner Loop Header: Depth=1
.Lxtalabel42:
	#DEBUG_VALUE: mic_array_get_next_time_domain_frame:c_from_decimator <- R0
	#DEBUG_VALUE: mic_array_get_next_time_domain_frame:buffer <- R1
	#DEBUG_VALUE: mic_array_get_next_time_domain_frame:dc <- [SP+4]
	.loc	1 87 93                 # /Users/rcalhoun/code/git/sw_usb_audio/lib_mic_array/lib_mic_array/src/decimator_interface.xc:87:93
	{
		lsu r11, r3, r6
		nop
	}
.Ltrap_info27:
	{
		ecallf r11
		nop
	}
	#DEBUG_VALUE: mic_array_get_next_time_domain_frame:c_from_decimator <- R0
	#DEBUG_VALUE: mic_array_get_next_time_domain_frame:buffer <- R1
	#DEBUG_VALUE: mic_array_get_next_time_domain_frame:dc <- [SP+4]
	{
		nop
		ldw r11, r0[r3]
	}
	.loc	1 87 93                 # /Users/rcalhoun/code/git/sw_usb_audio/lib_mic_array/lib_mic_array/src/decimator_interface.xc:87:93
	#APP
	#NO_APP
.Ltmp159:
	#DEBUG_VALUE: i <- R3
	.loc	1 87 93                 # /Users/rcalhoun/code/git/sw_usb_audio/lib_mic_array/lib_mic_array/src/decimator_interface.xc:87:93
.Lxta.endpoint_labels11:
	{
		out res[r11], r4
		add r3, r3, 1
	}
.Ltmp160:
	.loc	1 86 0                  # /Users/rcalhoun/code/git/sw_usb_audio/lib_mic_array/lib_mic_array/src/decimator_interface.xc:86:0
	ldaw r4, r4[4]
	.loc	1 86 0                  # /Users/rcalhoun/code/git/sw_usb_audio/lib_mic_array/lib_mic_array/src/decimator_interface.xc:86:0
	{
		lsu r11, r3, r7
		nop
	}
.Lxta.loop_labels19:
	# LOOPMARKER 3
	bt r11, .LBB3_8
.Ltmp161:
.LBB3_9:                                # %LoopBody113
                                        # =>This Inner Loop Header: Depth=1
.Lxtalabel43:
	#DEBUG_VALUE: mic_array_get_next_time_domain_frame:c_from_decimator <- R0
	#DEBUG_VALUE: mic_array_get_next_time_domain_frame:buffer <- R1
	#DEBUG_VALUE: mic_array_get_next_time_domain_frame:dc <- [SP+4]
	.loc	1 91 0                  # /Users/rcalhoun/code/git/sw_usb_audio/lib_mic_array/lib_mic_array/src/decimator_interface.xc:91:0
	{
		lsu r3, r10, r6
		nop
	}
.Ltrap_info28:
	{
		ecallf r3
		nop
	}
	#DEBUG_VALUE: mic_array_get_next_time_domain_frame:c_from_decimator <- R0
	#DEBUG_VALUE: mic_array_get_next_time_domain_frame:buffer <- R1
	#DEBUG_VALUE: mic_array_get_next_time_domain_frame:dc <- [SP+4]
	{
		nop
		ldw r3, r0[r10]
	}
.Ltmp162:
	#DEBUG_VALUE: i <- R10
	.loc	1 91 0                  # /Users/rcalhoun/code/git/sw_usb_audio/lib_mic_array/lib_mic_array/src/decimator_interface.xc:91:0
	{
		chkct res[r3], 8
		add r10, r10, 1
	}
.Ltmp163:
	.loc	1 90 0                  # /Users/rcalhoun/code/git/sw_usb_audio/lib_mic_array/lib_mic_array/src/decimator_interface.xc:90:0
	{
		lsu r3, r10, r7
		nop
	}
.Lxta.loop_labels20:
	# LOOPMARKER 4
	bt r3, .LBB3_9
.Ltmp164:
# BB#10:                                # %ifdone107
.Lxtalabel44:
	#DEBUG_VALUE: mic_array_get_next_time_domain_frame:buffer <- R1
	#DEBUG_VALUE: mic_array_get_next_time_domain_frame:dc <- [SP+4]
	{
		nop
		ldw r0, sp[16]
	}
.Ltrap_info29:
	{
		ecallf r0
		nop
	}
	#DEBUG_VALUE: mic_array_get_next_time_domain_frame:buffer <- R1
	#DEBUG_VALUE: mic_array_get_next_time_domain_frame:dc <- [SP+4]
	{
		nop
		ldw r0, sp[1]
	}
	{
		nop
		ldw r0, r0[0]
	}
	{
		nop
		ldw r11, r0[8]
	}
.Ltmp165:
	#DEBUG_VALUE: buffering_type <- R11
	{
		nop
		ldw r0, r0[9]
	}
.Ltmp166:
	#DEBUG_VALUE: buffer_count <- R0
	.loc	1 101 0                 # /Users/rcalhoun/code/git/sw_usb_audio/lib_mic_array/lib_mic_array/src/decimator_interface.xc:101:0
	{
		add r3, r9, r0
		nop
	}
	.loc	1 100 5                 # /Users/rcalhoun/code/git/sw_usb_audio/lib_mic_array/lib_mic_array/src/decimator_interface.xc:100:5
	bt r11, .LBB3_11
.Ltmp167:
# BB#12:                                # %afterboundcheck129
.Lxtalabel45:
	#DEBUG_VALUE: mic_array_get_next_time_domain_frame:buffer <- R1
	{
		mkmsk r4, 32
		nop
	}
	bu .LBB3_13
.Ltmp168:
.LBB3_11:
	#DEBUG_VALUE: mic_array_get_next_time_domain_frame:buffer <- R1
	ldw r4, cp[.LCPI3_1]
.Ltmp169:
.LBB3_13:                               # %afterboundcheck129
.Lxtalabel46:
	#DEBUG_VALUE: mic_array_get_next_time_domain_frame:buffer <- R1
	#DEBUG_VALUE: buffer_count <- R0
	.loc	1 100 5                 # /Users/rcalhoun/code/git/sw_usb_audio/lib_mic_array/lib_mic_array/src/decimator_interface.xc:100:5
	{
		add r4, r3, r4
		nop
	}
	.loc	1 105 5                 # /Users/rcalhoun/code/git/sw_usb_audio/lib_mic_array/lib_mic_array/src/decimator_interface.xc:105:5
	{
		lsu r11, r4, r0
		ldc r3, 0
	}
	.loc	1 105 5                 # /Users/rcalhoun/code/git/sw_usb_audio/lib_mic_array/lib_mic_array/src/decimator_interface.xc:105:5
	{
		mov r5, r3
		nop
	}
	bt r11, .LBB3_15
.Ltmp170:
# BB#14:                                # %afterboundcheck129
.Lxtalabel47:
	#DEBUG_VALUE: mic_array_get_next_time_domain_frame:buffer <- R1
	#DEBUG_VALUE: buffer_count <- R0
	{
		mov r5, r0
		nop
	}
.Ltmp171:
.LBB3_15:                               # %afterboundcheck129
.Lxtalabel48:
	#DEBUG_VALUE: mic_array_get_next_time_domain_frame:buffer <- R1
	#DEBUG_VALUE: buffer_count <- R0
	.loc	1 105 5                 # /Users/rcalhoun/code/git/sw_usb_audio/lib_mic_array/lib_mic_array/src/decimator_interface.xc:105:5
	{
		sub r4, r4, r5
		add r5, r9, 1
	}
	.loc	1 109 5                 # /Users/rcalhoun/code/git/sw_usb_audio/lib_mic_array/lib_mic_array/src/decimator_interface.xc:109:5
	{
		eq r0, r5, r0
		nop
	}
.Ltmp172:
	bt r0, .LBB3_17
.Ltmp173:
# BB#16:                                # %afterboundcheck129
.Lxtalabel49:
	#DEBUG_VALUE: mic_array_get_next_time_domain_frame:buffer <- R1
	.loc	1 109 5                 # /Users/rcalhoun/code/git/sw_usb_audio/lib_mic_array/lib_mic_array/src/decimator_interface.xc:109:5
	{
		mov r3, r5
		nop
	}
.Ltmp174:
.LBB3_17:                               # %afterboundcheck129
.Lxtalabel50:
	#DEBUG_VALUE: mic_array_get_next_time_domain_frame:buffer <- R1
	{
		nop
		stw r3, r1[0]
	}
	ldc r0, 72
	.loc	1 111 5                 # /Users/rcalhoun/code/git/sw_usb_audio/lib_mic_array/lib_mic_array/src/decimator_interface.xc:111:5
	mul r0, r4, r0
	{
		add r0, r2, r0
		ldw r1, sp[3]
	}
.Ltmp175:
	{
		nop
		ldw r2, sp[2]
	}
	{
		nop
		ldw r10, sp[10]
	}
	ldd r9, r8, sp[4]               # 4-byte Folded Reload
	ldd r7, r6, sp[3]               # 4-byte Folded Reload
	ldd r5, r4, sp[2]               # 4-byte Folded Reload
	{
		nop
		retsp 12
	}
	# RETURN_REG_HOLDER
.Ltmp176:
	.cc_bottom _Smic_array_get_next_time_domain_frame_0.function
	.set	_Smic_array_get_next_time_domain_frame_0.nstackwords,12
	.globl	_Smic_array_get_next_time_domain_frame_0.nstackwords
	.set	_Smic_array_get_next_time_domain_frame_0.maxcores,1
	.globl	_Smic_array_get_next_time_domain_frame_0.maxcores
	.set	_Smic_array_get_next_time_domain_frame_0.maxtimers,0
	.globl	_Smic_array_get_next_time_domain_frame_0.maxtimers
	.set	_Smic_array_get_next_time_domain_frame_0.maxchanends,0
	.globl	_Smic_array_get_next_time_domain_frame_0.maxchanends
.Ltmp177:
	.size	_Smic_array_get_next_time_domain_frame_0, .Ltmp177-_Smic_array_get_next_time_domain_frame_0
.Lfunc_end3:
	.cfi_endproc

	.section	.cp.rodata.cst4,"aMc",@progbits,4
	.cc_top .LCPI4_0.data,.LCPI4_0
	.align	4
	.type	.LCPI4_0,@object
	.size	.LCPI4_0, 4
.LCPI4_0:
	.long	4294967294              # 0xfffffffe
	.cc_bottom .LCPI4_0.data
	.text
	.globl	mic_array_init_frequency_domain_frame
	.align	4
	.type	mic_array_init_frequency_domain_frame,@function
	.cc_top mic_array_init_frequency_domain_frame.function,mic_array_init_frequency_domain_frame
mic_array_init_frequency_domain_frame:  # @mic_array_init_frequency_domain_frame
.Lfunc_begin4:
	.loc	1 115 0                 # /Users/rcalhoun/code/git/sw_usb_audio/lib_mic_array/lib_mic_array/src/decimator_interface.xc:115:0
	.cfi_startproc
	.issue_mode dual
# BB#0:                                 # %allocas
.Lxtalabel51:
	{
		nop
		dualentsp 14
	}
.Ltmp178:
	.cfi_def_cfa_offset 56
.Ltmp179:
	.cfi_offset 15, 0
	std r5, r4, sp[3]               # 4-byte Folded Spill
.Ltmp180:
	.cfi_offset 4, -32
.Ltmp181:
	.cfi_offset 5, -28
	std r7, r6, sp[4]               # 4-byte Folded Spill
.Ltmp182:
	.cfi_offset 6, -24
.Ltmp183:
	.cfi_offset 7, -20
	std r9, r8, sp[5]               # 4-byte Folded Spill
.Ltmp184:
	.cfi_offset 8, -16
.Ltmp185:
	.cfi_offset 9, -12
	{
		nop
		stw r10, sp[12]
	}
.Ltmp186:
	.cfi_offset 10, -8
	#DEBUG_VALUE: mic_array_init_frequency_domain_frame:c_from_decimator <- R0
	#DEBUG_VALUE: mic_array_init_frequency_domain_frame:decimator_count <- R1
	#DEBUG_VALUE: mic_array_init_frequency_domain_frame:buffer <- R2
	#DEBUG_VALUE: mic_array_init_frequency_domain_frame:f_fft_preprocessed <- R3
	ldd r4, r11, sp[8]
	{
		nop
		stw r4, sp[4]
	}
	{
		nop
		ldw r4, sp[18]
	}
.Ltrap_info30:
	{
		ecallf r4
		nop
	}
	#DEBUG_VALUE: mic_array_init_frequency_domain_frame:c_from_decimator <- R0
	#DEBUG_VALUE: mic_array_init_frequency_domain_frame:decimator_count <- R1
	#DEBUG_VALUE: mic_array_init_frequency_domain_frame:buffer <- R2
	#DEBUG_VALUE: mic_array_init_frequency_domain_frame:f_fft_preprocessed <- R3
	{
		nop
		ldw r4, sp[15]
	}
	#DEBUG_VALUE: mic_array_init_frequency_domain_frame:dc <- R4
	{
		nop
		ldw r4, r4[0]
	}
.Ltmp187:
	{
		nop
		ldw r4, r4[8]
	}
.Ltmp188:
	#DEBUG_VALUE: buffering_type <- R4
	.loc	1 122 0 prologue_end    # /Users/rcalhoun/code/git/sw_usb_audio/lib_mic_array/lib_mic_array/src/decimator_interface.xc:122:0
	bt r4, .LBB4_1
.Ltmp189:
# BB#2:                                 # %afterboundcheck
.Lxtalabel52:
	#DEBUG_VALUE: mic_array_init_frequency_domain_frame:c_from_decimator <- R0
	#DEBUG_VALUE: mic_array_init_frequency_domain_frame:decimator_count <- R1
	#DEBUG_VALUE: mic_array_init_frequency_domain_frame:buffer <- R2
	#DEBUG_VALUE: mic_array_init_frequency_domain_frame:f_fft_preprocessed <- R3
	{
		mkmsk r6, 1
		nop
	}
	bu .LBB4_3
.Ltmp190:
.LBB4_1:
	#DEBUG_VALUE: mic_array_init_frequency_domain_frame:c_from_decimator <- R0
	#DEBUG_VALUE: mic_array_init_frequency_domain_frame:decimator_count <- R1
	#DEBUG_VALUE: mic_array_init_frequency_domain_frame:buffer <- R2
	#DEBUG_VALUE: mic_array_init_frequency_domain_frame:f_fft_preprocessed <- R3
	{
		ldc r6, 2
		nop
	}
.Ltmp191:
.LBB4_3:                                # %afterboundcheck
.Lxtalabel53:
	#DEBUG_VALUE: mic_array_init_frequency_domain_frame:c_from_decimator <- R0
	#DEBUG_VALUE: mic_array_init_frequency_domain_frame:decimator_count <- R1
	#DEBUG_VALUE: mic_array_init_frequency_domain_frame:buffer <- R2
	#DEBUG_VALUE: mic_array_init_frequency_domain_frame:f_fft_preprocessed <- R3
	#DEBUG_VALUE: i <- 0
	{
		nop
		stw r6, sp[3]
	}
	bf r1, .LBB4_6
.Ltmp192:
# BB#4:
	#DEBUG_VALUE: mic_array_init_frequency_domain_frame:c_from_decimator <- R0
	#DEBUG_VALUE: mic_array_init_frequency_domain_frame:decimator_count <- R1
	#DEBUG_VALUE: mic_array_init_frequency_domain_frame:buffer <- R2
	#DEBUG_VALUE: mic_array_init_frequency_domain_frame:f_fft_preprocessed <- R3
	{
		ldc r4, 0
		nop
	}
.Ltmp193:
.LBB4_5:                                # %LoopBody
                                        # =>This Inner Loop Header: Depth=1
.Lxtalabel54:
	#DEBUG_VALUE: mic_array_init_frequency_domain_frame:c_from_decimator <- R0
	#DEBUG_VALUE: mic_array_init_frequency_domain_frame:decimator_count <- R1
	#DEBUG_VALUE: mic_array_init_frequency_domain_frame:buffer <- R2
	#DEBUG_VALUE: mic_array_init_frequency_domain_frame:f_fft_preprocessed <- R3
	.loc	1 134 39                # /Users/rcalhoun/code/git/sw_usb_audio/lib_mic_array/lib_mic_array/src/decimator_interface.xc:134:39
	{
		lsu r5, r4, r11
		nop
	}
.Ltrap_info31:
	{
		ecallf r5
		nop
	}
	#DEBUG_VALUE: mic_array_init_frequency_domain_frame:c_from_decimator <- R0
	#DEBUG_VALUE: mic_array_init_frequency_domain_frame:decimator_count <- R1
	#DEBUG_VALUE: mic_array_init_frequency_domain_frame:buffer <- R2
	#DEBUG_VALUE: mic_array_init_frequency_domain_frame:f_fft_preprocessed <- R3
	{
		nop
		ldw r5, r0[r4]
	}
.Ltmp194:
	#DEBUG_VALUE: i <- R4
	.loc	1 134 39                # /Users/rcalhoun/code/git/sw_usb_audio/lib_mic_array/lib_mic_array/src/decimator_interface.xc:134:39
.Lxta.endpoint_labels12:
	{
		out res[r5], r6
		add r4, r4, 1
	}
.Ltmp195:
	.loc	1 133 0                 # /Users/rcalhoun/code/git/sw_usb_audio/lib_mic_array/lib_mic_array/src/decimator_interface.xc:133:0
	{
		lsu r5, r4, r1
		nop
	}
.Lxta.loop_labels21:
	# LOOPMARKER 0
	bt r5, .LBB4_5
.Ltmp196:
.LBB4_6:                                # %LoopBody32.preheader
	#DEBUG_VALUE: mic_array_init_frequency_domain_frame:c_from_decimator <- R0
	#DEBUG_VALUE: mic_array_init_frequency_domain_frame:decimator_count <- R1
	#DEBUG_VALUE: mic_array_init_frequency_domain_frame:buffer <- R2
	#DEBUG_VALUE: mic_array_init_frequency_domain_frame:f_fft_preprocessed <- R3
	#DEBUG_VALUE: mic_array_init_frequency_domain_frame:buffer <- [SP+8]
	{
		add r8, r3, 8
		stw r2, sp[2]
	}
	ldaw r3, r3[10]
.Ltmp197:
	{
		ldc r7, 0
		mkmsk r9, 2
	}
.Ltmp198:
.LBB4_7:                                # %LoopBody32
                                        # =>This Loop Header: Depth=1
                                        #     Child Loop BB4_9 Depth 2
                                        #     Child Loop BB4_11 Depth 2
.Lxtalabel55:
	#DEBUG_VALUE: mic_array_init_frequency_domain_frame:c_from_decimator <- R0
	#DEBUG_VALUE: mic_array_init_frequency_domain_frame:decimator_count <- R1
	#DEBUG_VALUE: mic_array_init_frequency_domain_frame:buffer <- [SP+8]
	#DEBUG_VALUE: i <- 0
	bf r1, .LBB4_12
.Ltmp199:
# BB#8:                                 # %LoopBody43.preheader
                                        #   in Loop: Header=BB4_7 Depth=1
	#DEBUG_VALUE: mic_array_init_frequency_domain_frame:c_from_decimator <- R0
	#DEBUG_VALUE: mic_array_init_frequency_domain_frame:decimator_count <- R1
	#DEBUG_VALUE: mic_array_init_frequency_domain_frame:buffer <- [SP+8]
	{
		nop
		ldw r2, sp[4]
	}
	{
		lsu r10, r7, r2
		nop
	}
	ldw r2, cp[.LCPI4_0]
	{
		mov r5, r8
		stw r8, sp[5]
	}
	{
		ldc r8, 0
		nop
	}
	bf r10, .LBB4_17
.Ltmp200:
.LBB4_9:                                # %LoopBody43.us
                                        #   Parent Loop BB4_7 Depth=1
                                        # =>  This Inner Loop Header: Depth=2
.Lxtalabel56:
	#DEBUG_VALUE: mic_array_init_frequency_domain_frame:c_from_decimator <- R0
	#DEBUG_VALUE: mic_array_init_frequency_domain_frame:decimator_count <- R1
	#DEBUG_VALUE: mic_array_init_frequency_domain_frame:buffer <- [SP+8]
	.loc	1 139 103               # /Users/rcalhoun/code/git/sw_usb_audio/lib_mic_array/lib_mic_array/src/decimator_interface.xc:139:103
	{
		lsu r10, r8, r11
		nop
	}
.Ltrap_info32:
	{
		ecallf r10
		nop
	}
	#DEBUG_VALUE: mic_array_init_frequency_domain_frame:c_from_decimator <- R0
	#DEBUG_VALUE: mic_array_init_frequency_domain_frame:decimator_count <- R1
	#DEBUG_VALUE: mic_array_init_frequency_domain_frame:buffer <- [SP+8]
	.loc	1 139 103               # /Users/rcalhoun/code/git/sw_usb_audio/lib_mic_array/lib_mic_array/src/decimator_interface.xc:139:103
	{
		add r2, r2, 2
		nop
	}
	.loc	1 139 103               # /Users/rcalhoun/code/git/sw_usb_audio/lib_mic_array/lib_mic_array/src/decimator_interface.xc:139:103
	{
		lsu r10, r9, r2
		nop
	}
.Ltrap_info33:
	{
		ecallt r10
		nop
	}
	#DEBUG_VALUE: mic_array_init_frequency_domain_frame:c_from_decimator <- R0
	#DEBUG_VALUE: mic_array_init_frequency_domain_frame:decimator_count <- R1
	#DEBUG_VALUE: mic_array_init_frequency_domain_frame:buffer <- [SP+8]
	.loc	1 138 0                 # /Users/rcalhoun/code/git/sw_usb_audio/lib_mic_array/lib_mic_array/src/decimator_interface.xc:138:0
	{
		add r10, r8, 1
		nop
	}
.Ltmp201:
	#DEBUG_VALUE: i <- R10
	.loc	1 139 103               # /Users/rcalhoun/code/git/sw_usb_audio/lib_mic_array/lib_mic_array/src/decimator_interface.xc:139:103
	ldaw r4, r5[4]
	{
		nop
		ldw r8, r0[r8]
	}
	.loc	1 139 103               # /Users/rcalhoun/code/git/sw_usb_audio/lib_mic_array/lib_mic_array/src/decimator_interface.xc:139:103
	#APP
	#NO_APP
	.loc	1 139 103               # /Users/rcalhoun/code/git/sw_usb_audio/lib_mic_array/lib_mic_array/src/decimator_interface.xc:139:103
.Lxta.endpoint_labels13:
	{
		out res[r8], r5
		lsu r6, r10, r1
	}
.Lxta.loop_labels22:
	# LOOPMARKER 1
.Ltmp202:
	#DEBUG_VALUE: i <- R8
	{
		mov r5, r4
		mov r8, r10
	}
.Ltmp203:
	bt r6, .LBB4_9
.Ltmp204:
# BB#10:                                #   in Loop: Header=BB4_7 Depth=1
	#DEBUG_VALUE: mic_array_init_frequency_domain_frame:c_from_decimator <- R0
	#DEBUG_VALUE: mic_array_init_frequency_domain_frame:decimator_count <- R1
	#DEBUG_VALUE: mic_array_init_frequency_domain_frame:buffer <- [SP+8]
	{
		mov r2, r3
		ldc r5, 0
	}
	{
		nop
		ldw r6, sp[3]
	}
	{
		nop
		ldw r8, sp[5]
	}
.Ltmp205:
.LBB4_11:                               # %LoopBody77
                                        #   Parent Loop BB4_7 Depth=1
                                        # =>  This Inner Loop Header: Depth=2
.Lxtalabel57:
	#DEBUG_VALUE: mic_array_init_frequency_domain_frame:c_from_decimator <- R0
	#DEBUG_VALUE: mic_array_init_frequency_domain_frame:decimator_count <- R1
	#DEBUG_VALUE: mic_array_init_frequency_domain_frame:buffer <- [SP+8]
	.loc	1 141 105               # /Users/rcalhoun/code/git/sw_usb_audio/lib_mic_array/lib_mic_array/src/decimator_interface.xc:141:105
	{
		lsu r4, r5, r11
		nop
	}
.Ltrap_info34:
	{
		ecallf r4
		nop
	}
	#DEBUG_VALUE: mic_array_init_frequency_domain_frame:c_from_decimator <- R0
	#DEBUG_VALUE: mic_array_init_frequency_domain_frame:decimator_count <- R1
	#DEBUG_VALUE: mic_array_init_frequency_domain_frame:buffer <- [SP+8]
	{
		nop
		ldw r4, r0[r5]
	}
	.loc	1 141 105               # /Users/rcalhoun/code/git/sw_usb_audio/lib_mic_array/lib_mic_array/src/decimator_interface.xc:141:105
	#APP
	#NO_APP
.Ltmp206:
	#DEBUG_VALUE: i <- R5
	.loc	1 141 105               # /Users/rcalhoun/code/git/sw_usb_audio/lib_mic_array/lib_mic_array/src/decimator_interface.xc:141:105
.Lxta.endpoint_labels14:
	{
		out res[r4], r2
		add r5, r5, 1
	}
.Ltmp207:
	.loc	1 140 0                 # /Users/rcalhoun/code/git/sw_usb_audio/lib_mic_array/lib_mic_array/src/decimator_interface.xc:140:0
	ldaw r2, r2[4]
	.loc	1 140 0                 # /Users/rcalhoun/code/git/sw_usb_audio/lib_mic_array/lib_mic_array/src/decimator_interface.xc:140:0
	{
		lsu r4, r5, r1
		nop
	}
.Lxta.loop_labels23:
	# LOOPMARKER 2
	bt r4, .LBB4_11
.Ltmp208:
.LBB4_12:                               # %LoopIncrement34
                                        #   in Loop: Header=BB4_7 Depth=1
.Lxtalabel58:
	#DEBUG_VALUE: mic_array_init_frequency_domain_frame:c_from_decimator <- R0
	#DEBUG_VALUE: mic_array_init_frequency_domain_frame:decimator_count <- R1
	#DEBUG_VALUE: mic_array_init_frequency_domain_frame:buffer <- [SP+8]
	.loc	1 136 0                 # /Users/rcalhoun/code/git/sw_usb_audio/lib_mic_array/lib_mic_array/src/decimator_interface.xc:136:0
	{
		add r7, r7, 1
		nop
	}
.Ltmp209:
	#DEBUG_VALUE: f <- R7
	ldc r2, 72
	.loc	1 136 0                 # /Users/rcalhoun/code/git/sw_usb_audio/lib_mic_array/lib_mic_array/src/decimator_interface.xc:136:0
	{
		add r8, r8, r2
		add r3, r3, r2
	}
	.loc	1 136 0                 # /Users/rcalhoun/code/git/sw_usb_audio/lib_mic_array/lib_mic_array/src/decimator_interface.xc:136:0
	{
		lsu r2, r7, r6
		nop
	}
.Lxta.loop_labels24:
	# LOOPMARKER 3
	bt r2, .LBB4_7
.Ltmp210:
# BB#13:                                # %ifdone26
.Lxtalabel59:
	#DEBUG_VALUE: mic_array_init_frequency_domain_frame:c_from_decimator <- R0
	#DEBUG_VALUE: mic_array_init_frequency_domain_frame:decimator_count <- R1
	#DEBUG_VALUE: mic_array_init_frequency_domain_frame:buffer <- [SP+8]
	#DEBUG_VALUE: i <- 0
	{
		nop
		ldw r4, sp[2]
	}
.Ltmp211:
	#DEBUG_VALUE: mic_array_init_frequency_domain_frame:buffer <- R4
	bf r1, .LBB4_16
.Ltmp212:
# BB#14:
	#DEBUG_VALUE: mic_array_init_frequency_domain_frame:c_from_decimator <- R0
	#DEBUG_VALUE: mic_array_init_frequency_domain_frame:decimator_count <- R1
	#DEBUG_VALUE: mic_array_init_frequency_domain_frame:buffer <- R4
	{
		ldc r2, 0
		nop
	}
.Ltmp213:
.LBB4_15:                               # %LoopBody116
                                        # =>This Inner Loop Header: Depth=1
.Lxtalabel60:
	#DEBUG_VALUE: mic_array_init_frequency_domain_frame:c_from_decimator <- R0
	#DEBUG_VALUE: mic_array_init_frequency_domain_frame:decimator_count <- R1
	#DEBUG_VALUE: mic_array_init_frequency_domain_frame:buffer <- R4
	.loc	1 145 0                 # /Users/rcalhoun/code/git/sw_usb_audio/lib_mic_array/lib_mic_array/src/decimator_interface.xc:145:0
	{
		lsu r3, r2, r11
		nop
	}
.Ltrap_info35:
	{
		ecallf r3
		nop
	}
	#DEBUG_VALUE: mic_array_init_frequency_domain_frame:c_from_decimator <- R0
	#DEBUG_VALUE: mic_array_init_frequency_domain_frame:decimator_count <- R1
	#DEBUG_VALUE: mic_array_init_frequency_domain_frame:buffer <- R4
	{
		nop
		ldw r3, r0[r2]
	}
.Ltmp214:
	#DEBUG_VALUE: i <- R2
	.loc	1 145 0                 # /Users/rcalhoun/code/git/sw_usb_audio/lib_mic_array/lib_mic_array/src/decimator_interface.xc:145:0
	{
		chkct res[r3], 8
		add r2, r2, 1
	}
.Ltmp215:
	.loc	1 144 0                 # /Users/rcalhoun/code/git/sw_usb_audio/lib_mic_array/lib_mic_array/src/decimator_interface.xc:144:0
	{
		lsu r3, r2, r1
		nop
	}
.Lxta.loop_labels25:
	# LOOPMARKER 4
	bt r3, .LBB4_15
.Ltmp216:
.LBB4_16:                               # %ifdone110
.Lxtalabel61:
	#DEBUG_VALUE: mic_array_init_frequency_domain_frame:buffer <- R4
	{
		nop
		stw r6, r4[0]
	}
	{
		nop
		ldw r10, sp[12]
	}
	ldd r9, r8, sp[5]               # 4-byte Folded Reload
	ldd r7, r6, sp[4]               # 4-byte Folded Reload
	ldd r5, r4, sp[3]               # 4-byte Folded Reload
.Ltmp217:
	{
		nop
		retsp 14
	}
	# RETURN_REG_HOLDER
.LBB4_17:                               # %LoopBody43
.Lxtalabel62:
.Ltrap_info36:
	{
		ecallt r11
		nop
	}
	{
		ldc r0, 0
		nop
	}
.Ltrap_info37:
.xtataskstop
	{
		ecallf r0
		nop
	}
	.cc_bottom mic_array_init_frequency_domain_frame.function
	.set	mic_array_init_frequency_domain_frame.nstackwords,14
	.globl	mic_array_init_frequency_domain_frame.nstackwords
	.set	mic_array_init_frequency_domain_frame.maxcores,1
	.globl	mic_array_init_frequency_domain_frame.maxcores
	.set	mic_array_init_frequency_domain_frame.maxtimers,0
	.globl	mic_array_init_frequency_domain_frame.maxtimers
	.set	mic_array_init_frequency_domain_frame.maxchanends,0
	.globl	mic_array_init_frequency_domain_frame.maxchanends
.Ltmp218:
	.size	mic_array_init_frequency_domain_frame, .Ltmp218-mic_array_init_frequency_domain_frame
.Lfunc_end4:
	.cfi_endproc

	.section	.cp.rodata.cst4,"aMc",@progbits,4
	.cc_top .LCPI5_0.data,.LCPI5_0
	.align	4
	.type	.LCPI5_0,@object
	.size	.LCPI5_0, 4
.LCPI5_0:
	.long	4294967225              # 0xffffffb9
	.cc_bottom .LCPI5_0.data
	.cc_top .LCPI5_1.data,.LCPI5_1
	.align	4
	.type	.LCPI5_1,@object
	.size	.LCPI5_1, 4
.LCPI5_1:
	.long	4294967294              # 0xfffffffe
	.cc_bottom .LCPI5_1.data
	.text
	.globl	mic_array_get_next_frequency_domain_frame
	.align	4
	.type	mic_array_get_next_frequency_domain_frame,@function
	.cc_top mic_array_get_next_frequency_domain_frame.function,mic_array_get_next_frequency_domain_frame
mic_array_get_next_frequency_domain_frame: # @mic_array_get_next_frequency_domain_frame
.Lfunc_begin5:
	.loc	1 153 0                 # /Users/rcalhoun/code/git/sw_usb_audio/lib_mic_array/lib_mic_array/src/decimator_interface.xc:153:0
	.cfi_startproc
	.issue_mode dual
# BB#0:                                 # %allocas
.Lxtalabel63:
	{
		nop
		dualentsp 14
	}
.Ltmp219:
	.cfi_def_cfa_offset 56
.Ltmp220:
	.cfi_offset 15, 0
	std r5, r4, sp[3]               # 4-byte Folded Spill
.Ltmp221:
	.cfi_offset 4, -32
.Ltmp222:
	.cfi_offset 5, -28
	std r7, r6, sp[4]               # 4-byte Folded Spill
.Ltmp223:
	.cfi_offset 6, -24
.Ltmp224:
	.cfi_offset 7, -20
	std r9, r8, sp[5]               # 4-byte Folded Spill
.Ltmp225:
	.cfi_offset 8, -16
.Ltmp226:
	.cfi_offset 9, -12
	{
		nop
		stw r10, sp[12]
	}
.Ltmp227:
	.cfi_offset 10, -8
	#DEBUG_VALUE: mic_array_get_next_frequency_domain_frame:c_from_decimator <- R0
	#DEBUG_VALUE: mic_array_get_next_frequency_domain_frame:decimator_count <- R1
	#DEBUG_VALUE: mic_array_get_next_frequency_domain_frame:buffer <- R2
	{
		nop
		stw r3, sp[4]
	}
.Ltmp228:
	#DEBUG_VALUE: mic_array_get_next_frequency_domain_frame:buffer <- [SP+20]
	#DEBUG_VALUE: i <- 0
	#DEBUG_VALUE: mic_array_get_next_frequency_domain_frame:decimator_count <- R4
	{
		mov r4, r1
		stw r2, sp[5]
	}
.Ltmp229:
	ldd r9, r2, sp[9]
	ldd r1, r6, sp[8]
	{
		nop
		stw r1, sp[3]
	}
	bf r4, .LBB5_12
.Ltmp230:
# BB#1:
	#DEBUG_VALUE: mic_array_get_next_frequency_domain_frame:c_from_decimator <- R0
	#DEBUG_VALUE: mic_array_get_next_frequency_domain_frame:decimator_count <- R4
	#DEBUG_VALUE: mic_array_get_next_frequency_domain_frame:buffer <- [SP+20]
	{
		ldc r1, 0
		ldc r11, 0
	}
.Ltmp231:
.LBB5_2:                                # %LoopBody
                                        # =>This Inner Loop Header: Depth=1
.Lxtalabel64:
	#DEBUG_VALUE: mic_array_get_next_frequency_domain_frame:c_from_decimator <- R0
	#DEBUG_VALUE: mic_array_get_next_frequency_domain_frame:decimator_count <- R4
	#DEBUG_VALUE: mic_array_get_next_frequency_domain_frame:buffer <- [SP+20]
	.loc	1 166 0 prologue_end    # /Users/rcalhoun/code/git/sw_usb_audio/lib_mic_array/lib_mic_array/src/decimator_interface.xc:166:0
	{
		lsu r3, r1, r6
		nop
	}
.Ltrap_info38:
	{
		ecallf r3
		nop
	}
	#DEBUG_VALUE: mic_array_get_next_frequency_domain_frame:c_from_decimator <- R0
	#DEBUG_VALUE: mic_array_get_next_frequency_domain_frame:decimator_count <- R4
	#DEBUG_VALUE: mic_array_get_next_frequency_domain_frame:buffer <- [SP+20]
	{
		nop
		ldw r3, r0[r1]
	}
.Ltmp232:
	#DEBUG_VALUE: i <- R1
	.loc	1 166 0                 # /Users/rcalhoun/code/git/sw_usb_audio/lib_mic_array/lib_mic_array/src/decimator_interface.xc:166:0
	{
		chkct res[r3], 8
		add r1, r1, 1
	}
.Ltmp233:
	.loc	1 165 0                 # /Users/rcalhoun/code/git/sw_usb_audio/lib_mic_array/lib_mic_array/src/decimator_interface.xc:165:0
	{
		lsu r3, r1, r4
		nop
	}
.Lxta.loop_labels26:
	# LOOPMARKER 0
	bt r3, .LBB5_2
.Ltmp234:
.LBB5_3:                                # %LoopBody16
                                        # =>This Inner Loop Header: Depth=1
.Lxtalabel65:
	#DEBUG_VALUE: mic_array_get_next_frequency_domain_frame:c_from_decimator <- R0
	#DEBUG_VALUE: mic_array_get_next_frequency_domain_frame:decimator_count <- R4
	#DEBUG_VALUE: mic_array_get_next_frequency_domain_frame:buffer <- [SP+20]
	.loc	1 169 0                 # /Users/rcalhoun/code/git/sw_usb_audio/lib_mic_array/lib_mic_array/src/decimator_interface.xc:169:0
	{
		lsu r1, r11, r6
		nop
	}
.Ltrap_info39:
	{
		ecallf r1
		nop
	}
	#DEBUG_VALUE: mic_array_get_next_frequency_domain_frame:c_from_decimator <- R0
	#DEBUG_VALUE: mic_array_get_next_frequency_domain_frame:decimator_count <- R4
	#DEBUG_VALUE: mic_array_get_next_frequency_domain_frame:buffer <- [SP+20]
	{
		nop
		ldw r1, r0[r11]
	}
.Ltmp235:
	#DEBUG_VALUE: i <- R11
	.loc	1 169 0                 # /Users/rcalhoun/code/git/sw_usb_audio/lib_mic_array/lib_mic_array/src/decimator_interface.xc:169:0
.Lxta.endpoint_labels15:
	{
		outct res[r1], 0
		add r11, r11, 1
	}
.Ltmp236:
	.loc	1 168 0                 # /Users/rcalhoun/code/git/sw_usb_audio/lib_mic_array/lib_mic_array/src/decimator_interface.xc:168:0
	{
		lsu r1, r11, r4
		nop
	}
.Lxta.loop_labels27:
	# LOOPMARKER 1
	bt r1, .LBB5_3
.Ltmp237:
# BB#4:                                 # %LoopBody40.preheader
.Lxtalabel66:
	#DEBUG_VALUE: mic_array_get_next_frequency_domain_frame:c_from_decimator <- R0
	#DEBUG_VALUE: mic_array_get_next_frequency_domain_frame:decimator_count <- R4
	#DEBUG_VALUE: mic_array_get_next_frequency_domain_frame:buffer <- [SP+20]
	#DEBUG_VALUE: i <- 0
	ldc r1, 71
	.loc	1 172 104               # /Users/rcalhoun/code/git/sw_usb_audio/lib_mic_array/lib_mic_array/src/decimator_interface.xc:172:104
.Ltmp238:
	{
		lsu r1, r2, r1
		ldc r7, 0
	}
	.loc	1 172 104               # /Users/rcalhoun/code/git/sw_usb_audio/lib_mic_array/lib_mic_array/src/decimator_interface.xc:172:104
	{
		mov r8, r7
		nop
	}
	bt r1, .LBB5_6
.Ltmp239:
# BB#5:                                 # %LoopBody40.preheader
.Lxtalabel67:
	#DEBUG_VALUE: mic_array_get_next_frequency_domain_frame:c_from_decimator <- R0
	#DEBUG_VALUE: mic_array_get_next_frequency_domain_frame:decimator_count <- R4
	#DEBUG_VALUE: mic_array_get_next_frequency_domain_frame:buffer <- [SP+20]
	#DEBUG_VALUE: i <- 0
	ldw r1, cp[.LCPI5_0]
	.loc	1 172 104               # /Users/rcalhoun/code/git/sw_usb_audio/lib_mic_array/lib_mic_array/src/decimator_interface.xc:172:104
	{
		add r8, r2, r1
		nop
	}
.Ltmp240:
.LBB5_6:                                # %LoopBody40.preheader
.Lxtalabel68:
	#DEBUG_VALUE: mic_array_get_next_frequency_domain_frame:c_from_decimator <- R0
	#DEBUG_VALUE: mic_array_get_next_frequency_domain_frame:decimator_count <- R4
	#DEBUG_VALUE: mic_array_get_next_frequency_domain_frame:buffer <- [SP+20]
	#DEBUG_VALUE: i <- 0
	{
		nop
		stw r9, sp[1]
	}
	{
		nop
		stw r2, sp[2]
	}
	{
		nop
		ldw r1, sp[4]
	}
	{
		add r11, r1, 8
		nop
	}
	ldw r9, cp[.LCPI5_1]
	{
		ldc r5, 4
		nop
	}
.Ltmp241:
.LBB5_7:                                # %LoopBody40
                                        # =>This Inner Loop Header: Depth=1
.Lxtalabel69:
	#DEBUG_VALUE: mic_array_get_next_frequency_domain_frame:c_from_decimator <- R0
	#DEBUG_VALUE: mic_array_get_next_frequency_domain_frame:decimator_count <- R4
	#DEBUG_VALUE: mic_array_get_next_frequency_domain_frame:buffer <- [SP+20]
	#DEBUG_VALUE: i <- 0
	.loc	1 172 104               # /Users/rcalhoun/code/git/sw_usb_audio/lib_mic_array/lib_mic_array/src/decimator_interface.xc:172:104
	{
		lsu r1, r7, r6
		nop
	}
.Ltrap_info40:
	{
		ecallf r1
		nop
	}
	#DEBUG_VALUE: mic_array_get_next_frequency_domain_frame:c_from_decimator <- R0
	#DEBUG_VALUE: mic_array_get_next_frequency_domain_frame:decimator_count <- R4
	#DEBUG_VALUE: mic_array_get_next_frequency_domain_frame:buffer <- [SP+20]
	#DEBUG_VALUE: i <- 0
	{
		nop
		ldw r1, sp[5]
	}
	{
		nop
		ldw r1, r1[0]
	}
	ldc r2, 72
	.loc	1 172 104               # /Users/rcalhoun/code/git/sw_usb_audio/lib_mic_array/lib_mic_array/src/decimator_interface.xc:172:104
	mul r1, r1, r2
	{
		nop
		ldw r2, sp[4]
	}
	{
		add r10, r2, r1
		ldw r2, sp[3]
	}
	.loc	1 172 104               # /Users/rcalhoun/code/git/sw_usb_audio/lib_mic_array/lib_mic_array/src/decimator_interface.xc:172:104
	{
		sub r3, r10, r2
		nop
	}
	.loc	1 172 104               # /Users/rcalhoun/code/git/sw_usb_audio/lib_mic_array/lib_mic_array/src/decimator_interface.xc:172:104
	{
		lsu r3, r3, r8
		nop
	}
.Ltrap_info41:
	{
		ecallf r3
		nop
	}
	#DEBUG_VALUE: mic_array_get_next_frequency_domain_frame:c_from_decimator <- R0
	#DEBUG_VALUE: mic_array_get_next_frequency_domain_frame:decimator_count <- R4
	#DEBUG_VALUE: mic_array_get_next_frequency_domain_frame:buffer <- [SP+20]
	#DEBUG_VALUE: i <- 0
	.loc	1 172 104               # /Users/rcalhoun/code/git/sw_usb_audio/lib_mic_array/lib_mic_array/src/decimator_interface.xc:172:104
	{
		add r9, r9, 2
		nop
	}
	.loc	1 172 104               # /Users/rcalhoun/code/git/sw_usb_audio/lib_mic_array/lib_mic_array/src/decimator_interface.xc:172:104
	{
		lsu r3, r9, r5
		nop
	}
.Ltrap_info42:
	{
		ecallf r3
		nop
	}
	#DEBUG_VALUE: mic_array_get_next_frequency_domain_frame:c_from_decimator <- R0
	#DEBUG_VALUE: mic_array_get_next_frequency_domain_frame:decimator_count <- R4
	#DEBUG_VALUE: mic_array_get_next_frequency_domain_frame:buffer <- [SP+20]
	#DEBUG_VALUE: i <- 0
	{
		nop
		ldw r3, r0[r7]
	}
	.loc	1 172 104               # /Users/rcalhoun/code/git/sw_usb_audio/lib_mic_array/lib_mic_array/src/decimator_interface.xc:172:104
	ldaw r2, r11[4]
.Ltmp242:
	#DEBUG_VALUE: i <- R7
	.loc	1 171 0                 # /Users/rcalhoun/code/git/sw_usb_audio/lib_mic_array/lib_mic_array/src/decimator_interface.xc:171:0
	{
		add r7, r7, 1
		add r1, r11, r1
	}
.Ltmp243:
	.loc	1 172 104               # /Users/rcalhoun/code/git/sw_usb_audio/lib_mic_array/lib_mic_array/src/decimator_interface.xc:172:104
	#APP
	#NO_APP
	.loc	1 172 104               # /Users/rcalhoun/code/git/sw_usb_audio/lib_mic_array/lib_mic_array/src/decimator_interface.xc:172:104
.Lxta.endpoint_labels16:
	{
		out res[r3], r1
		lsu r1, r7, r4
	}
.Lxta.loop_labels28:
	# LOOPMARKER 2
	{
		mov r11, r2
		nop
	}
	bt r1, .LBB5_7
.Ltmp244:
# BB#8:                                 # %LoopBody73.preheader
	#DEBUG_VALUE: mic_array_get_next_frequency_domain_frame:c_from_decimator <- R0
	#DEBUG_VALUE: mic_array_get_next_frequency_domain_frame:decimator_count <- R4
	#DEBUG_VALUE: mic_array_get_next_frequency_domain_frame:buffer <- [SP+20]
	ldaw r1, r10[10]
	{
		ldc r5, 0
		nop
	}
	{
		mov r11, r5
		nop
	}
.Ltmp245:
.LBB5_9:                                # %LoopBody73
                                        # =>This Inner Loop Header: Depth=1
.Lxtalabel70:
	#DEBUG_VALUE: mic_array_get_next_frequency_domain_frame:c_from_decimator <- R0
	#DEBUG_VALUE: mic_array_get_next_frequency_domain_frame:decimator_count <- R4
	#DEBUG_VALUE: mic_array_get_next_frequency_domain_frame:buffer <- [SP+20]
	.loc	1 174 106               # /Users/rcalhoun/code/git/sw_usb_audio/lib_mic_array/lib_mic_array/src/decimator_interface.xc:174:106
	{
		lsu r2, r11, r6
		nop
	}
.Ltrap_info43:
	{
		ecallf r2
		nop
	}
	#DEBUG_VALUE: mic_array_get_next_frequency_domain_frame:c_from_decimator <- R0
	#DEBUG_VALUE: mic_array_get_next_frequency_domain_frame:decimator_count <- R4
	#DEBUG_VALUE: mic_array_get_next_frequency_domain_frame:buffer <- [SP+20]
	{
		nop
		ldw r2, r0[r11]
	}
	.loc	1 174 106               # /Users/rcalhoun/code/git/sw_usb_audio/lib_mic_array/lib_mic_array/src/decimator_interface.xc:174:106
	#APP
	#NO_APP
.Ltmp246:
	#DEBUG_VALUE: i <- R11
	.loc	1 174 106               # /Users/rcalhoun/code/git/sw_usb_audio/lib_mic_array/lib_mic_array/src/decimator_interface.xc:174:106
.Lxta.endpoint_labels17:
	{
		out res[r2], r1
		add r11, r11, 1
	}
.Ltmp247:
	.loc	1 173 0                 # /Users/rcalhoun/code/git/sw_usb_audio/lib_mic_array/lib_mic_array/src/decimator_interface.xc:173:0
	ldaw r1, r1[4]
	.loc	1 173 0                 # /Users/rcalhoun/code/git/sw_usb_audio/lib_mic_array/lib_mic_array/src/decimator_interface.xc:173:0
	{
		lsu r2, r11, r4
		nop
	}
.Lxta.loop_labels29:
	# LOOPMARKER 3
	bt r2, .LBB5_9
.Ltmp248:
# BB#10:
	#DEBUG_VALUE: mic_array_get_next_frequency_domain_frame:c_from_decimator <- R0
	#DEBUG_VALUE: mic_array_get_next_frequency_domain_frame:decimator_count <- R4
	#DEBUG_VALUE: mic_array_get_next_frequency_domain_frame:buffer <- [SP+20]
	{
		nop
		ldw r2, sp[2]
	}
	{
		nop
		ldw r9, sp[1]
	}
.Ltmp249:
.LBB5_11:                               # %LoopBody113
                                        # =>This Inner Loop Header: Depth=1
.Lxtalabel71:
	#DEBUG_VALUE: mic_array_get_next_frequency_domain_frame:c_from_decimator <- R0
	#DEBUG_VALUE: mic_array_get_next_frequency_domain_frame:decimator_count <- R4
	#DEBUG_VALUE: mic_array_get_next_frequency_domain_frame:buffer <- [SP+20]
	.loc	1 178 0                 # /Users/rcalhoun/code/git/sw_usb_audio/lib_mic_array/lib_mic_array/src/decimator_interface.xc:178:0
	{
		lsu r1, r5, r6
		nop
	}
.Ltrap_info44:
	{
		ecallf r1
		nop
	}
	#DEBUG_VALUE: mic_array_get_next_frequency_domain_frame:c_from_decimator <- R0
	#DEBUG_VALUE: mic_array_get_next_frequency_domain_frame:decimator_count <- R4
	#DEBUG_VALUE: mic_array_get_next_frequency_domain_frame:buffer <- [SP+20]
	{
		nop
		ldw r1, r0[r5]
	}
.Ltmp250:
	#DEBUG_VALUE: i <- R5
	.loc	1 178 0                 # /Users/rcalhoun/code/git/sw_usb_audio/lib_mic_array/lib_mic_array/src/decimator_interface.xc:178:0
	{
		chkct res[r1], 8
		add r5, r5, 1
	}
.Ltmp251:
	.loc	1 177 0                 # /Users/rcalhoun/code/git/sw_usb_audio/lib_mic_array/lib_mic_array/src/decimator_interface.xc:177:0
	{
		lsu r1, r5, r4
		nop
	}
.Lxta.loop_labels30:
	# LOOPMARKER 4
	bt r1, .LBB5_11
.Ltmp252:
.LBB5_12:                               # %ifdone107
.Lxtalabel72:
	#DEBUG_VALUE: mic_array_get_next_frequency_domain_frame:buffer <- [SP+20]
.Ltrap_info45:
	{
		ecallf r9
		nop
	}
	#DEBUG_VALUE: mic_array_get_next_frequency_domain_frame:buffer <- [SP+20]
	{
		nop
		ldw r0, sp[15]
	}
	#DEBUG_VALUE: mic_array_get_next_frequency_domain_frame:dc <- R0
	{
		nop
		ldw r0, r0[0]
	}
.Ltmp253:
	{
		nop
		ldw r11, r0[8]
	}
.Ltmp254:
	#DEBUG_VALUE: buffering_type <- R11
	{
		nop
		ldw r0, r0[9]
	}
.Ltmp255:
	#DEBUG_VALUE: buffer_count <- R0
	{
		nop
		ldw r1, sp[5]
	}
	{
		nop
		ldw r1, r1[0]
	}
	.loc	1 188 0                 # /Users/rcalhoun/code/git/sw_usb_audio/lib_mic_array/lib_mic_array/src/decimator_interface.xc:188:0
.Ltmp256:
	{
		add r3, r1, r0
		nop
	}
	.loc	1 187 6                 # /Users/rcalhoun/code/git/sw_usb_audio/lib_mic_array/lib_mic_array/src/decimator_interface.xc:187:6
	bt r11, .LBB5_13
.Ltmp257:
# BB#14:                                # %afterboundcheck129
.Lxtalabel73:
	#DEBUG_VALUE: mic_array_get_next_frequency_domain_frame:buffer <- [SP+20]
	{
		mkmsk r11, 32
		nop
	}
	bu .LBB5_15
.Ltmp258:
.LBB5_13:
	#DEBUG_VALUE: mic_array_get_next_frequency_domain_frame:buffer <- [SP+20]
	ldw r11, cp[.LCPI5_1]
.Ltmp259:
.LBB5_15:                               # %afterboundcheck129
.Lxtalabel74:
	#DEBUG_VALUE: mic_array_get_next_frequency_domain_frame:buffer <- [SP+20]
	#DEBUG_VALUE: buffer_count <- R0
	.loc	1 187 6                 # /Users/rcalhoun/code/git/sw_usb_audio/lib_mic_array/lib_mic_array/src/decimator_interface.xc:187:6
	{
		add r11, r3, r11
		nop
	}
	.loc	1 192 6                 # /Users/rcalhoun/code/git/sw_usb_audio/lib_mic_array/lib_mic_array/src/decimator_interface.xc:192:6
	{
		lsu r5, r11, r0
		ldc r3, 0
	}
	.loc	1 192 6                 # /Users/rcalhoun/code/git/sw_usb_audio/lib_mic_array/lib_mic_array/src/decimator_interface.xc:192:6
	{
		mov r4, r3
		nop
	}
	bt r5, .LBB5_17
.Ltmp260:
# BB#16:                                # %afterboundcheck129
.Lxtalabel75:
	#DEBUG_VALUE: mic_array_get_next_frequency_domain_frame:buffer <- [SP+20]
	#DEBUG_VALUE: buffer_count <- R0
	{
		mov r4, r0
		nop
	}
.Ltmp261:
.LBB5_17:                               # %afterboundcheck129
.Lxtalabel76:
	#DEBUG_VALUE: mic_array_get_next_frequency_domain_frame:buffer <- [SP+20]
	#DEBUG_VALUE: buffer_count <- R0
	.loc	1 192 6                 # /Users/rcalhoun/code/git/sw_usb_audio/lib_mic_array/lib_mic_array/src/decimator_interface.xc:192:6
	{
		sub r11, r11, r4
		add r1, r1, 1
	}
	.loc	1 196 6                 # /Users/rcalhoun/code/git/sw_usb_audio/lib_mic_array/lib_mic_array/src/decimator_interface.xc:196:6
	{
		eq r0, r1, r0
		nop
	}
.Ltmp262:
	bt r0, .LBB5_19
.Ltmp263:
# BB#18:                                # %afterboundcheck129
.Lxtalabel77:
	#DEBUG_VALUE: mic_array_get_next_frequency_domain_frame:buffer <- [SP+20]
	.loc	1 196 6                 # /Users/rcalhoun/code/git/sw_usb_audio/lib_mic_array/lib_mic_array/src/decimator_interface.xc:196:6
	{
		mov r3, r1
		nop
	}
.Ltmp264:
.LBB5_19:                               # %afterboundcheck129
.Lxtalabel78:
	#DEBUG_VALUE: mic_array_get_next_frequency_domain_frame:buffer <- [SP+20]
	{
		nop
		ldw r0, sp[5]
	}
	{
		nop
		stw r3, r0[0]
	}
	ldc r0, 72
	.loc	1 199 6                 # /Users/rcalhoun/code/git/sw_usb_audio/lib_mic_array/lib_mic_array/src/decimator_interface.xc:199:6
	mul r0, r11, r0
	{
		nop
		ldw r1, sp[4]
	}
	{
		add r0, r1, r0
		ldw r1, sp[3]
	}
	{
		nop
		ldw r10, sp[12]
	}
	ldd r9, r8, sp[5]               # 4-byte Folded Reload
	ldd r7, r6, sp[4]               # 4-byte Folded Reload
	ldd r5, r4, sp[3]               # 4-byte Folded Reload
	{
		nop
		retsp 14
	}
.Ltmp265:
	# RETURN_REG_HOLDER
.Ltmp266:
	.cc_bottom mic_array_get_next_frequency_domain_frame.function
	.set	mic_array_get_next_frequency_domain_frame.nstackwords,14
	.globl	mic_array_get_next_frequency_domain_frame.nstackwords
	.set	mic_array_get_next_frequency_domain_frame.maxcores,1
	.globl	mic_array_get_next_frequency_domain_frame.maxcores
	.set	mic_array_get_next_frequency_domain_frame.maxtimers,0
	.globl	mic_array_get_next_frequency_domain_frame.maxtimers
	.set	mic_array_get_next_frequency_domain_frame.maxchanends,0
	.globl	mic_array_get_next_frequency_domain_frame.maxchanends
.Ltmp267:
	.size	mic_array_get_next_frequency_domain_frame, .Ltmp267-mic_array_get_next_frequency_domain_frame
.Lfunc_end5:
	.cfi_endproc

	.globl	mic_array_decimator_configure
	.align	4
	.type	mic_array_decimator_configure,@function
	.cc_top mic_array_decimator_configure.function,mic_array_decimator_configure
mic_array_decimator_configure:          # @mic_array_decimator_configure
.Lfunc_begin6:
	.loc	1 205 0                 # /Users/rcalhoun/code/git/sw_usb_audio/lib_mic_array/lib_mic_array/src/decimator_interface.xc:205:0
	.cfi_startproc
	.issue_mode dual
# BB#0:                                 # %allocas
.Lxtalabel79:
	{
		nop
		dualentsp 0
	}
	{
		extsp 2
		nop
	}
.Ltmp268:
	.cfi_def_cfa_offset 8
	std r5, r4, sp[0]               # 4-byte Folded Spill
.Ltmp269:
	.cfi_offset 4, -8
.Ltmp270:
	.cfi_offset 5, -4
	#DEBUG_VALUE: mic_array_decimator_configure:c_from_decimator <- R0
	#DEBUG_VALUE: mic_array_decimator_configure:decimator_count <- R1
	#DEBUG_VALUE: mic_array_decimator_configure:dc <- R2
.Ltmp271:
	#DEBUG_VALUE: i <- 0
	bf r1, .LBB6_6
.Ltmp272:
# BB#1:
	#DEBUG_VALUE: mic_array_decimator_configure:c_from_decimator <- R0
	#DEBUG_VALUE: mic_array_decimator_configure:decimator_count <- R1
	#DEBUG_VALUE: mic_array_decimator_configure:dc <- R2
	{
		ldc r11, 0
		ldc r4, 0
	}
.Ltmp273:
.LBB6_2:                                # %LoopBody
                                        # =>This Inner Loop Header: Depth=1
.Lxtalabel80:
	#DEBUG_VALUE: mic_array_decimator_configure:c_from_decimator <- R0
	#DEBUG_VALUE: mic_array_decimator_configure:decimator_count <- R1
	#DEBUG_VALUE: mic_array_decimator_configure:dc <- R2
	.loc	1 209 0 prologue_end    # /Users/rcalhoun/code/git/sw_usb_audio/lib_mic_array/lib_mic_array/src/decimator_interface.xc:209:0
	{
		lsu r5, r11, r3
		nop
	}
.Ltrap_info46:
	{
		ecallf r5
		nop
	}
	#DEBUG_VALUE: mic_array_decimator_configure:c_from_decimator <- R0
	#DEBUG_VALUE: mic_array_decimator_configure:decimator_count <- R1
	#DEBUG_VALUE: mic_array_decimator_configure:dc <- R2
	{
		nop
		ldw r5, r0[r11]
	}
.Ltmp274:
	#DEBUG_VALUE: i <- R11
	.loc	1 209 0                 # /Users/rcalhoun/code/git/sw_usb_audio/lib_mic_array/lib_mic_array/src/decimator_interface.xc:209:0
	{
		chkct res[r5], 8
		add r11, r11, 1
	}
.Ltmp275:
	.loc	1 208 0                 # /Users/rcalhoun/code/git/sw_usb_audio/lib_mic_array/lib_mic_array/src/decimator_interface.xc:208:0
	{
		lsu r5, r11, r1
		nop
	}
.Lxta.loop_labels31:
	# LOOPMARKER 0
	bt r5, .LBB6_2
.Ltmp276:
# BB#3:
	#DEBUG_VALUE: mic_array_decimator_configure:c_from_decimator <- R0
	#DEBUG_VALUE: mic_array_decimator_configure:decimator_count <- R1
	#DEBUG_VALUE: mic_array_decimator_configure:dc <- R2
	{
		ldc r11, 0
		nop
	}
.Ltmp277:
.LBB6_4:                                # %LoopBody16
                                        # =>This Inner Loop Header: Depth=1
.Lxtalabel81:
	#DEBUG_VALUE: mic_array_decimator_configure:c_from_decimator <- R0
	#DEBUG_VALUE: mic_array_decimator_configure:decimator_count <- R1
	#DEBUG_VALUE: mic_array_decimator_configure:dc <- R2
	.loc	1 212 0                 # /Users/rcalhoun/code/git/sw_usb_audio/lib_mic_array/lib_mic_array/src/decimator_interface.xc:212:0
	{
		lsu r5, r4, r3
		nop
	}
.Ltrap_info47:
	{
		ecallf r5
		nop
	}
	#DEBUG_VALUE: mic_array_decimator_configure:c_from_decimator <- R0
	#DEBUG_VALUE: mic_array_decimator_configure:decimator_count <- R1
	#DEBUG_VALUE: mic_array_decimator_configure:dc <- R2
	{
		nop
		ldw r5, r0[r4]
	}
.Ltmp278:
	#DEBUG_VALUE: i <- R4
	.loc	1 212 0                 # /Users/rcalhoun/code/git/sw_usb_audio/lib_mic_array/lib_mic_array/src/decimator_interface.xc:212:0
.Lxta.endpoint_labels18:
	{
		outct res[r5], 1
		add r4, r4, 1
	}
.Ltmp279:
	.loc	1 211 0                 # /Users/rcalhoun/code/git/sw_usb_audio/lib_mic_array/lib_mic_array/src/decimator_interface.xc:211:0
	{
		lsu r5, r4, r1
		nop
	}
.Lxta.loop_labels32:
	# LOOPMARKER 1
	bt r5, .LBB6_4
.Ltmp280:
.LBB6_5:                                # %LoopBody40
                                        # =>This Inner Loop Header: Depth=1
.Lxtalabel82:
	#DEBUG_VALUE: mic_array_decimator_configure:c_from_decimator <- R0
	#DEBUG_VALUE: mic_array_decimator_configure:decimator_count <- R1
	.loc	1 216 82                # /Users/rcalhoun/code/git/sw_usb_audio/lib_mic_array/lib_mic_array/src/decimator_interface.xc:216:82
	{
		lsu r4, r11, r3
		nop
	}
.Ltrap_info48:
	{
		ecallf r4
		nop
	}
	#DEBUG_VALUE: mic_array_decimator_configure:c_from_decimator <- R0
	#DEBUG_VALUE: mic_array_decimator_configure:decimator_count <- R1
	{
		nop
		ldw r4, r0[r11]
	}
	.loc	1 216 82                # /Users/rcalhoun/code/git/sw_usb_audio/lib_mic_array/lib_mic_array/src/decimator_interface.xc:216:82
	#APP
	#NO_APP
.Ltmp281:
	#DEBUG_VALUE: i <- R11
	.loc	1 216 82                # /Users/rcalhoun/code/git/sw_usb_audio/lib_mic_array/lib_mic_array/src/decimator_interface.xc:216:82
.Lxta.endpoint_labels19:
	{
		out res[r4], r2
		add r11, r11, 1
	}
.Ltmp282:
	.loc	1 215 0                 # /Users/rcalhoun/code/git/sw_usb_audio/lib_mic_array/lib_mic_array/src/decimator_interface.xc:215:0
	ldaw r2, r2[7]
	.loc	1 215 0                 # /Users/rcalhoun/code/git/sw_usb_audio/lib_mic_array/lib_mic_array/src/decimator_interface.xc:215:0
	{
		lsu r4, r11, r1
		nop
	}
.Lxta.loop_labels33:
	# LOOPMARKER 2
	bt r4, .LBB6_5
.Ltmp283:
.LBB6_6:                                # %return
.Lxtalabel83:
	ldd r5, r4, sp[0]               # 4-byte Folded Reload
	{
		ldaw sp, sp[2]
		nop
	}
	{
		nop
		retsp 0
	}
	# RETURN_REG_HOLDER
	.cc_bottom mic_array_decimator_configure.function
	.set	mic_array_decimator_configure.nstackwords,2
	.globl	mic_array_decimator_configure.nstackwords
	.set	mic_array_decimator_configure.maxcores,1
	.globl	mic_array_decimator_configure.maxcores
	.set	mic_array_decimator_configure.maxtimers,0
	.globl	mic_array_decimator_configure.maxtimers
	.set	mic_array_decimator_configure.maxchanends,0
	.globl	mic_array_decimator_configure.maxchanends
.Ltmp284:
	.size	mic_array_decimator_configure, .Ltmp284-mic_array_decimator_configure
.Lfunc_end6:
	.cfi_endproc

	.globl	_Smic_array_decimator_configure_0
	.align	4
	.type	_Smic_array_decimator_configure_0,@function
	.cc_top _Smic_array_decimator_configure_0.function,_Smic_array_decimator_configure_0
_Smic_array_decimator_configure_0:      # @_Smic_array_decimator_configure_0
.Lfunc_begin7:
	.loc	1 205 0                 # /Users/rcalhoun/code/git/sw_usb_audio/lib_mic_array/lib_mic_array/src/decimator_interface.xc:205:0
	.cfi_startproc
	.issue_mode dual
# BB#0:                                 # %allocas
.Lxtalabel84:
	{
		nop
		dualentsp 0
	}
	{
		extsp 2
		nop
	}
.Ltmp285:
	.cfi_def_cfa_offset 8
	std r5, r4, sp[0]               # 4-byte Folded Spill
.Ltmp286:
	.cfi_offset 4, -8
.Ltmp287:
	.cfi_offset 5, -4
	#DEBUG_VALUE: mic_array_decimator_configure:c_from_decimator <- R0
	#DEBUG_VALUE: mic_array_decimator_configure:dc <- R1
.Ltmp288:
	#DEBUG_VALUE: decimator_count <- 2
	#DEBUG_VALUE: i <- 0
	{
		ldc r4, 0
		ldc r3, 2
	}
	{
		mov r11, r4
		nop
	}
.Ltmp289:
.LBB7_1:                                # %LoopBody
                                        # =>This Inner Loop Header: Depth=1
.Lxtalabel85:
	#DEBUG_VALUE: mic_array_decimator_configure:c_from_decimator <- R0
	#DEBUG_VALUE: mic_array_decimator_configure:dc <- R1
	#DEBUG_VALUE: decimator_count <- 2
	#DEBUG_VALUE: i <- 0
	.loc	1 209 0 prologue_end    # /Users/rcalhoun/code/git/sw_usb_audio/lib_mic_array/lib_mic_array/src/decimator_interface.xc:209:0
	{
		lsu r5, r11, r2
		nop
	}
.Ltrap_info49:
	{
		ecallf r5
		nop
	}
	#DEBUG_VALUE: mic_array_decimator_configure:c_from_decimator <- R0
	#DEBUG_VALUE: mic_array_decimator_configure:dc <- R1
	#DEBUG_VALUE: decimator_count <- 2
	#DEBUG_VALUE: i <- 0
	{
		nop
		ldw r5, r0[r11]
	}
.Ltmp290:
	#DEBUG_VALUE: i <- R11
	.loc	1 209 0                 # /Users/rcalhoun/code/git/sw_usb_audio/lib_mic_array/lib_mic_array/src/decimator_interface.xc:209:0
	{
		chkct res[r5], 8
		add r11, r11, 1
	}
.Ltmp291:
	.loc	1 208 0                 # /Users/rcalhoun/code/git/sw_usb_audio/lib_mic_array/lib_mic_array/src/decimator_interface.xc:208:0
	{
		lsu r5, r11, r3
		nop
	}
.Lxta.loop_labels34:
	# LOOPMARKER 0
	bt r5, .LBB7_1
.Ltmp292:
# BB#2:
	#DEBUG_VALUE: mic_array_decimator_configure:c_from_decimator <- R0
	#DEBUG_VALUE: mic_array_decimator_configure:dc <- R1
	{
		ldc r11, 0
		nop
	}
.Ltmp293:
.LBB7_3:                                # %LoopBody16
                                        # =>This Inner Loop Header: Depth=1
.Lxtalabel86:
	#DEBUG_VALUE: mic_array_decimator_configure:c_from_decimator <- R0
	#DEBUG_VALUE: mic_array_decimator_configure:dc <- R1
	.loc	1 212 0                 # /Users/rcalhoun/code/git/sw_usb_audio/lib_mic_array/lib_mic_array/src/decimator_interface.xc:212:0
	{
		lsu r5, r4, r2
		nop
	}
.Ltrap_info50:
	{
		ecallf r5
		nop
	}
	#DEBUG_VALUE: mic_array_decimator_configure:c_from_decimator <- R0
	#DEBUG_VALUE: mic_array_decimator_configure:dc <- R1
	{
		nop
		ldw r5, r0[r4]
	}
.Ltmp294:
	#DEBUG_VALUE: i <- R4
	.loc	1 212 0                 # /Users/rcalhoun/code/git/sw_usb_audio/lib_mic_array/lib_mic_array/src/decimator_interface.xc:212:0
.Lxta.endpoint_labels20:
	{
		outct res[r5], 1
		add r4, r4, 1
	}
.Ltmp295:
	.loc	1 211 0                 # /Users/rcalhoun/code/git/sw_usb_audio/lib_mic_array/lib_mic_array/src/decimator_interface.xc:211:0
	{
		lsu r5, r4, r3
		nop
	}
.Lxta.loop_labels35:
	# LOOPMARKER 1
	bt r5, .LBB7_3
.Ltmp296:
.LBB7_4:                                # %LoopBody40
                                        # =>This Inner Loop Header: Depth=1
.Lxtalabel87:
	#DEBUG_VALUE: mic_array_decimator_configure:c_from_decimator <- R0
	.loc	1 216 82                # /Users/rcalhoun/code/git/sw_usb_audio/lib_mic_array/lib_mic_array/src/decimator_interface.xc:216:82
	{
		lsu r4, r11, r2
		nop
	}
.Ltrap_info51:
	{
		ecallf r4
		nop
	}
	#DEBUG_VALUE: mic_array_decimator_configure:c_from_decimator <- R0
	{
		nop
		ldw r4, r0[r11]
	}
	.loc	1 216 82                # /Users/rcalhoun/code/git/sw_usb_audio/lib_mic_array/lib_mic_array/src/decimator_interface.xc:216:82
	#APP
	#NO_APP
.Ltmp297:
	#DEBUG_VALUE: i <- R11
	.loc	1 216 82                # /Users/rcalhoun/code/git/sw_usb_audio/lib_mic_array/lib_mic_array/src/decimator_interface.xc:216:82
.Lxta.endpoint_labels21:
	{
		out res[r4], r1
		add r11, r11, 1
	}
.Ltmp298:
	.loc	1 215 0                 # /Users/rcalhoun/code/git/sw_usb_audio/lib_mic_array/lib_mic_array/src/decimator_interface.xc:215:0
	ldaw r1, r1[7]
	.loc	1 215 0                 # /Users/rcalhoun/code/git/sw_usb_audio/lib_mic_array/lib_mic_array/src/decimator_interface.xc:215:0
	{
		lsu r4, r11, r3
		nop
	}
.Lxta.loop_labels36:
	# LOOPMARKER 2
	bt r4, .LBB7_4
.Ltmp299:
# BB#5:                                 # %return
.Lxtalabel88:
	ldd r5, r4, sp[0]               # 4-byte Folded Reload
	{
		ldaw sp, sp[2]
		nop
	}
	{
		nop
		retsp 0
	}
	# RETURN_REG_HOLDER
	.cc_bottom _Smic_array_decimator_configure_0.function
	.set	_Smic_array_decimator_configure_0.nstackwords,2
	.globl	_Smic_array_decimator_configure_0.nstackwords
	.set	_Smic_array_decimator_configure_0.maxcores,1
	.globl	_Smic_array_decimator_configure_0.maxcores
	.set	_Smic_array_decimator_configure_0.maxtimers,0
	.globl	_Smic_array_decimator_configure_0.maxtimers
	.set	_Smic_array_decimator_configure_0.maxchanends,0
	.globl	_Smic_array_decimator_configure_0.maxchanends
.Ltmp300:
	.size	_Smic_array_decimator_configure_0, .Ltmp300-_Smic_array_decimator_configure_0
.Lfunc_end7:
	.cfi_endproc

.Ldebug_end0:
	.file	2 "/Applications/XMOS_XTC_15.1.4/target/include/timer.h"
	.file	3 "/Applications/XMOS_XTC_15.1.4/target/include/xc/safe/string.h"
	.section	.xtaendpointtable,"",@progbits
.Lentries_start0:
	.long	.Lentries_end1-.Lentries_start0
	.long	0
	.ascii	"/Users/rcalhoun/code/git/sw_usb_audio/sw_usb_audio/app_usb_aud_mic_array/.build_2i8o2"
	.byte	0
.cc_top cc_0,.Lxta.endpoint_labels0
	.ascii	"/Users/rcalhoun/code/git/sw_usb_audio/lib_mic_array/lib_mic_array/src/decimator_interface.xc"
	.byte	0
	.long	35
	.long	.Lxta.endpoint_labels0
.cc_bottom cc_0
.cc_top cc_1,.Lxta.endpoint_labels3
	.ascii	"/Users/rcalhoun/code/git/sw_usb_audio/lib_mic_array/lib_mic_array/src/decimator_interface.xc"
	.byte	0
	.long	35
	.long	.Lxta.endpoint_labels3
.cc_bottom cc_1
.cc_top cc_2,.Lxta.endpoint_labels1
	.ascii	"/Users/rcalhoun/code/git/sw_usb_audio/lib_mic_array/lib_mic_array/src/decimator_interface.xc"
	.byte	0
	.long	42
	.long	.Lxta.endpoint_labels1
.cc_bottom cc_2
.cc_top cc_3,.Lxta.endpoint_labels4
	.ascii	"/Users/rcalhoun/code/git/sw_usb_audio/lib_mic_array/lib_mic_array/src/decimator_interface.xc"
	.byte	0
	.long	42
	.long	.Lxta.endpoint_labels4
.cc_bottom cc_3
.cc_top cc_4,.Lxta.endpoint_labels2
	.ascii	"/Users/rcalhoun/code/git/sw_usb_audio/lib_mic_array/lib_mic_array/src/decimator_interface.xc"
	.byte	0
	.long	46
	.long	.Lxta.endpoint_labels2
.cc_bottom cc_4
.cc_top cc_5,.Lxta.endpoint_labels5
	.ascii	"/Users/rcalhoun/code/git/sw_usb_audio/lib_mic_array/lib_mic_array/src/decimator_interface.xc"
	.byte	0
	.long	46
	.long	.Lxta.endpoint_labels5
.cc_bottom cc_5
.cc_top cc_6,.Lxta.endpoint_labels6
	.ascii	"/Users/rcalhoun/code/git/sw_usb_audio/lib_mic_array/lib_mic_array/src/decimator_interface.xc"
	.byte	0
	.long	76
	.long	.Lxta.endpoint_labels6
.cc_bottom cc_6
.cc_top cc_7,.Lxta.endpoint_labels9
	.ascii	"/Users/rcalhoun/code/git/sw_usb_audio/lib_mic_array/lib_mic_array/src/decimator_interface.xc"
	.byte	0
	.long	76
	.long	.Lxta.endpoint_labels9
.cc_bottom cc_7
.cc_top cc_8,.Lxta.endpoint_labels7
	.ascii	"/Users/rcalhoun/code/git/sw_usb_audio/lib_mic_array/lib_mic_array/src/decimator_interface.xc"
	.byte	0
	.long	83
	.long	.Lxta.endpoint_labels7
.cc_bottom cc_8
.cc_top cc_9,.Lxta.endpoint_labels10
	.ascii	"/Users/rcalhoun/code/git/sw_usb_audio/lib_mic_array/lib_mic_array/src/decimator_interface.xc"
	.byte	0
	.long	83
	.long	.Lxta.endpoint_labels10
.cc_bottom cc_9
.cc_top cc_10,.Lxta.endpoint_labels8
	.ascii	"/Users/rcalhoun/code/git/sw_usb_audio/lib_mic_array/lib_mic_array/src/decimator_interface.xc"
	.byte	0
	.long	87
	.long	.Lxta.endpoint_labels8
.cc_bottom cc_10
.cc_top cc_11,.Lxta.endpoint_labels11
	.ascii	"/Users/rcalhoun/code/git/sw_usb_audio/lib_mic_array/lib_mic_array/src/decimator_interface.xc"
	.byte	0
	.long	87
	.long	.Lxta.endpoint_labels11
.cc_bottom cc_11
.cc_top cc_12,.Lxta.endpoint_labels12
	.ascii	"/Users/rcalhoun/code/git/sw_usb_audio/lib_mic_array/lib_mic_array/src/decimator_interface.xc"
	.byte	0
	.long	134
	.long	.Lxta.endpoint_labels12
.cc_bottom cc_12
.cc_top cc_13,.Lxta.endpoint_labels13
	.ascii	"/Users/rcalhoun/code/git/sw_usb_audio/lib_mic_array/lib_mic_array/src/decimator_interface.xc"
	.byte	0
	.long	139
	.long	.Lxta.endpoint_labels13
.cc_bottom cc_13
.cc_top cc_14,.Lxta.endpoint_labels14
	.ascii	"/Users/rcalhoun/code/git/sw_usb_audio/lib_mic_array/lib_mic_array/src/decimator_interface.xc"
	.byte	0
	.long	141
	.long	.Lxta.endpoint_labels14
.cc_bottom cc_14
.cc_top cc_15,.Lxta.endpoint_labels15
	.ascii	"/Users/rcalhoun/code/git/sw_usb_audio/lib_mic_array/lib_mic_array/src/decimator_interface.xc"
	.byte	0
	.long	169
	.long	.Lxta.endpoint_labels15
.cc_bottom cc_15
.cc_top cc_16,.Lxta.endpoint_labels16
	.ascii	"/Users/rcalhoun/code/git/sw_usb_audio/lib_mic_array/lib_mic_array/src/decimator_interface.xc"
	.byte	0
	.long	172
	.long	.Lxta.endpoint_labels16
.cc_bottom cc_16
.cc_top cc_17,.Lxta.endpoint_labels17
	.ascii	"/Users/rcalhoun/code/git/sw_usb_audio/lib_mic_array/lib_mic_array/src/decimator_interface.xc"
	.byte	0
	.long	174
	.long	.Lxta.endpoint_labels17
.cc_bottom cc_17
.cc_top cc_18,.Lxta.endpoint_labels18
	.ascii	"/Users/rcalhoun/code/git/sw_usb_audio/lib_mic_array/lib_mic_array/src/decimator_interface.xc"
	.byte	0
	.long	212
	.long	.Lxta.endpoint_labels18
.cc_bottom cc_18
.cc_top cc_19,.Lxta.endpoint_labels20
	.ascii	"/Users/rcalhoun/code/git/sw_usb_audio/lib_mic_array/lib_mic_array/src/decimator_interface.xc"
	.byte	0
	.long	212
	.long	.Lxta.endpoint_labels20
.cc_bottom cc_19
.cc_top cc_20,.Lxta.endpoint_labels19
	.ascii	"/Users/rcalhoun/code/git/sw_usb_audio/lib_mic_array/lib_mic_array/src/decimator_interface.xc"
	.byte	0
	.long	216
	.long	.Lxta.endpoint_labels19
.cc_bottom cc_20
.cc_top cc_21,.Lxta.endpoint_labels21
	.ascii	"/Users/rcalhoun/code/git/sw_usb_audio/lib_mic_array/lib_mic_array/src/decimator_interface.xc"
	.byte	0
	.long	216
	.long	.Lxta.endpoint_labels21
.cc_bottom cc_21
.Lentries_end1:
	.section	.xtalabeltable,"",@progbits
.Lentries_start2:
	.long	.Lentries_end3-.Lentries_start2
	.long	0
	.ascii	"/Users/rcalhoun/code/git/sw_usb_audio/sw_usb_audio/app_usb_aud_mic_array/.build_2i8o2"
	.byte	0
.cc_top cc_22,.Lxtalabel0
	.ascii	"/Users/rcalhoun/code/git/sw_usb_audio/lib_mic_array/lib_mic_array/src/decimator_interface.xc"
	.byte	0
	.long	17
	.long	19
	.long	.Lxtalabel0
.cc_bottom cc_22
.cc_top cc_23,.Lxtalabel13
	.ascii	"/Users/rcalhoun/code/git/sw_usb_audio/lib_mic_array/lib_mic_array/src/decimator_interface.xc"
	.byte	0
	.long	17
	.long	19
	.long	.Lxtalabel13
.cc_bottom cc_23
.cc_top cc_24,.Lxtalabel0
	.ascii	"/Users/rcalhoun/code/git/sw_usb_audio/lib_mic_array/lib_mic_array/src/decimator_interface.xc"
	.byte	0
	.long	21
	.long	21
	.long	.Lxtalabel0
.cc_bottom cc_24
.cc_top cc_25,.Lxtalabel13
	.ascii	"/Users/rcalhoun/code/git/sw_usb_audio/lib_mic_array/lib_mic_array/src/decimator_interface.xc"
	.byte	0
	.long	21
	.long	21
	.long	.Lxtalabel13
.cc_bottom cc_25
.cc_top cc_26,.Lxtalabel1
	.ascii	"/Users/rcalhoun/code/git/sw_usb_audio/lib_mic_array/lib_mic_array/src/decimator_interface.xc"
	.byte	0
	.long	34
	.long	34
	.long	.Lxtalabel1
.cc_bottom cc_26
.cc_top cc_27,.Lxtalabel2
	.ascii	"/Users/rcalhoun/code/git/sw_usb_audio/lib_mic_array/lib_mic_array/src/decimator_interface.xc"
	.byte	0
	.long	34
	.long	34
	.long	.Lxtalabel2
.cc_bottom cc_27
.cc_top cc_28,.Lxtalabel3
	.ascii	"/Users/rcalhoun/code/git/sw_usb_audio/lib_mic_array/lib_mic_array/src/decimator_interface.xc"
	.byte	0
	.long	35
	.long	35
	.long	.Lxtalabel3
.cc_bottom cc_28
.cc_top cc_29,.Lxtalabel14
	.ascii	"/Users/rcalhoun/code/git/sw_usb_audio/lib_mic_array/lib_mic_array/src/decimator_interface.xc"
	.byte	0
	.long	35
	.long	35
	.long	.Lxtalabel14
.cc_bottom cc_29
.cc_top cc_30,.Lxtalabel4
	.ascii	"/Users/rcalhoun/code/git/sw_usb_audio/lib_mic_array/lib_mic_array/src/decimator_interface.xc"
	.byte	0
	.long	37
	.long	38
	.long	.Lxtalabel4
.cc_bottom cc_30
.cc_top cc_31,.Lxtalabel8
	.ascii	"/Users/rcalhoun/code/git/sw_usb_audio/lib_mic_array/lib_mic_array/src/decimator_interface.xc"
	.byte	0
	.long	37
	.long	38
	.long	.Lxtalabel8
.cc_bottom cc_31
.cc_top cc_32,.Lxtalabel15
	.ascii	"/Users/rcalhoun/code/git/sw_usb_audio/lib_mic_array/lib_mic_array/src/decimator_interface.xc"
	.byte	0
	.long	37
	.long	38
	.long	.Lxtalabel15
.cc_bottom cc_32
.cc_top cc_33,.Lxtalabel5
	.ascii	"/Users/rcalhoun/code/git/sw_usb_audio/lib_mic_array/lib_mic_array/src/decimator_interface.xc"
	.byte	0
	.long	42
	.long	42
	.long	.Lxtalabel5
.cc_bottom cc_33
.cc_top cc_34,.Lxtalabel12
	.ascii	"/Users/rcalhoun/code/git/sw_usb_audio/lib_mic_array/lib_mic_array/src/decimator_interface.xc"
	.byte	0
	.long	42
	.long	42
	.long	.Lxtalabel12
.cc_bottom cc_34
.cc_top cc_35,.Lxtalabel16
	.ascii	"/Users/rcalhoun/code/git/sw_usb_audio/lib_mic_array/lib_mic_array/src/decimator_interface.xc"
	.byte	0
	.long	42
	.long	42
	.long	.Lxtalabel16
.cc_bottom cc_35
.cc_top cc_36,.Lxtalabel21
	.ascii	"/Users/rcalhoun/code/git/sw_usb_audio/lib_mic_array/lib_mic_array/src/decimator_interface.xc"
	.byte	0
	.long	42
	.long	42
	.long	.Lxtalabel21
.cc_bottom cc_36
.cc_top cc_37,.Lxtalabel12
	.ascii	"/Users/rcalhoun/code/git/sw_usb_audio/lib_mic_array/lib_mic_array/src/decimator_interface.xc"
	.byte	0
	.long	44
	.long	44
	.long	.Lxtalabel12
.cc_bottom cc_37
.cc_top cc_38,.Lxtalabel21
	.ascii	"/Users/rcalhoun/code/git/sw_usb_audio/lib_mic_array/lib_mic_array/src/decimator_interface.xc"
	.byte	0
	.long	44
	.long	44
	.long	.Lxtalabel21
.cc_bottom cc_38
.cc_top cc_39,.Lxtalabel5
	.ascii	"/Users/rcalhoun/code/git/sw_usb_audio/lib_mic_array/lib_mic_array/src/decimator_interface.xc"
	.byte	0
	.long	44
	.long	44
	.long	.Lxtalabel5
.cc_bottom cc_39
.cc_top cc_40,.Lxtalabel16
	.ascii	"/Users/rcalhoun/code/git/sw_usb_audio/lib_mic_array/lib_mic_array/src/decimator_interface.xc"
	.byte	0
	.long	44
	.long	44
	.long	.Lxtalabel16
.cc_bottom cc_40
.cc_top cc_41,.Lxtalabel6
	.ascii	"/Users/rcalhoun/code/git/sw_usb_audio/lib_mic_array/lib_mic_array/src/decimator_interface.xc"
	.byte	0
	.long	46
	.long	46
	.long	.Lxtalabel6
.cc_bottom cc_41
.cc_top cc_42,.Lxtalabel17
	.ascii	"/Users/rcalhoun/code/git/sw_usb_audio/lib_mic_array/lib_mic_array/src/decimator_interface.xc"
	.byte	0
	.long	46
	.long	46
	.long	.Lxtalabel17
.cc_bottom cc_42
.cc_top cc_43,.Lxtalabel18
	.ascii	"/Users/rcalhoun/code/git/sw_usb_audio/lib_mic_array/lib_mic_array/src/decimator_interface.xc"
	.byte	0
	.long	47
	.long	48
	.long	.Lxtalabel18
.cc_bottom cc_43
.cc_top cc_44,.Lxtalabel8
	.ascii	"/Users/rcalhoun/code/git/sw_usb_audio/lib_mic_array/lib_mic_array/src/decimator_interface.xc"
	.byte	0
	.long	47
	.long	48
	.long	.Lxtalabel8
.cc_bottom cc_44
.cc_top cc_45,.Lxtalabel7
	.ascii	"/Users/rcalhoun/code/git/sw_usb_audio/lib_mic_array/lib_mic_array/src/decimator_interface.xc"
	.byte	0
	.long	47
	.long	48
	.long	.Lxtalabel7
.cc_bottom cc_45
.cc_top cc_46,.Lxtalabel9
	.ascii	"/Users/rcalhoun/code/git/sw_usb_audio/lib_mic_array/lib_mic_array/src/decimator_interface.xc"
	.byte	0
	.long	49
	.long	49
	.long	.Lxtalabel9
.cc_bottom cc_46
.cc_top cc_47,.Lxtalabel18
	.ascii	"/Users/rcalhoun/code/git/sw_usb_audio/lib_mic_array/lib_mic_array/src/decimator_interface.xc"
	.byte	0
	.long	49
	.long	49
	.long	.Lxtalabel18
.cc_bottom cc_47
.cc_top cc_48,.Lxtalabel19
	.ascii	"/Users/rcalhoun/code/git/sw_usb_audio/lib_mic_array/lib_mic_array/src/decimator_interface.xc"
	.byte	0
	.long	50
	.long	50
	.long	.Lxtalabel19
.cc_bottom cc_48
.cc_top cc_49,.Lxtalabel10
	.ascii	"/Users/rcalhoun/code/git/sw_usb_audio/lib_mic_array/lib_mic_array/src/decimator_interface.xc"
	.byte	0
	.long	50
	.long	50
	.long	.Lxtalabel10
.cc_bottom cc_49
.cc_top cc_50,.Lxtalabel20
	.ascii	"/Users/rcalhoun/code/git/sw_usb_audio/lib_mic_array/lib_mic_array/src/decimator_interface.xc"
	.byte	0
	.long	52
	.long	53
	.long	.Lxtalabel20
.cc_bottom cc_50
.cc_top cc_51,.Lxtalabel11
	.ascii	"/Users/rcalhoun/code/git/sw_usb_audio/lib_mic_array/lib_mic_array/src/decimator_interface.xc"
	.byte	0
	.long	52
	.long	53
	.long	.Lxtalabel11
.cc_bottom cc_51
.cc_top cc_52,.Lxtalabel22
	.ascii	"/Users/rcalhoun/code/git/sw_usb_audio/lib_mic_array/lib_mic_array/src/decimator_interface.xc"
	.byte	0
	.long	72
	.long	72
	.long	.Lxtalabel22
.cc_bottom cc_52
.cc_top cc_53,.Lxtalabel38
	.ascii	"/Users/rcalhoun/code/git/sw_usb_audio/lib_mic_array/lib_mic_array/src/decimator_interface.xc"
	.byte	0
	.long	72
	.long	72
	.long	.Lxtalabel38
.cc_bottom cc_53
.cc_top cc_54,.Lxtalabel23
	.ascii	"/Users/rcalhoun/code/git/sw_usb_audio/lib_mic_array/lib_mic_array/src/decimator_interface.xc"
	.byte	0
	.long	73
	.long	73
	.long	.Lxtalabel23
.cc_bottom cc_54
.cc_top cc_55,.Lxtalabel39
	.ascii	"/Users/rcalhoun/code/git/sw_usb_audio/lib_mic_array/lib_mic_array/src/decimator_interface.xc"
	.byte	0
	.long	73
	.long	73
	.long	.Lxtalabel39
.cc_bottom cc_55
.cc_top cc_56,.Lxtalabel24
	.ascii	"/Users/rcalhoun/code/git/sw_usb_audio/lib_mic_array/lib_mic_array/src/decimator_interface.xc"
	.byte	0
	.long	76
	.long	76
	.long	.Lxtalabel24
.cc_bottom cc_56
.cc_top cc_57,.Lxtalabel40
	.ascii	"/Users/rcalhoun/code/git/sw_usb_audio/lib_mic_array/lib_mic_array/src/decimator_interface.xc"
	.byte	0
	.long	76
	.long	76
	.long	.Lxtalabel40
.cc_bottom cc_57
.cc_top cc_58,.Lxtalabel25
	.ascii	"/Users/rcalhoun/code/git/sw_usb_audio/lib_mic_array/lib_mic_array/src/decimator_interface.xc"
	.byte	0
	.long	78
	.long	79
	.long	.Lxtalabel25
.cc_bottom cc_58
.cc_top cc_59,.Lxtalabel26
	.ascii	"/Users/rcalhoun/code/git/sw_usb_audio/lib_mic_array/lib_mic_array/src/decimator_interface.xc"
	.byte	0
	.long	78
	.long	79
	.long	.Lxtalabel26
.cc_bottom cc_59
.cc_top cc_60,.Lxtalabel27
	.ascii	"/Users/rcalhoun/code/git/sw_usb_audio/lib_mic_array/lib_mic_array/src/decimator_interface.xc"
	.byte	0
	.long	78
	.long	79
	.long	.Lxtalabel27
.cc_bottom cc_60
.cc_top cc_61,.Lxtalabel28
	.ascii	"/Users/rcalhoun/code/git/sw_usb_audio/lib_mic_array/lib_mic_array/src/decimator_interface.xc"
	.byte	0
	.long	83
	.long	83
	.long	.Lxtalabel28
.cc_bottom cc_61
.cc_top cc_62,.Lxtalabel41
	.ascii	"/Users/rcalhoun/code/git/sw_usb_audio/lib_mic_array/lib_mic_array/src/decimator_interface.xc"
	.byte	0
	.long	83
	.long	83
	.long	.Lxtalabel41
.cc_bottom cc_62
.cc_top cc_63,.Lxtalabel28
	.ascii	"/Users/rcalhoun/code/git/sw_usb_audio/lib_mic_array/lib_mic_array/src/decimator_interface.xc"
	.byte	0
	.long	85
	.long	85
	.long	.Lxtalabel28
.cc_bottom cc_63
.cc_top cc_64,.Lxtalabel41
	.ascii	"/Users/rcalhoun/code/git/sw_usb_audio/lib_mic_array/lib_mic_array/src/decimator_interface.xc"
	.byte	0
	.long	85
	.long	85
	.long	.Lxtalabel41
.cc_bottom cc_64
.cc_top cc_65,.Lxtalabel29
	.ascii	"/Users/rcalhoun/code/git/sw_usb_audio/lib_mic_array/lib_mic_array/src/decimator_interface.xc"
	.byte	0
	.long	87
	.long	87
	.long	.Lxtalabel29
.cc_bottom cc_65
.cc_top cc_66,.Lxtalabel42
	.ascii	"/Users/rcalhoun/code/git/sw_usb_audio/lib_mic_array/lib_mic_array/src/decimator_interface.xc"
	.byte	0
	.long	87
	.long	87
	.long	.Lxtalabel42
.cc_bottom cc_66
.cc_top cc_67,.Lxtalabel30
	.ascii	"/Users/rcalhoun/code/git/sw_usb_audio/lib_mic_array/lib_mic_array/src/decimator_interface.xc"
	.byte	0
	.long	91
	.long	91
	.long	.Lxtalabel30
.cc_bottom cc_67
.cc_top cc_68,.Lxtalabel43
	.ascii	"/Users/rcalhoun/code/git/sw_usb_audio/lib_mic_array/lib_mic_array/src/decimator_interface.xc"
	.byte	0
	.long	91
	.long	91
	.long	.Lxtalabel43
.cc_bottom cc_68
.cc_top cc_69,.Lxtalabel31
	.ascii	"/Users/rcalhoun/code/git/sw_usb_audio/lib_mic_array/lib_mic_array/src/decimator_interface.xc"
	.byte	0
	.long	93
	.long	100
	.long	.Lxtalabel31
.cc_bottom cc_69
.cc_top cc_70,.Lxtalabel44
	.ascii	"/Users/rcalhoun/code/git/sw_usb_audio/lib_mic_array/lib_mic_array/src/decimator_interface.xc"
	.byte	0
	.long	93
	.long	100
	.long	.Lxtalabel44
.cc_bottom cc_70
.cc_top cc_71,.Lxtalabel50
	.ascii	"/Users/rcalhoun/code/git/sw_usb_audio/lib_mic_array/lib_mic_array/src/decimator_interface.xc"
	.byte	0
	.long	105
	.long	105
	.long	.Lxtalabel50
.cc_bottom cc_71
.cc_top cc_72,.Lxtalabel32
	.ascii	"/Users/rcalhoun/code/git/sw_usb_audio/lib_mic_array/lib_mic_array/src/decimator_interface.xc"
	.byte	0
	.long	105
	.long	105
	.long	.Lxtalabel32
.cc_bottom cc_72
.cc_top cc_73,.Lxtalabel49
	.ascii	"/Users/rcalhoun/code/git/sw_usb_audio/lib_mic_array/lib_mic_array/src/decimator_interface.xc"
	.byte	0
	.long	105
	.long	105
	.long	.Lxtalabel49
.cc_bottom cc_73
.cc_top cc_74,.Lxtalabel48
	.ascii	"/Users/rcalhoun/code/git/sw_usb_audio/lib_mic_array/lib_mic_array/src/decimator_interface.xc"
	.byte	0
	.long	105
	.long	105
	.long	.Lxtalabel48
.cc_bottom cc_74
.cc_top cc_75,.Lxtalabel47
	.ascii	"/Users/rcalhoun/code/git/sw_usb_audio/lib_mic_array/lib_mic_array/src/decimator_interface.xc"
	.byte	0
	.long	105
	.long	105
	.long	.Lxtalabel47
.cc_bottom cc_75
.cc_top cc_76,.Lxtalabel33
	.ascii	"/Users/rcalhoun/code/git/sw_usb_audio/lib_mic_array/lib_mic_array/src/decimator_interface.xc"
	.byte	0
	.long	105
	.long	105
	.long	.Lxtalabel33
.cc_bottom cc_76
.cc_top cc_77,.Lxtalabel46
	.ascii	"/Users/rcalhoun/code/git/sw_usb_audio/lib_mic_array/lib_mic_array/src/decimator_interface.xc"
	.byte	0
	.long	105
	.long	105
	.long	.Lxtalabel46
.cc_bottom cc_77
.cc_top cc_78,.Lxtalabel45
	.ascii	"/Users/rcalhoun/code/git/sw_usb_audio/lib_mic_array/lib_mic_array/src/decimator_interface.xc"
	.byte	0
	.long	105
	.long	105
	.long	.Lxtalabel45
.cc_bottom cc_78
.cc_top cc_79,.Lxtalabel34
	.ascii	"/Users/rcalhoun/code/git/sw_usb_audio/lib_mic_array/lib_mic_array/src/decimator_interface.xc"
	.byte	0
	.long	105
	.long	105
	.long	.Lxtalabel34
.cc_bottom cc_79
.cc_top cc_80,.Lxtalabel35
	.ascii	"/Users/rcalhoun/code/git/sw_usb_audio/lib_mic_array/lib_mic_array/src/decimator_interface.xc"
	.byte	0
	.long	105
	.long	105
	.long	.Lxtalabel35
.cc_bottom cc_80
.cc_top cc_81,.Lxtalabel36
	.ascii	"/Users/rcalhoun/code/git/sw_usb_audio/lib_mic_array/lib_mic_array/src/decimator_interface.xc"
	.byte	0
	.long	105
	.long	105
	.long	.Lxtalabel36
.cc_bottom cc_81
.cc_top cc_82,.Lxtalabel37
	.ascii	"/Users/rcalhoun/code/git/sw_usb_audio/lib_mic_array/lib_mic_array/src/decimator_interface.xc"
	.byte	0
	.long	105
	.long	105
	.long	.Lxtalabel37
.cc_bottom cc_82
.cc_top cc_83,.Lxtalabel37
	.ascii	"/Users/rcalhoun/code/git/sw_usb_audio/lib_mic_array/lib_mic_array/src/decimator_interface.xc"
	.byte	0
	.long	106
	.long	106
	.long	.Lxtalabel37
.cc_bottom cc_83
.cc_top cc_84,.Lxtalabel48
	.ascii	"/Users/rcalhoun/code/git/sw_usb_audio/lib_mic_array/lib_mic_array/src/decimator_interface.xc"
	.byte	0
	.long	106
	.long	106
	.long	.Lxtalabel48
.cc_bottom cc_84
.cc_top cc_85,.Lxtalabel33
	.ascii	"/Users/rcalhoun/code/git/sw_usb_audio/lib_mic_array/lib_mic_array/src/decimator_interface.xc"
	.byte	0
	.long	106
	.long	106
	.long	.Lxtalabel33
.cc_bottom cc_85
.cc_top cc_86,.Lxtalabel47
	.ascii	"/Users/rcalhoun/code/git/sw_usb_audio/lib_mic_array/lib_mic_array/src/decimator_interface.xc"
	.byte	0
	.long	106
	.long	106
	.long	.Lxtalabel47
.cc_bottom cc_86
.cc_top cc_87,.Lxtalabel49
	.ascii	"/Users/rcalhoun/code/git/sw_usb_audio/lib_mic_array/lib_mic_array/src/decimator_interface.xc"
	.byte	0
	.long	106
	.long	106
	.long	.Lxtalabel49
.cc_bottom cc_87
.cc_top cc_88,.Lxtalabel36
	.ascii	"/Users/rcalhoun/code/git/sw_usb_audio/lib_mic_array/lib_mic_array/src/decimator_interface.xc"
	.byte	0
	.long	106
	.long	106
	.long	.Lxtalabel36
.cc_bottom cc_88
.cc_top cc_89,.Lxtalabel32
	.ascii	"/Users/rcalhoun/code/git/sw_usb_audio/lib_mic_array/lib_mic_array/src/decimator_interface.xc"
	.byte	0
	.long	106
	.long	106
	.long	.Lxtalabel32
.cc_bottom cc_89
.cc_top cc_90,.Lxtalabel46
	.ascii	"/Users/rcalhoun/code/git/sw_usb_audio/lib_mic_array/lib_mic_array/src/decimator_interface.xc"
	.byte	0
	.long	106
	.long	106
	.long	.Lxtalabel46
.cc_bottom cc_90
.cc_top cc_91,.Lxtalabel35
	.ascii	"/Users/rcalhoun/code/git/sw_usb_audio/lib_mic_array/lib_mic_array/src/decimator_interface.xc"
	.byte	0
	.long	106
	.long	106
	.long	.Lxtalabel35
.cc_bottom cc_91
.cc_top cc_92,.Lxtalabel50
	.ascii	"/Users/rcalhoun/code/git/sw_usb_audio/lib_mic_array/lib_mic_array/src/decimator_interface.xc"
	.byte	0
	.long	106
	.long	106
	.long	.Lxtalabel50
.cc_bottom cc_92
.cc_top cc_93,.Lxtalabel45
	.ascii	"/Users/rcalhoun/code/git/sw_usb_audio/lib_mic_array/lib_mic_array/src/decimator_interface.xc"
	.byte	0
	.long	106
	.long	106
	.long	.Lxtalabel45
.cc_bottom cc_93
.cc_top cc_94,.Lxtalabel34
	.ascii	"/Users/rcalhoun/code/git/sw_usb_audio/lib_mic_array/lib_mic_array/src/decimator_interface.xc"
	.byte	0
	.long	106
	.long	106
	.long	.Lxtalabel34
.cc_bottom cc_94
.cc_top cc_95,.Lxtalabel34
	.ascii	"/Users/rcalhoun/code/git/sw_usb_audio/lib_mic_array/lib_mic_array/src/decimator_interface.xc"
	.byte	0
	.long	108
	.long	109
	.long	.Lxtalabel34
.cc_bottom cc_95
.cc_top cc_96,.Lxtalabel49
	.ascii	"/Users/rcalhoun/code/git/sw_usb_audio/lib_mic_array/lib_mic_array/src/decimator_interface.xc"
	.byte	0
	.long	108
	.long	109
	.long	.Lxtalabel49
.cc_bottom cc_96
.cc_top cc_97,.Lxtalabel45
	.ascii	"/Users/rcalhoun/code/git/sw_usb_audio/lib_mic_array/lib_mic_array/src/decimator_interface.xc"
	.byte	0
	.long	108
	.long	109
	.long	.Lxtalabel45
.cc_bottom cc_97
.cc_top cc_98,.Lxtalabel32
	.ascii	"/Users/rcalhoun/code/git/sw_usb_audio/lib_mic_array/lib_mic_array/src/decimator_interface.xc"
	.byte	0
	.long	108
	.long	109
	.long	.Lxtalabel32
.cc_bottom cc_98
.cc_top cc_99,.Lxtalabel35
	.ascii	"/Users/rcalhoun/code/git/sw_usb_audio/lib_mic_array/lib_mic_array/src/decimator_interface.xc"
	.byte	0
	.long	108
	.long	109
	.long	.Lxtalabel35
.cc_bottom cc_99
.cc_top cc_100,.Lxtalabel33
	.ascii	"/Users/rcalhoun/code/git/sw_usb_audio/lib_mic_array/lib_mic_array/src/decimator_interface.xc"
	.byte	0
	.long	108
	.long	109
	.long	.Lxtalabel33
.cc_bottom cc_100
.cc_top cc_101,.Lxtalabel46
	.ascii	"/Users/rcalhoun/code/git/sw_usb_audio/lib_mic_array/lib_mic_array/src/decimator_interface.xc"
	.byte	0
	.long	108
	.long	109
	.long	.Lxtalabel46
.cc_bottom cc_101
.cc_top cc_102,.Lxtalabel36
	.ascii	"/Users/rcalhoun/code/git/sw_usb_audio/lib_mic_array/lib_mic_array/src/decimator_interface.xc"
	.byte	0
	.long	108
	.long	109
	.long	.Lxtalabel36
.cc_bottom cc_102
.cc_top cc_103,.Lxtalabel50
	.ascii	"/Users/rcalhoun/code/git/sw_usb_audio/lib_mic_array/lib_mic_array/src/decimator_interface.xc"
	.byte	0
	.long	108
	.long	109
	.long	.Lxtalabel50
.cc_bottom cc_103
.cc_top cc_104,.Lxtalabel37
	.ascii	"/Users/rcalhoun/code/git/sw_usb_audio/lib_mic_array/lib_mic_array/src/decimator_interface.xc"
	.byte	0
	.long	108
	.long	109
	.long	.Lxtalabel37
.cc_bottom cc_104
.cc_top cc_105,.Lxtalabel47
	.ascii	"/Users/rcalhoun/code/git/sw_usb_audio/lib_mic_array/lib_mic_array/src/decimator_interface.xc"
	.byte	0
	.long	108
	.long	109
	.long	.Lxtalabel47
.cc_bottom cc_105
.cc_top cc_106,.Lxtalabel48
	.ascii	"/Users/rcalhoun/code/git/sw_usb_audio/lib_mic_array/lib_mic_array/src/decimator_interface.xc"
	.byte	0
	.long	108
	.long	109
	.long	.Lxtalabel48
.cc_bottom cc_106
.cc_top cc_107,.Lxtalabel36
	.ascii	"/Users/rcalhoun/code/git/sw_usb_audio/lib_mic_array/lib_mic_array/src/decimator_interface.xc"
	.byte	0
	.long	111
	.long	112
	.long	.Lxtalabel36
.cc_bottom cc_107
.cc_top cc_108,.Lxtalabel32
	.ascii	"/Users/rcalhoun/code/git/sw_usb_audio/lib_mic_array/lib_mic_array/src/decimator_interface.xc"
	.byte	0
	.long	111
	.long	112
	.long	.Lxtalabel32
.cc_bottom cc_108
.cc_top cc_109,.Lxtalabel47
	.ascii	"/Users/rcalhoun/code/git/sw_usb_audio/lib_mic_array/lib_mic_array/src/decimator_interface.xc"
	.byte	0
	.long	111
	.long	112
	.long	.Lxtalabel47
.cc_bottom cc_109
.cc_top cc_110,.Lxtalabel48
	.ascii	"/Users/rcalhoun/code/git/sw_usb_audio/lib_mic_array/lib_mic_array/src/decimator_interface.xc"
	.byte	0
	.long	111
	.long	112
	.long	.Lxtalabel48
.cc_bottom cc_110
.cc_top cc_111,.Lxtalabel46
	.ascii	"/Users/rcalhoun/code/git/sw_usb_audio/lib_mic_array/lib_mic_array/src/decimator_interface.xc"
	.byte	0
	.long	111
	.long	112
	.long	.Lxtalabel46
.cc_bottom cc_111
.cc_top cc_112,.Lxtalabel45
	.ascii	"/Users/rcalhoun/code/git/sw_usb_audio/lib_mic_array/lib_mic_array/src/decimator_interface.xc"
	.byte	0
	.long	111
	.long	112
	.long	.Lxtalabel45
.cc_bottom cc_112
.cc_top cc_113,.Lxtalabel33
	.ascii	"/Users/rcalhoun/code/git/sw_usb_audio/lib_mic_array/lib_mic_array/src/decimator_interface.xc"
	.byte	0
	.long	111
	.long	112
	.long	.Lxtalabel33
.cc_bottom cc_113
.cc_top cc_114,.Lxtalabel49
	.ascii	"/Users/rcalhoun/code/git/sw_usb_audio/lib_mic_array/lib_mic_array/src/decimator_interface.xc"
	.byte	0
	.long	111
	.long	112
	.long	.Lxtalabel49
.cc_bottom cc_114
.cc_top cc_115,.Lxtalabel34
	.ascii	"/Users/rcalhoun/code/git/sw_usb_audio/lib_mic_array/lib_mic_array/src/decimator_interface.xc"
	.byte	0
	.long	111
	.long	112
	.long	.Lxtalabel34
.cc_bottom cc_115
.cc_top cc_116,.Lxtalabel35
	.ascii	"/Users/rcalhoun/code/git/sw_usb_audio/lib_mic_array/lib_mic_array/src/decimator_interface.xc"
	.byte	0
	.long	111
	.long	112
	.long	.Lxtalabel35
.cc_bottom cc_116
.cc_top cc_117,.Lxtalabel37
	.ascii	"/Users/rcalhoun/code/git/sw_usb_audio/lib_mic_array/lib_mic_array/src/decimator_interface.xc"
	.byte	0
	.long	111
	.long	112
	.long	.Lxtalabel37
.cc_bottom cc_117
.cc_top cc_118,.Lxtalabel50
	.ascii	"/Users/rcalhoun/code/git/sw_usb_audio/lib_mic_array/lib_mic_array/src/decimator_interface.xc"
	.byte	0
	.long	111
	.long	112
	.long	.Lxtalabel50
.cc_bottom cc_118
.cc_top cc_119,.Lxtalabel51
	.ascii	"/Users/rcalhoun/code/git/sw_usb_audio/lib_mic_array/lib_mic_array/src/decimator_interface.xc"
	.byte	0
	.long	117
	.long	119
	.long	.Lxtalabel51
.cc_bottom cc_119
.cc_top cc_120,.Lxtalabel51
	.ascii	"/Users/rcalhoun/code/git/sw_usb_audio/lib_mic_array/lib_mic_array/src/decimator_interface.xc"
	.byte	0
	.long	121
	.long	121
	.long	.Lxtalabel51
.cc_bottom cc_120
.cc_top cc_121,.Lxtalabel52
	.ascii	"/Users/rcalhoun/code/git/sw_usb_audio/lib_mic_array/lib_mic_array/src/decimator_interface.xc"
	.byte	0
	.long	133
	.long	133
	.long	.Lxtalabel52
.cc_bottom cc_121
.cc_top cc_122,.Lxtalabel53
	.ascii	"/Users/rcalhoun/code/git/sw_usb_audio/lib_mic_array/lib_mic_array/src/decimator_interface.xc"
	.byte	0
	.long	133
	.long	133
	.long	.Lxtalabel53
.cc_bottom cc_122
.cc_top cc_123,.Lxtalabel54
	.ascii	"/Users/rcalhoun/code/git/sw_usb_audio/lib_mic_array/lib_mic_array/src/decimator_interface.xc"
	.byte	0
	.long	134
	.long	134
	.long	.Lxtalabel54
.cc_bottom cc_123
.cc_top cc_124,.Lxtalabel55
	.ascii	"/Users/rcalhoun/code/git/sw_usb_audio/lib_mic_array/lib_mic_array/src/decimator_interface.xc"
	.byte	0
	.long	137
	.long	138
	.long	.Lxtalabel55
.cc_bottom cc_124
.cc_top cc_125,.Lxtalabel56
	.ascii	"/Users/rcalhoun/code/git/sw_usb_audio/lib_mic_array/lib_mic_array/src/decimator_interface.xc"
	.byte	0
	.long	139
	.long	139
	.long	.Lxtalabel56
.cc_bottom cc_125
.cc_top cc_126,.Lxtalabel62
	.ascii	"/Users/rcalhoun/code/git/sw_usb_audio/lib_mic_array/lib_mic_array/src/decimator_interface.xc"
	.byte	0
	.long	139
	.long	139
	.long	.Lxtalabel62
.cc_bottom cc_126
.cc_top cc_127,.Lxtalabel57
	.ascii	"/Users/rcalhoun/code/git/sw_usb_audio/lib_mic_array/lib_mic_array/src/decimator_interface.xc"
	.byte	0
	.long	141
	.long	141
	.long	.Lxtalabel57
.cc_bottom cc_127
.cc_top cc_128,.Lxtalabel58
	.ascii	"/Users/rcalhoun/code/git/sw_usb_audio/lib_mic_array/lib_mic_array/src/decimator_interface.xc"
	.byte	0
	.long	142
	.long	143
	.long	.Lxtalabel58
.cc_bottom cc_128
.cc_top cc_129,.Lxtalabel59
	.ascii	"/Users/rcalhoun/code/git/sw_usb_audio/lib_mic_array/lib_mic_array/src/decimator_interface.xc"
	.byte	0
	.long	144
	.long	144
	.long	.Lxtalabel59
.cc_bottom cc_129
.cc_top cc_130,.Lxtalabel60
	.ascii	"/Users/rcalhoun/code/git/sw_usb_audio/lib_mic_array/lib_mic_array/src/decimator_interface.xc"
	.byte	0
	.long	145
	.long	145
	.long	.Lxtalabel60
.cc_bottom cc_130
.cc_top cc_131,.Lxtalabel61
	.ascii	"/Users/rcalhoun/code/git/sw_usb_audio/lib_mic_array/lib_mic_array/src/decimator_interface.xc"
	.byte	0
	.long	147
	.long	148
	.long	.Lxtalabel61
.cc_bottom cc_131
.cc_top cc_132,.Lxtalabel63
	.ascii	"/Users/rcalhoun/code/git/sw_usb_audio/lib_mic_array/lib_mic_array/src/decimator_interface.xc"
	.byte	0
	.long	165
	.long	165
	.long	.Lxtalabel63
.cc_bottom cc_132
.cc_top cc_133,.Lxtalabel64
	.ascii	"/Users/rcalhoun/code/git/sw_usb_audio/lib_mic_array/lib_mic_array/src/decimator_interface.xc"
	.byte	0
	.long	166
	.long	166
	.long	.Lxtalabel64
.cc_bottom cc_133
.cc_top cc_134,.Lxtalabel65
	.ascii	"/Users/rcalhoun/code/git/sw_usb_audio/lib_mic_array/lib_mic_array/src/decimator_interface.xc"
	.byte	0
	.long	169
	.long	169
	.long	.Lxtalabel65
.cc_bottom cc_134
.cc_top cc_135,.Lxtalabel66
	.ascii	"/Users/rcalhoun/code/git/sw_usb_audio/lib_mic_array/lib_mic_array/src/decimator_interface.xc"
	.byte	0
	.long	170
	.long	171
	.long	.Lxtalabel66
.cc_bottom cc_135
.cc_top cc_136,.Lxtalabel67
	.ascii	"/Users/rcalhoun/code/git/sw_usb_audio/lib_mic_array/lib_mic_array/src/decimator_interface.xc"
	.byte	0
	.long	170
	.long	171
	.long	.Lxtalabel67
.cc_bottom cc_136
.cc_top cc_137,.Lxtalabel68
	.ascii	"/Users/rcalhoun/code/git/sw_usb_audio/lib_mic_array/lib_mic_array/src/decimator_interface.xc"
	.byte	0
	.long	170
	.long	171
	.long	.Lxtalabel68
.cc_bottom cc_137
.cc_top cc_138,.Lxtalabel69
	.ascii	"/Users/rcalhoun/code/git/sw_usb_audio/lib_mic_array/lib_mic_array/src/decimator_interface.xc"
	.byte	0
	.long	172
	.long	172
	.long	.Lxtalabel69
.cc_bottom cc_138
.cc_top cc_139,.Lxtalabel70
	.ascii	"/Users/rcalhoun/code/git/sw_usb_audio/lib_mic_array/lib_mic_array/src/decimator_interface.xc"
	.byte	0
	.long	174
	.long	174
	.long	.Lxtalabel70
.cc_bottom cc_139
.cc_top cc_140,.Lxtalabel71
	.ascii	"/Users/rcalhoun/code/git/sw_usb_audio/lib_mic_array/lib_mic_array/src/decimator_interface.xc"
	.byte	0
	.long	178
	.long	178
	.long	.Lxtalabel71
.cc_bottom cc_140
.cc_top cc_141,.Lxtalabel72
	.ascii	"/Users/rcalhoun/code/git/sw_usb_audio/lib_mic_array/lib_mic_array/src/decimator_interface.xc"
	.byte	0
	.long	180
	.long	187
	.long	.Lxtalabel72
.cc_bottom cc_141
.cc_top cc_142,.Lxtalabel78
	.ascii	"/Users/rcalhoun/code/git/sw_usb_audio/lib_mic_array/lib_mic_array/src/decimator_interface.xc"
	.byte	0
	.long	192
	.long	192
	.long	.Lxtalabel78
.cc_bottom cc_142
.cc_top cc_143,.Lxtalabel73
	.ascii	"/Users/rcalhoun/code/git/sw_usb_audio/lib_mic_array/lib_mic_array/src/decimator_interface.xc"
	.byte	0
	.long	192
	.long	192
	.long	.Lxtalabel73
.cc_bottom cc_143
.cc_top cc_144,.Lxtalabel77
	.ascii	"/Users/rcalhoun/code/git/sw_usb_audio/lib_mic_array/lib_mic_array/src/decimator_interface.xc"
	.byte	0
	.long	192
	.long	192
	.long	.Lxtalabel77
.cc_bottom cc_144
.cc_top cc_145,.Lxtalabel76
	.ascii	"/Users/rcalhoun/code/git/sw_usb_audio/lib_mic_array/lib_mic_array/src/decimator_interface.xc"
	.byte	0
	.long	192
	.long	192
	.long	.Lxtalabel76
.cc_bottom cc_145
.cc_top cc_146,.Lxtalabel75
	.ascii	"/Users/rcalhoun/code/git/sw_usb_audio/lib_mic_array/lib_mic_array/src/decimator_interface.xc"
	.byte	0
	.long	192
	.long	192
	.long	.Lxtalabel75
.cc_bottom cc_146
.cc_top cc_147,.Lxtalabel74
	.ascii	"/Users/rcalhoun/code/git/sw_usb_audio/lib_mic_array/lib_mic_array/src/decimator_interface.xc"
	.byte	0
	.long	192
	.long	192
	.long	.Lxtalabel74
.cc_bottom cc_147
.cc_top cc_148,.Lxtalabel76
	.ascii	"/Users/rcalhoun/code/git/sw_usb_audio/lib_mic_array/lib_mic_array/src/decimator_interface.xc"
	.byte	0
	.long	193
	.long	193
	.long	.Lxtalabel76
.cc_bottom cc_148
.cc_top cc_149,.Lxtalabel78
	.ascii	"/Users/rcalhoun/code/git/sw_usb_audio/lib_mic_array/lib_mic_array/src/decimator_interface.xc"
	.byte	0
	.long	193
	.long	193
	.long	.Lxtalabel78
.cc_bottom cc_149
.cc_top cc_150,.Lxtalabel75
	.ascii	"/Users/rcalhoun/code/git/sw_usb_audio/lib_mic_array/lib_mic_array/src/decimator_interface.xc"
	.byte	0
	.long	193
	.long	193
	.long	.Lxtalabel75
.cc_bottom cc_150
.cc_top cc_151,.Lxtalabel74
	.ascii	"/Users/rcalhoun/code/git/sw_usb_audio/lib_mic_array/lib_mic_array/src/decimator_interface.xc"
	.byte	0
	.long	193
	.long	193
	.long	.Lxtalabel74
.cc_bottom cc_151
.cc_top cc_152,.Lxtalabel77
	.ascii	"/Users/rcalhoun/code/git/sw_usb_audio/lib_mic_array/lib_mic_array/src/decimator_interface.xc"
	.byte	0
	.long	193
	.long	193
	.long	.Lxtalabel77
.cc_bottom cc_152
.cc_top cc_153,.Lxtalabel73
	.ascii	"/Users/rcalhoun/code/git/sw_usb_audio/lib_mic_array/lib_mic_array/src/decimator_interface.xc"
	.byte	0
	.long	193
	.long	193
	.long	.Lxtalabel73
.cc_bottom cc_153
.cc_top cc_154,.Lxtalabel74
	.ascii	"/Users/rcalhoun/code/git/sw_usb_audio/lib_mic_array/lib_mic_array/src/decimator_interface.xc"
	.byte	0
	.long	195
	.long	196
	.long	.Lxtalabel74
.cc_bottom cc_154
.cc_top cc_155,.Lxtalabel78
	.ascii	"/Users/rcalhoun/code/git/sw_usb_audio/lib_mic_array/lib_mic_array/src/decimator_interface.xc"
	.byte	0
	.long	195
	.long	196
	.long	.Lxtalabel78
.cc_bottom cc_155
.cc_top cc_156,.Lxtalabel76
	.ascii	"/Users/rcalhoun/code/git/sw_usb_audio/lib_mic_array/lib_mic_array/src/decimator_interface.xc"
	.byte	0
	.long	195
	.long	196
	.long	.Lxtalabel76
.cc_bottom cc_156
.cc_top cc_157,.Lxtalabel77
	.ascii	"/Users/rcalhoun/code/git/sw_usb_audio/lib_mic_array/lib_mic_array/src/decimator_interface.xc"
	.byte	0
	.long	195
	.long	196
	.long	.Lxtalabel77
.cc_bottom cc_157
.cc_top cc_158,.Lxtalabel75
	.ascii	"/Users/rcalhoun/code/git/sw_usb_audio/lib_mic_array/lib_mic_array/src/decimator_interface.xc"
	.byte	0
	.long	195
	.long	196
	.long	.Lxtalabel75
.cc_bottom cc_158
.cc_top cc_159,.Lxtalabel73
	.ascii	"/Users/rcalhoun/code/git/sw_usb_audio/lib_mic_array/lib_mic_array/src/decimator_interface.xc"
	.byte	0
	.long	195
	.long	196
	.long	.Lxtalabel73
.cc_bottom cc_159
.cc_top cc_160,.Lxtalabel76
	.ascii	"/Users/rcalhoun/code/git/sw_usb_audio/lib_mic_array/lib_mic_array/src/decimator_interface.xc"
	.byte	0
	.long	199
	.long	200
	.long	.Lxtalabel76
.cc_bottom cc_160
.cc_top cc_161,.Lxtalabel77
	.ascii	"/Users/rcalhoun/code/git/sw_usb_audio/lib_mic_array/lib_mic_array/src/decimator_interface.xc"
	.byte	0
	.long	199
	.long	200
	.long	.Lxtalabel77
.cc_bottom cc_161
.cc_top cc_162,.Lxtalabel74
	.ascii	"/Users/rcalhoun/code/git/sw_usb_audio/lib_mic_array/lib_mic_array/src/decimator_interface.xc"
	.byte	0
	.long	199
	.long	200
	.long	.Lxtalabel74
.cc_bottom cc_162
.cc_top cc_163,.Lxtalabel73
	.ascii	"/Users/rcalhoun/code/git/sw_usb_audio/lib_mic_array/lib_mic_array/src/decimator_interface.xc"
	.byte	0
	.long	199
	.long	200
	.long	.Lxtalabel73
.cc_bottom cc_163
.cc_top cc_164,.Lxtalabel75
	.ascii	"/Users/rcalhoun/code/git/sw_usb_audio/lib_mic_array/lib_mic_array/src/decimator_interface.xc"
	.byte	0
	.long	199
	.long	200
	.long	.Lxtalabel75
.cc_bottom cc_164
.cc_top cc_165,.Lxtalabel78
	.ascii	"/Users/rcalhoun/code/git/sw_usb_audio/lib_mic_array/lib_mic_array/src/decimator_interface.xc"
	.byte	0
	.long	199
	.long	200
	.long	.Lxtalabel78
.cc_bottom cc_165
.cc_top cc_166,.Lxtalabel79
	.ascii	"/Users/rcalhoun/code/git/sw_usb_audio/lib_mic_array/lib_mic_array/src/decimator_interface.xc"
	.byte	0
	.long	208
	.long	208
	.long	.Lxtalabel79
.cc_bottom cc_166
.cc_top cc_167,.Lxtalabel84
	.ascii	"/Users/rcalhoun/code/git/sw_usb_audio/lib_mic_array/lib_mic_array/src/decimator_interface.xc"
	.byte	0
	.long	208
	.long	208
	.long	.Lxtalabel84
.cc_bottom cc_167
.cc_top cc_168,.Lxtalabel80
	.ascii	"/Users/rcalhoun/code/git/sw_usb_audio/lib_mic_array/lib_mic_array/src/decimator_interface.xc"
	.byte	0
	.long	209
	.long	209
	.long	.Lxtalabel80
.cc_bottom cc_168
.cc_top cc_169,.Lxtalabel85
	.ascii	"/Users/rcalhoun/code/git/sw_usb_audio/lib_mic_array/lib_mic_array/src/decimator_interface.xc"
	.byte	0
	.long	209
	.long	209
	.long	.Lxtalabel85
.cc_bottom cc_169
.cc_top cc_170,.Lxtalabel81
	.ascii	"/Users/rcalhoun/code/git/sw_usb_audio/lib_mic_array/lib_mic_array/src/decimator_interface.xc"
	.byte	0
	.long	212
	.long	212
	.long	.Lxtalabel81
.cc_bottom cc_170
.cc_top cc_171,.Lxtalabel86
	.ascii	"/Users/rcalhoun/code/git/sw_usb_audio/lib_mic_array/lib_mic_array/src/decimator_interface.xc"
	.byte	0
	.long	212
	.long	212
	.long	.Lxtalabel86
.cc_bottom cc_171
.cc_top cc_172,.Lxtalabel82
	.ascii	"/Users/rcalhoun/code/git/sw_usb_audio/lib_mic_array/lib_mic_array/src/decimator_interface.xc"
	.byte	0
	.long	216
	.long	216
	.long	.Lxtalabel82
.cc_bottom cc_172
.cc_top cc_173,.Lxtalabel87
	.ascii	"/Users/rcalhoun/code/git/sw_usb_audio/lib_mic_array/lib_mic_array/src/decimator_interface.xc"
	.byte	0
	.long	216
	.long	216
	.long	.Lxtalabel87
.cc_bottom cc_173
.cc_top cc_174,.Lxtalabel83
	.ascii	"/Users/rcalhoun/code/git/sw_usb_audio/lib_mic_array/lib_mic_array/src/decimator_interface.xc"
	.byte	0
	.long	217
	.long	218
	.long	.Lxtalabel83
.cc_bottom cc_174
.cc_top cc_175,.Lxtalabel88
	.ascii	"/Users/rcalhoun/code/git/sw_usb_audio/lib_mic_array/lib_mic_array/src/decimator_interface.xc"
	.byte	0
	.long	217
	.long	218
	.long	.Lxtalabel88
.cc_bottom cc_175
.Lentries_end3:
	.section	.xtalooplabeltable,"",@progbits
.Lentries_start4:
	.long	.Lentries_end5-.Lentries_start4
	.long	0
	.ascii	"/Users/rcalhoun/code/git/sw_usb_audio/sw_usb_audio/app_usb_aud_mic_array/.build_2i8o2"
	.byte	0
.cc_top cc_176,.Lxta.loop_labels0
	.ascii	"/Users/rcalhoun/code/git/sw_usb_audio/lib_mic_array/lib_mic_array/src/decimator_interface.xc"
	.byte	0
	.long	35
	.long	35
	.long	.Lxta.loop_labels0
.cc_bottom cc_176
.cc_top cc_177,.Lxta.loop_labels6
	.ascii	"/Users/rcalhoun/code/git/sw_usb_audio/lib_mic_array/lib_mic_array/src/decimator_interface.xc"
	.byte	0
	.long	35
	.long	35
	.long	.Lxta.loop_labels6
.cc_bottom cc_177
.cc_top cc_178,.Lxta.loop_labels4
	.ascii	"/Users/rcalhoun/code/git/sw_usb_audio/lib_mic_array/lib_mic_array/src/decimator_interface.xc"
	.byte	0
	.long	37
	.long	38
	.long	.Lxta.loop_labels4
.cc_bottom cc_178
.cc_top cc_179,.Lxta.loop_labels9
	.ascii	"/Users/rcalhoun/code/git/sw_usb_audio/lib_mic_array/lib_mic_array/src/decimator_interface.xc"
	.byte	0
	.long	37
	.long	38
	.long	.Lxta.loop_labels9
.cc_bottom cc_179
.cc_top cc_180,.Lxta.loop_labels3
	.ascii	"/Users/rcalhoun/code/git/sw_usb_audio/lib_mic_array/lib_mic_array/src/decimator_interface.xc"
	.byte	0
	.long	37
	.long	38
	.long	.Lxta.loop_labels3
.cc_bottom cc_180
.cc_top cc_181,.Lxta.loop_labels1
	.ascii	"/Users/rcalhoun/code/git/sw_usb_audio/lib_mic_array/lib_mic_array/src/decimator_interface.xc"
	.byte	0
	.long	42
	.long	42
	.long	.Lxta.loop_labels1
.cc_bottom cc_181
.cc_top cc_182,.Lxta.loop_labels7
	.ascii	"/Users/rcalhoun/code/git/sw_usb_audio/lib_mic_array/lib_mic_array/src/decimator_interface.xc"
	.byte	0
	.long	42
	.long	42
	.long	.Lxta.loop_labels7
.cc_bottom cc_182
.cc_top cc_183,.Lxta.loop_labels1
	.ascii	"/Users/rcalhoun/code/git/sw_usb_audio/lib_mic_array/lib_mic_array/src/decimator_interface.xc"
	.byte	0
	.long	44
	.long	44
	.long	.Lxta.loop_labels1
.cc_bottom cc_183
.cc_top cc_184,.Lxta.loop_labels7
	.ascii	"/Users/rcalhoun/code/git/sw_usb_audio/lib_mic_array/lib_mic_array/src/decimator_interface.xc"
	.byte	0
	.long	44
	.long	44
	.long	.Lxta.loop_labels7
.cc_bottom cc_184
.cc_top cc_185,.Lxta.loop_labels3
	.ascii	"/Users/rcalhoun/code/git/sw_usb_audio/lib_mic_array/lib_mic_array/src/decimator_interface.xc"
	.byte	0
	.long	45
	.long	45
	.long	.Lxta.loop_labels3
.cc_bottom cc_185
.cc_top cc_186,.Lxta.loop_labels9
	.ascii	"/Users/rcalhoun/code/git/sw_usb_audio/lib_mic_array/lib_mic_array/src/decimator_interface.xc"
	.byte	0
	.long	45
	.long	45
	.long	.Lxta.loop_labels9
.cc_bottom cc_186
.cc_top cc_187,.Lxta.loop_labels4
	.ascii	"/Users/rcalhoun/code/git/sw_usb_audio/lib_mic_array/lib_mic_array/src/decimator_interface.xc"
	.byte	0
	.long	45
	.long	45
	.long	.Lxta.loop_labels4
.cc_bottom cc_187
.cc_top cc_188,.Lxta.loop_labels8
	.ascii	"/Users/rcalhoun/code/git/sw_usb_audio/lib_mic_array/lib_mic_array/src/decimator_interface.xc"
	.byte	0
	.long	46
	.long	46
	.long	.Lxta.loop_labels8
.cc_bottom cc_188
.cc_top cc_189,.Lxta.loop_labels2
	.ascii	"/Users/rcalhoun/code/git/sw_usb_audio/lib_mic_array/lib_mic_array/src/decimator_interface.xc"
	.byte	0
	.long	46
	.long	46
	.long	.Lxta.loop_labels2
.cc_bottom cc_189
.cc_top cc_190,.Lxta.loop_labels4
	.ascii	"/Users/rcalhoun/code/git/sw_usb_audio/lib_mic_array/lib_mic_array/src/decimator_interface.xc"
	.byte	0
	.long	47
	.long	48
	.long	.Lxta.loop_labels4
.cc_bottom cc_190
.cc_top cc_191,.Lxta.loop_labels9
	.ascii	"/Users/rcalhoun/code/git/sw_usb_audio/lib_mic_array/lib_mic_array/src/decimator_interface.xc"
	.byte	0
	.long	47
	.long	48
	.long	.Lxta.loop_labels9
.cc_bottom cc_191
.cc_top cc_192,.Lxta.loop_labels3
	.ascii	"/Users/rcalhoun/code/git/sw_usb_audio/lib_mic_array/lib_mic_array/src/decimator_interface.xc"
	.byte	0
	.long	47
	.long	48
	.long	.Lxta.loop_labels3
.cc_bottom cc_192
.cc_top cc_193,.Lxta.loop_labels5
	.ascii	"/Users/rcalhoun/code/git/sw_usb_audio/lib_mic_array/lib_mic_array/src/decimator_interface.xc"
	.byte	0
	.long	50
	.long	50
	.long	.Lxta.loop_labels5
.cc_bottom cc_193
.cc_top cc_194,.Lxta.loop_labels10
	.ascii	"/Users/rcalhoun/code/git/sw_usb_audio/lib_mic_array/lib_mic_array/src/decimator_interface.xc"
	.byte	0
	.long	50
	.long	50
	.long	.Lxta.loop_labels10
.cc_bottom cc_194
.cc_top cc_195,.Lxta.loop_labels11
	.ascii	"/Users/rcalhoun/code/git/sw_usb_audio/lib_mic_array/lib_mic_array/src/decimator_interface.xc"
	.byte	0
	.long	73
	.long	73
	.long	.Lxta.loop_labels11
.cc_bottom cc_195
.cc_top cc_196,.Lxta.loop_labels16
	.ascii	"/Users/rcalhoun/code/git/sw_usb_audio/lib_mic_array/lib_mic_array/src/decimator_interface.xc"
	.byte	0
	.long	73
	.long	73
	.long	.Lxta.loop_labels16
.cc_bottom cc_196
.cc_top cc_197,.Lxta.loop_labels12
	.ascii	"/Users/rcalhoun/code/git/sw_usb_audio/lib_mic_array/lib_mic_array/src/decimator_interface.xc"
	.byte	0
	.long	76
	.long	76
	.long	.Lxta.loop_labels12
.cc_bottom cc_197
.cc_top cc_198,.Lxta.loop_labels17
	.ascii	"/Users/rcalhoun/code/git/sw_usb_audio/lib_mic_array/lib_mic_array/src/decimator_interface.xc"
	.byte	0
	.long	76
	.long	76
	.long	.Lxta.loop_labels17
.cc_bottom cc_198
.cc_top cc_199,.Lxta.loop_labels13
	.ascii	"/Users/rcalhoun/code/git/sw_usb_audio/lib_mic_array/lib_mic_array/src/decimator_interface.xc"
	.byte	0
	.long	83
	.long	83
	.long	.Lxta.loop_labels13
.cc_bottom cc_199
.cc_top cc_200,.Lxta.loop_labels18
	.ascii	"/Users/rcalhoun/code/git/sw_usb_audio/lib_mic_array/lib_mic_array/src/decimator_interface.xc"
	.byte	0
	.long	83
	.long	83
	.long	.Lxta.loop_labels18
.cc_bottom cc_200
.cc_top cc_201,.Lxta.loop_labels13
	.ascii	"/Users/rcalhoun/code/git/sw_usb_audio/lib_mic_array/lib_mic_array/src/decimator_interface.xc"
	.byte	0
	.long	85
	.long	85
	.long	.Lxta.loop_labels13
.cc_bottom cc_201
.cc_top cc_202,.Lxta.loop_labels18
	.ascii	"/Users/rcalhoun/code/git/sw_usb_audio/lib_mic_array/lib_mic_array/src/decimator_interface.xc"
	.byte	0
	.long	85
	.long	85
	.long	.Lxta.loop_labels18
.cc_bottom cc_202
.cc_top cc_203,.Lxta.loop_labels19
	.ascii	"/Users/rcalhoun/code/git/sw_usb_audio/lib_mic_array/lib_mic_array/src/decimator_interface.xc"
	.byte	0
	.long	87
	.long	87
	.long	.Lxta.loop_labels19
.cc_bottom cc_203
.cc_top cc_204,.Lxta.loop_labels14
	.ascii	"/Users/rcalhoun/code/git/sw_usb_audio/lib_mic_array/lib_mic_array/src/decimator_interface.xc"
	.byte	0
	.long	87
	.long	87
	.long	.Lxta.loop_labels14
.cc_bottom cc_204
.cc_top cc_205,.Lxta.loop_labels15
	.ascii	"/Users/rcalhoun/code/git/sw_usb_audio/lib_mic_array/lib_mic_array/src/decimator_interface.xc"
	.byte	0
	.long	91
	.long	91
	.long	.Lxta.loop_labels15
.cc_bottom cc_205
.cc_top cc_206,.Lxta.loop_labels20
	.ascii	"/Users/rcalhoun/code/git/sw_usb_audio/lib_mic_array/lib_mic_array/src/decimator_interface.xc"
	.byte	0
	.long	91
	.long	91
	.long	.Lxta.loop_labels20
.cc_bottom cc_206
.cc_top cc_207,.Lxta.loop_labels21
	.ascii	"/Users/rcalhoun/code/git/sw_usb_audio/lib_mic_array/lib_mic_array/src/decimator_interface.xc"
	.byte	0
	.long	134
	.long	134
	.long	.Lxta.loop_labels21
.cc_bottom cc_207
.cc_top cc_208,.Lxta.loop_labels24
	.ascii	"/Users/rcalhoun/code/git/sw_usb_audio/lib_mic_array/lib_mic_array/src/decimator_interface.xc"
	.byte	0
	.long	137
	.long	138
	.long	.Lxta.loop_labels24
.cc_bottom cc_208
.cc_top cc_209,.Lxta.loop_labels22
	.ascii	"/Users/rcalhoun/code/git/sw_usb_audio/lib_mic_array/lib_mic_array/src/decimator_interface.xc"
	.byte	0
	.long	139
	.long	139
	.long	.Lxta.loop_labels22
.cc_bottom cc_209
.cc_top cc_210,.Lxta.loop_labels24
	.ascii	"/Users/rcalhoun/code/git/sw_usb_audio/lib_mic_array/lib_mic_array/src/decimator_interface.xc"
	.byte	0
	.long	140
	.long	140
	.long	.Lxta.loop_labels24
.cc_bottom cc_210
.cc_top cc_211,.Lxta.loop_labels23
	.ascii	"/Users/rcalhoun/code/git/sw_usb_audio/lib_mic_array/lib_mic_array/src/decimator_interface.xc"
	.byte	0
	.long	141
	.long	141
	.long	.Lxta.loop_labels23
.cc_bottom cc_211
.cc_top cc_212,.Lxta.loop_labels24
	.ascii	"/Users/rcalhoun/code/git/sw_usb_audio/lib_mic_array/lib_mic_array/src/decimator_interface.xc"
	.byte	0
	.long	142
	.long	143
	.long	.Lxta.loop_labels24
.cc_bottom cc_212
.cc_top cc_213,.Lxta.loop_labels25
	.ascii	"/Users/rcalhoun/code/git/sw_usb_audio/lib_mic_array/lib_mic_array/src/decimator_interface.xc"
	.byte	0
	.long	145
	.long	145
	.long	.Lxta.loop_labels25
.cc_bottom cc_213
.cc_top cc_214,.Lxta.loop_labels26
	.ascii	"/Users/rcalhoun/code/git/sw_usb_audio/lib_mic_array/lib_mic_array/src/decimator_interface.xc"
	.byte	0
	.long	166
	.long	166
	.long	.Lxta.loop_labels26
.cc_bottom cc_214
.cc_top cc_215,.Lxta.loop_labels27
	.ascii	"/Users/rcalhoun/code/git/sw_usb_audio/lib_mic_array/lib_mic_array/src/decimator_interface.xc"
	.byte	0
	.long	169
	.long	169
	.long	.Lxta.loop_labels27
.cc_bottom cc_215
.cc_top cc_216,.Lxta.loop_labels28
	.ascii	"/Users/rcalhoun/code/git/sw_usb_audio/lib_mic_array/lib_mic_array/src/decimator_interface.xc"
	.byte	0
	.long	172
	.long	172
	.long	.Lxta.loop_labels28
.cc_bottom cc_216
.cc_top cc_217,.Lxta.loop_labels29
	.ascii	"/Users/rcalhoun/code/git/sw_usb_audio/lib_mic_array/lib_mic_array/src/decimator_interface.xc"
	.byte	0
	.long	174
	.long	174
	.long	.Lxta.loop_labels29
.cc_bottom cc_217
.cc_top cc_218,.Lxta.loop_labels30
	.ascii	"/Users/rcalhoun/code/git/sw_usb_audio/lib_mic_array/lib_mic_array/src/decimator_interface.xc"
	.byte	0
	.long	178
	.long	178
	.long	.Lxta.loop_labels30
.cc_bottom cc_218
.cc_top cc_219,.Lxta.loop_labels31
	.ascii	"/Users/rcalhoun/code/git/sw_usb_audio/lib_mic_array/lib_mic_array/src/decimator_interface.xc"
	.byte	0
	.long	209
	.long	209
	.long	.Lxta.loop_labels31
.cc_bottom cc_219
.cc_top cc_220,.Lxta.loop_labels34
	.ascii	"/Users/rcalhoun/code/git/sw_usb_audio/lib_mic_array/lib_mic_array/src/decimator_interface.xc"
	.byte	0
	.long	209
	.long	209
	.long	.Lxta.loop_labels34
.cc_bottom cc_220
.cc_top cc_221,.Lxta.loop_labels32
	.ascii	"/Users/rcalhoun/code/git/sw_usb_audio/lib_mic_array/lib_mic_array/src/decimator_interface.xc"
	.byte	0
	.long	212
	.long	212
	.long	.Lxta.loop_labels32
.cc_bottom cc_221
.cc_top cc_222,.Lxta.loop_labels35
	.ascii	"/Users/rcalhoun/code/git/sw_usb_audio/lib_mic_array/lib_mic_array/src/decimator_interface.xc"
	.byte	0
	.long	212
	.long	212
	.long	.Lxta.loop_labels35
.cc_bottom cc_222
.cc_top cc_223,.Lxta.loop_labels33
	.ascii	"/Users/rcalhoun/code/git/sw_usb_audio/lib_mic_array/lib_mic_array/src/decimator_interface.xc"
	.byte	0
	.long	216
	.long	216
	.long	.Lxta.loop_labels33
.cc_bottom cc_223
.cc_top cc_224,.Lxta.loop_labels36
	.ascii	"/Users/rcalhoun/code/git/sw_usb_audio/lib_mic_array/lib_mic_array/src/decimator_interface.xc"
	.byte	0
	.long	216
	.long	216
	.long	.Lxta.loop_labels36
.cc_bottom cc_224
.Lentries_end5:
	.section	.trap_info,"",@progbits
.Ltrap_info_entries_start0:
	.long	.Ltrap_info_entries_end0-.Ltrap_info_entries_start0
	.long	1
	.section	.trap_info_str,"MS",@progbits
.Ltrap_info_str0:
.asciiz"/Users/rcalhoun/code/git/sw_usb_audio/lib_mic_array/lib_mic_array/src/decimator_interface.xc:19:30: error: out of bounds array access\n    unsafe {buffering_type = dc[0].dcc->buffering_type;}\n                             ^~~~~\n"
	.section	.trap_info,"",@progbits
.cc_top cc_trapinfo_0,.Ltrap_info0
	.long	.Ltrap_info0
	.long	.Ltrap_info_str0
.cc_bottom cc_trapinfo_0
	.section	.trap_info_str,"MS",@progbits
.Ltrap_info_str1:
.asciiz"/Users/rcalhoun/code/git/sw_usb_audio/lib_mic_array/lib_mic_array/src/decimator_interface.xc:35:9: error: out of bounds array access\n        c_from_decimator[i] <: frames;\n        ^~~~~~~~~~~~~~~~~~~\n"
	.section	.trap_info,"",@progbits
.cc_top cc_trapinfo_1,.Ltrap_info1
	.long	.Ltrap_info1
	.long	.Ltrap_info_str1
.cc_bottom cc_trapinfo_1
	.section	.trap_info_str,"MS",@progbits
.Ltrap_info_str2:
.asciiz"/Users/rcalhoun/code/git/sw_usb_audio/lib_mic_array/lib_mic_array/src/decimator_interface.xc:42:16: error: out of bounds array access\n               c_from_decimator[i] <: (int32_t * unsafe)(audio[f].data[i*4]);\n               ^~~~~~~~~~~~~~~~~~~\n"
	.section	.trap_info,"",@progbits
.cc_top cc_trapinfo_2,.Ltrap_info2
	.long	.Ltrap_info2
	.long	.Ltrap_info_str2
.cc_bottom cc_trapinfo_2
	.section	.trap_info_str,"MS",@progbits
.Ltrap_info_str3:
.asciiz"/Users/rcalhoun/code/git/sw_usb_audio/lib_mic_array/lib_mic_array/src/decimator_interface.xc:42:57: error: out of bounds array access\n               c_from_decimator[i] <: (int32_t * unsafe)(audio[f].data[i*4]);\n                                                        ^~~~~~~~~~~~~~~~~~~~\n"
	.section	.trap_info,"",@progbits
.cc_top cc_trapinfo_3,.Ltrap_info3
	.long	.Ltrap_info3
	.long	.Ltrap_info_str3
.cc_bottom cc_trapinfo_3
	.section	.trap_info_str,"MS",@progbits
.Ltrap_info_str4:
.asciiz"/Users/rcalhoun/code/git/sw_usb_audio/lib_mic_array/lib_mic_array/src/decimator_interface.xc:46:16: error: out of bounds array access\n               c_from_decimator[i] <: (mic_array_metadata_t * unsafe)&audio[f].metadata[i];\n               ^~~~~~~~~~~~~~~~~~~\n"
	.section	.trap_info,"",@progbits
.cc_top cc_trapinfo_4,.Ltrap_info4
	.long	.Ltrap_info4
	.long	.Ltrap_info_str4
.cc_bottom cc_trapinfo_4
	.section	.trap_info_str,"MS",@progbits
.Ltrap_info_str5:
.asciiz"/Users/rcalhoun/code/git/sw_usb_audio/lib_mic_array/lib_mic_array/src/decimator_interface.xc:50:16: error: out of bounds array access\n        schkct(c_from_decimator[i], 8);\n               ^~~~~~~~~~~~~~~~~~~\n/Applications/XMOS_XTC_15.1.4/target/include/xs1.h:1290:64: note: expanded from macro 'schkct'\n#define schkct(c, val)                        __builtin_schkct(c, val)\n                                                               ^\n"
	.section	.trap_info,"",@progbits
.cc_top cc_trapinfo_5,.Ltrap_info5
	.long	.Ltrap_info5
	.long	.Ltrap_info_str5
.cc_bottom cc_trapinfo_5
	.section	.trap_info_str,"MS",@progbits
.Ltrap_info_str6:
.asciiz"/Users/rcalhoun/code/git/sw_usb_audio/lib_mic_array/lib_mic_array/src/decimator_interface.xc:42:16: error: out of bounds array access\n               c_from_decimator[i] <: (int32_t * unsafe)(audio[f].data[i*4]);\n               ^~~~~~~~~~~~~~~~~~~\n"
	.section	.trap_info,"",@progbits
.cc_top cc_trapinfo_6,.Ltrap_info6
	.long	.Ltrap_info6
	.long	.Ltrap_info_str6
.cc_bottom cc_trapinfo_6
	.section	.trap_info_str,"MS",@progbits
.Ltrap_info_str7:
.asciiz"/Users/rcalhoun/code/git/sw_usb_audio/lib_mic_array/lib_mic_array/src/decimator_interface.xc:42:58: error: out of bounds array access\n               c_from_decimator[i] <: (int32_t * unsafe)(audio[f].data[i*4]);\n                                                         ^~~~~~~~\n"
	.section	.trap_info,"",@progbits
.cc_top cc_trapinfo_7,.Ltrap_info7
	.long	.Ltrap_info7
	.long	.Ltrap_info_str7
.cc_bottom cc_trapinfo_7
	.section	.trap_info_str,"MS",@progbits
.Ltrap_info_str8:
.asciiz"/Users/rcalhoun/code/git/sw_usb_audio/lib_mic_array/lib_mic_array/src/decimator_interface.xc:19:30: error: out of bounds array access\n    unsafe {buffering_type = dc[0].dcc->buffering_type;}\n                             ^~~~~\n"
	.section	.trap_info,"",@progbits
.cc_top cc_trapinfo_8,.Ltrap_info8
	.long	.Ltrap_info8
	.long	.Ltrap_info_str8
.cc_bottom cc_trapinfo_8
	.section	.trap_info_str,"MS",@progbits
.Ltrap_info_str9:
.asciiz"/Users/rcalhoun/code/git/sw_usb_audio/lib_mic_array/lib_mic_array/src/decimator_interface.xc:35:9: error: out of bounds array access\n        c_from_decimator[i] <: frames;\n        ^~~~~~~~~~~~~~~~~~~\n"
	.section	.trap_info,"",@progbits
.cc_top cc_trapinfo_9,.Ltrap_info9
	.long	.Ltrap_info9
	.long	.Ltrap_info_str9
.cc_bottom cc_trapinfo_9
	.section	.trap_info_str,"MS",@progbits
.Ltrap_info_str10:
.asciiz"/Users/rcalhoun/code/git/sw_usb_audio/lib_mic_array/lib_mic_array/src/decimator_interface.xc:42:16: error: out of bounds array access\n               c_from_decimator[i] <: (int32_t * unsafe)(audio[f].data[i*4]);\n               ^~~~~~~~~~~~~~~~~~~\n"
	.section	.trap_info,"",@progbits
.cc_top cc_trapinfo_10,.Ltrap_info10
	.long	.Ltrap_info10
	.long	.Ltrap_info_str10
.cc_bottom cc_trapinfo_10
	.section	.trap_info_str,"MS",@progbits
.Ltrap_info_str11:
.asciiz"/Users/rcalhoun/code/git/sw_usb_audio/lib_mic_array/lib_mic_array/src/decimator_interface.xc:46:16: error: out of bounds array access\n               c_from_decimator[i] <: (mic_array_metadata_t * unsafe)&audio[f].metadata[i];\n               ^~~~~~~~~~~~~~~~~~~\n"
	.section	.trap_info,"",@progbits
.cc_top cc_trapinfo_11,.Ltrap_info11
	.long	.Ltrap_info11
	.long	.Ltrap_info_str11
.cc_bottom cc_trapinfo_11
	.section	.trap_info_str,"MS",@progbits
.Ltrap_info_str12:
.asciiz"/Users/rcalhoun/code/git/sw_usb_audio/lib_mic_array/lib_mic_array/src/decimator_interface.xc:50:16: error: out of bounds array access\n        schkct(c_from_decimator[i], 8);\n               ^~~~~~~~~~~~~~~~~~~\n/Applications/XMOS_XTC_15.1.4/target/include/xs1.h:1290:64: note: expanded from macro 'schkct'\n#define schkct(c, val)                        __builtin_schkct(c, val)\n                                                               ^\n"
	.section	.trap_info,"",@progbits
.cc_top cc_trapinfo_12,.Ltrap_info12
	.long	.Ltrap_info12
	.long	.Ltrap_info_str12
.cc_bottom cc_trapinfo_12
	.section	.trap_info_str,"MS",@progbits
.Ltrap_info_str13:
.asciiz"/Users/rcalhoun/code/git/sw_usb_audio/lib_mic_array/lib_mic_array/src/decimator_interface.xc:42:58: error: out of bounds array access\n               c_from_decimator[i] <: (int32_t * unsafe)(audio[f].data[i*4]);\n                                                         ^~~~~~~~\n"
	.section	.trap_info,"",@progbits
.cc_top cc_trapinfo_13,.Ltrap_info13
	.long	.Ltrap_info13
	.long	.Ltrap_info_str13
.cc_bottom cc_trapinfo_13
	.section	.trap_info_str,"MS",@progbits
.Ltrap_info_str14:
.asciiz"/Users/rcalhoun/code/git/sw_usb_audio/lib_mic_array/lib_mic_array/src/decimator_interface.xc:42:16: error: out of bounds array access\n               c_from_decimator[i] <: (int32_t * unsafe)(audio[f].data[i*4]);\n               ^~~~~~~~~~~~~~~~~~~\n"
	.section	.trap_info,"",@progbits
.cc_top cc_trapinfo_14,.Ltrap_info14
	.long	.Ltrap_info14
	.long	.Ltrap_info_str14
.cc_bottom cc_trapinfo_14
	.section	.trap_info_str,"MS",@progbits
.Ltrap_info_str15:
.asciiz"/Users/rcalhoun/code/git/sw_usb_audio/lib_mic_array/lib_mic_array/src/decimator_interface.xc:73:17: error: out of bounds array access\n         schkct(c_from_decimator[i], 8);\n                ^~~~~~~~~~~~~~~~~~~\n/Applications/XMOS_XTC_15.1.4/target/include/xs1.h:1290:64: note: expanded from macro 'schkct'\n#define schkct(c, val)                        __builtin_schkct(c, val)\n                                                               ^\n"
	.section	.trap_info,"",@progbits
.cc_top cc_trapinfo_15,.Ltrap_info15
	.long	.Ltrap_info15
	.long	.Ltrap_info_str15
.cc_bottom cc_trapinfo_15
	.section	.trap_info_str,"MS",@progbits
.Ltrap_info_str16:
.asciiz"/Users/rcalhoun/code/git/sw_usb_audio/lib_mic_array/lib_mic_array/src/decimator_interface.xc:76:17: error: out of bounds array access\n         soutct(c_from_decimator[i], EXCHANGE_BUFFERS);\n                ^~~~~~~~~~~~~~~~~~~\n/Applications/XMOS_XTC_15.1.4/target/include/xs1.h:1274:64: note: expanded from macro 'soutct'\n#define soutct(c, val)                        __builtin_soutct(c, val)\n                                                               ^\n"
	.section	.trap_info,"",@progbits
.cc_top cc_trapinfo_16,.Ltrap_info16
	.long	.Ltrap_info16
	.long	.Ltrap_info_str16
.cc_bottom cc_trapinfo_16
	.section	.trap_info_str,"MS",@progbits
.Ltrap_info_str17:
.asciiz"/Users/rcalhoun/code/git/sw_usb_audio/lib_mic_array/lib_mic_array/src/decimator_interface.xc:83:13: error: out of bounds array access\n            c_from_decimator[i] <: (int32_t * unsafe)(audio[buffer].data[i*4]);\n            ^~~~~~~~~~~~~~~~~~~\n"
	.section	.trap_info,"",@progbits
.cc_top cc_trapinfo_17,.Ltrap_info17
	.long	.Ltrap_info17
	.long	.Ltrap_info_str17
.cc_bottom cc_trapinfo_17
	.section	.trap_info_str,"MS",@progbits
.Ltrap_info_str18:
.asciiz"/Users/rcalhoun/code/git/sw_usb_audio/lib_mic_array/lib_mic_array/src/decimator_interface.xc:83:55: error: out of bounds array or pointer access\n            c_from_decimator[i] <: (int32_t * unsafe)(audio[buffer].data[i*4]);\n                                                      ^~~~~~~~~~~~~\n"
	.section	.trap_info,"",@progbits
.cc_top cc_trapinfo_18,.Ltrap_info18
	.long	.Ltrap_info18
	.long	.Ltrap_info_str18
.cc_bottom cc_trapinfo_18
	.section	.trap_info_str,"MS",@progbits
.Ltrap_info_str19:
.asciiz"/Users/rcalhoun/code/git/sw_usb_audio/lib_mic_array/lib_mic_array/src/decimator_interface.xc:83:54: error: out of bounds array access\n            c_from_decimator[i] <: (int32_t * unsafe)(audio[buffer].data[i*4]);\n                                                     ^~~~~~~~~~~~~~~~~~~~~~~~~\n"
	.section	.trap_info,"",@progbits
.cc_top cc_trapinfo_19,.Ltrap_info19
	.long	.Ltrap_info19
	.long	.Ltrap_info_str19
.cc_bottom cc_trapinfo_19
	.section	.trap_info_str,"MS",@progbits
.Ltrap_info_str20:
.asciiz"/Users/rcalhoun/code/git/sw_usb_audio/lib_mic_array/lib_mic_array/src/decimator_interface.xc:87:13: error: out of bounds array access\n            c_from_decimator[i] <: (mic_array_metadata_t * unsafe)&audio[buffer].metadata[i];\n            ^~~~~~~~~~~~~~~~~~~\n"
	.section	.trap_info,"",@progbits
.cc_top cc_trapinfo_20,.Ltrap_info20
	.long	.Ltrap_info20
	.long	.Ltrap_info_str20
.cc_bottom cc_trapinfo_20
	.section	.trap_info_str,"MS",@progbits
.Ltrap_info_str21:
.asciiz"/Users/rcalhoun/code/git/sw_usb_audio/lib_mic_array/lib_mic_array/src/decimator_interface.xc:91:16: error: out of bounds array access\n        schkct(c_from_decimator[i], 8);\n               ^~~~~~~~~~~~~~~~~~~\n/Applications/XMOS_XTC_15.1.4/target/include/xs1.h:1290:64: note: expanded from macro 'schkct'\n#define schkct(c, val)                        __builtin_schkct(c, val)\n                                                               ^\n"
	.section	.trap_info,"",@progbits
.cc_top cc_trapinfo_21,.Ltrap_info21
	.long	.Ltrap_info21
	.long	.Ltrap_info_str21
.cc_bottom cc_trapinfo_21
	.section	.trap_info_str,"MS",@progbits
.Ltrap_info_str22:
.asciiz"/Users/rcalhoun/code/git/sw_usb_audio/lib_mic_array/lib_mic_array/src/decimator_interface.xc:97:26: error: out of bounds array access\n        buffering_type = dc[0].dcc->buffering_type;\n                         ^~~~~\n"
	.section	.trap_info,"",@progbits
.cc_top cc_trapinfo_22,.Ltrap_info22
	.long	.Ltrap_info22
	.long	.Ltrap_info_str22
.cc_bottom cc_trapinfo_22
	.section	.trap_info_str,"MS",@progbits
.Ltrap_info_str23:
.asciiz"/Users/rcalhoun/code/git/sw_usb_audio/lib_mic_array/lib_mic_array/src/decimator_interface.xc:73:17: error: out of bounds array access\n         schkct(c_from_decimator[i], 8);\n                ^~~~~~~~~~~~~~~~~~~\n/Applications/XMOS_XTC_15.1.4/target/include/xs1.h:1290:64: note: expanded from macro 'schkct'\n#define schkct(c, val)                        __builtin_schkct(c, val)\n                                                               ^\n"
	.section	.trap_info,"",@progbits
.cc_top cc_trapinfo_23,.Ltrap_info23
	.long	.Ltrap_info23
	.long	.Ltrap_info_str23
.cc_bottom cc_trapinfo_23
	.section	.trap_info_str,"MS",@progbits
.Ltrap_info_str24:
.asciiz"/Users/rcalhoun/code/git/sw_usb_audio/lib_mic_array/lib_mic_array/src/decimator_interface.xc:76:17: error: out of bounds array access\n         soutct(c_from_decimator[i], EXCHANGE_BUFFERS);\n                ^~~~~~~~~~~~~~~~~~~\n/Applications/XMOS_XTC_15.1.4/target/include/xs1.h:1274:64: note: expanded from macro 'soutct'\n#define soutct(c, val)                        __builtin_soutct(c, val)\n                                                               ^\n"
	.section	.trap_info,"",@progbits
.cc_top cc_trapinfo_24,.Ltrap_info24
	.long	.Ltrap_info24
	.long	.Ltrap_info_str24
.cc_bottom cc_trapinfo_24
	.section	.trap_info_str,"MS",@progbits
.Ltrap_info_str25:
.asciiz"/Users/rcalhoun/code/git/sw_usb_audio/lib_mic_array/lib_mic_array/src/decimator_interface.xc:83:13: error: out of bounds array access\n            c_from_decimator[i] <: (int32_t * unsafe)(audio[buffer].data[i*4]);\n            ^~~~~~~~~~~~~~~~~~~\n"
	.section	.trap_info,"",@progbits
.cc_top cc_trapinfo_25,.Ltrap_info25
	.long	.Ltrap_info25
	.long	.Ltrap_info_str25
.cc_bottom cc_trapinfo_25
	.section	.trap_info_str,"MS",@progbits
.Ltrap_info_str26:
.asciiz"/Users/rcalhoun/code/git/sw_usb_audio/lib_mic_array/lib_mic_array/src/decimator_interface.xc:83:55: error: out of bounds array or pointer access\n            c_from_decimator[i] <: (int32_t * unsafe)(audio[buffer].data[i*4]);\n                                                      ^~~~~~~~~~~~~\n"
	.section	.trap_info,"",@progbits
.cc_top cc_trapinfo_26,.Ltrap_info26
	.long	.Ltrap_info26
	.long	.Ltrap_info_str26
.cc_bottom cc_trapinfo_26
	.section	.trap_info_str,"MS",@progbits
.Ltrap_info_str27:
.asciiz"/Users/rcalhoun/code/git/sw_usb_audio/lib_mic_array/lib_mic_array/src/decimator_interface.xc:87:13: error: out of bounds array access\n            c_from_decimator[i] <: (mic_array_metadata_t * unsafe)&audio[buffer].metadata[i];\n            ^~~~~~~~~~~~~~~~~~~\n"
	.section	.trap_info,"",@progbits
.cc_top cc_trapinfo_27,.Ltrap_info27
	.long	.Ltrap_info27
	.long	.Ltrap_info_str27
.cc_bottom cc_trapinfo_27
	.section	.trap_info_str,"MS",@progbits
.Ltrap_info_str28:
.asciiz"/Users/rcalhoun/code/git/sw_usb_audio/lib_mic_array/lib_mic_array/src/decimator_interface.xc:91:16: error: out of bounds array access\n        schkct(c_from_decimator[i], 8);\n               ^~~~~~~~~~~~~~~~~~~\n/Applications/XMOS_XTC_15.1.4/target/include/xs1.h:1290:64: note: expanded from macro 'schkct'\n#define schkct(c, val)                        __builtin_schkct(c, val)\n                                                               ^\n"
	.section	.trap_info,"",@progbits
.cc_top cc_trapinfo_28,.Ltrap_info28
	.long	.Ltrap_info28
	.long	.Ltrap_info_str28
.cc_bottom cc_trapinfo_28
	.section	.trap_info_str,"MS",@progbits
.Ltrap_info_str29:
.asciiz"/Users/rcalhoun/code/git/sw_usb_audio/lib_mic_array/lib_mic_array/src/decimator_interface.xc:97:26: error: out of bounds array access\n        buffering_type = dc[0].dcc->buffering_type;\n                         ^~~~~\n"
	.section	.trap_info,"",@progbits
.cc_top cc_trapinfo_29,.Ltrap_info29
	.long	.Ltrap_info29
	.long	.Ltrap_info_str29
.cc_bottom cc_trapinfo_29
	.section	.trap_info_str,"MS",@progbits
.Ltrap_info_str30:
.asciiz"/Users/rcalhoun/code/git/sw_usb_audio/lib_mic_array/lib_mic_array/src/decimator_interface.xc:119:31: error: out of bounds array access\n     unsafe {buffering_type = dc[0].dcc->buffering_type;}\n                              ^~~~~\n"
	.section	.trap_info,"",@progbits
.cc_top cc_trapinfo_30,.Ltrap_info30
	.long	.Ltrap_info30
	.long	.Ltrap_info_str30
.cc_bottom cc_trapinfo_30
	.section	.trap_info_str,"MS",@progbits
.Ltrap_info_str31:
.asciiz"/Users/rcalhoun/code/git/sw_usb_audio/lib_mic_array/lib_mic_array/src/decimator_interface.xc:134:10: error: out of bounds array access\n         c_from_decimator[i] <: frames;\n         ^~~~~~~~~~~~~~~~~~~\n"
	.section	.trap_info,"",@progbits
.cc_top cc_trapinfo_31,.Ltrap_info31
	.long	.Ltrap_info31
	.long	.Ltrap_info_str31
.cc_bottom cc_trapinfo_31
	.section	.trap_info_str,"MS",@progbits
.Ltrap_info_str32:
.asciiz"/Users/rcalhoun/code/git/sw_usb_audio/lib_mic_array/lib_mic_array/src/decimator_interface.xc:139:17: error: out of bounds array access\n                c_from_decimator[i] <: (mic_array_complex_t * unsafe)(f_fft_preprocessed[f].data[i*2]);\n                ^~~~~~~~~~~~~~~~~~~\n"
	.section	.trap_info,"",@progbits
.cc_top cc_trapinfo_32,.Ltrap_info32
	.long	.Ltrap_info32
	.long	.Ltrap_info_str32
.cc_bottom cc_trapinfo_32
	.section	.trap_info_str,"MS",@progbits
.Ltrap_info_str33:
.asciiz"/Users/rcalhoun/code/git/sw_usb_audio/lib_mic_array/lib_mic_array/src/decimator_interface.xc:139:70: error: out of bounds array access\n                c_from_decimator[i] <: (mic_array_complex_t * unsafe)(f_fft_preprocessed[f].data[i*2]);\n                                                                     ^~~~~~~~~~~~~~~~~~~~~~~~~~~~~~~~~\n"
	.section	.trap_info,"",@progbits
.cc_top cc_trapinfo_33,.Ltrap_info33
	.long	.Ltrap_info33
	.long	.Ltrap_info_str33
.cc_bottom cc_trapinfo_33
	.section	.trap_info_str,"MS",@progbits
.Ltrap_info_str34:
.asciiz"/Users/rcalhoun/code/git/sw_usb_audio/lib_mic_array/lib_mic_array/src/decimator_interface.xc:141:17: error: out of bounds array access\n                c_from_decimator[i] <: (mic_array_metadata_t * unsafe)&f_fft_preprocessed[f].metadata[i];\n                ^~~~~~~~~~~~~~~~~~~\n"
	.section	.trap_info,"",@progbits
.cc_top cc_trapinfo_34,.Ltrap_info34
	.long	.Ltrap_info34
	.long	.Ltrap_info_str34
.cc_bottom cc_trapinfo_34
	.section	.trap_info_str,"MS",@progbits
.Ltrap_info_str35:
.asciiz"/Users/rcalhoun/code/git/sw_usb_audio/lib_mic_array/lib_mic_array/src/decimator_interface.xc:145:17: error: out of bounds array access\n         schkct(c_from_decimator[i], 8);\n                ^~~~~~~~~~~~~~~~~~~\n/Applications/XMOS_XTC_15.1.4/target/include/xs1.h:1290:64: note: expanded from macro 'schkct'\n#define schkct(c, val)                        __builtin_schkct(c, val)\n                                                               ^\n"
	.section	.trap_info,"",@progbits
.cc_top cc_trapinfo_35,.Ltrap_info35
	.long	.Ltrap_info35
	.long	.Ltrap_info_str35
.cc_bottom cc_trapinfo_35
	.section	.trap_info_str,"MS",@progbits
.Ltrap_info_str36:
.asciiz"/Users/rcalhoun/code/git/sw_usb_audio/lib_mic_array/lib_mic_array/src/decimator_interface.xc:139:71: error: out of bounds array access\n                c_from_decimator[i] <: (mic_array_complex_t * unsafe)(f_fft_preprocessed[f].data[i*2]);\n                                                                      ^~~~~~~~~~~~~~~~~~~~~\n"
	.section	.trap_info,"",@progbits
.cc_top cc_trapinfo_36,.Ltrap_info36
	.long	.Ltrap_info36
	.long	.Ltrap_info_str36
.cc_bottom cc_trapinfo_36
	.section	.trap_info_str,"MS",@progbits
.Ltrap_info_str37:
.asciiz"/Users/rcalhoun/code/git/sw_usb_audio/lib_mic_array/lib_mic_array/src/decimator_interface.xc:139:17: error: out of bounds array access\n                c_from_decimator[i] <: (mic_array_complex_t * unsafe)(f_fft_preprocessed[f].data[i*2]);\n                ^~~~~~~~~~~~~~~~~~~\n"
	.section	.trap_info,"",@progbits
.cc_top cc_trapinfo_37,.Ltrap_info37
	.long	.Ltrap_info37
	.long	.Ltrap_info_str37
.cc_bottom cc_trapinfo_37
	.section	.trap_info_str,"MS",@progbits
.Ltrap_info_str38:
.asciiz"/Users/rcalhoun/code/git/sw_usb_audio/lib_mic_array/lib_mic_array/src/decimator_interface.xc:166:17: error: out of bounds array access\n         schkct(c_from_decimator[i], 8);\n                ^~~~~~~~~~~~~~~~~~~\n/Applications/XMOS_XTC_15.1.4/target/include/xs1.h:1290:64: note: expanded from macro 'schkct'\n#define schkct(c, val)                        __builtin_schkct(c, val)\n                                                               ^\n"
	.section	.trap_info,"",@progbits
.cc_top cc_trapinfo_38,.Ltrap_info38
	.long	.Ltrap_info38
	.long	.Ltrap_info_str38
.cc_bottom cc_trapinfo_38
	.section	.trap_info_str,"MS",@progbits
.Ltrap_info_str39:
.asciiz"/Users/rcalhoun/code/git/sw_usb_audio/lib_mic_array/lib_mic_array/src/decimator_interface.xc:169:17: error: out of bounds array access\n         soutct(c_from_decimator[i], EXCHANGE_BUFFERS);\n                ^~~~~~~~~~~~~~~~~~~\n/Applications/XMOS_XTC_15.1.4/target/include/xs1.h:1274:64: note: expanded from macro 'soutct'\n#define soutct(c, val)                        __builtin_soutct(c, val)\n                                                               ^\n"
	.section	.trap_info,"",@progbits
.cc_top cc_trapinfo_39,.Ltrap_info39
	.long	.Ltrap_info39
	.long	.Ltrap_info_str39
.cc_bottom cc_trapinfo_39
	.section	.trap_info_str,"MS",@progbits
.Ltrap_info_str40:
.asciiz"/Users/rcalhoun/code/git/sw_usb_audio/lib_mic_array/lib_mic_array/src/decimator_interface.xc:172:13: error: out of bounds array access\n            c_from_decimator[i] <: (mic_array_complex_t * unsafe)(f_fft_preprocessed[buffer].data[i*2]);\n            ^~~~~~~~~~~~~~~~~~~\n"
	.section	.trap_info,"",@progbits
.cc_top cc_trapinfo_40,.Ltrap_info40
	.long	.Ltrap_info40
	.long	.Ltrap_info_str40
.cc_bottom cc_trapinfo_40
	.section	.trap_info_str,"MS",@progbits
.Ltrap_info_str41:
.asciiz"/Users/rcalhoun/code/git/sw_usb_audio/lib_mic_array/lib_mic_array/src/decimator_interface.xc:172:67: error: out of bounds array or pointer access\n            c_from_decimator[i] <: (mic_array_complex_t * unsafe)(f_fft_preprocessed[buffer].data[i*2]);\n                                                                  ^~~~~~~~~~~~~~~~~~~~~~~~~~\n"
	.section	.trap_info,"",@progbits
.cc_top cc_trapinfo_41,.Ltrap_info41
	.long	.Ltrap_info41
	.long	.Ltrap_info_str41
.cc_bottom cc_trapinfo_41
	.section	.trap_info_str,"MS",@progbits
.Ltrap_info_str42:
.asciiz"/Users/rcalhoun/code/git/sw_usb_audio/lib_mic_array/lib_mic_array/src/decimator_interface.xc:172:66: error: out of bounds array access\n            c_from_decimator[i] <: (mic_array_complex_t * unsafe)(f_fft_preprocessed[buffer].data[i*2]);\n                                                                 ^~~~~~~~~~~~~~~~~~~~~~~~~~~~~~~~~~~~~~\n"
	.section	.trap_info,"",@progbits
.cc_top cc_trapinfo_42,.Ltrap_info42
	.long	.Ltrap_info42
	.long	.Ltrap_info_str42
.cc_bottom cc_trapinfo_42
	.section	.trap_info_str,"MS",@progbits
.Ltrap_info_str43:
.asciiz"/Users/rcalhoun/code/git/sw_usb_audio/lib_mic_array/lib_mic_array/src/decimator_interface.xc:174:13: error: out of bounds array access\n            c_from_decimator[i] <: (mic_array_metadata_t * unsafe)&f_fft_preprocessed[buffer].metadata[i];\n            ^~~~~~~~~~~~~~~~~~~\n"
	.section	.trap_info,"",@progbits
.cc_top cc_trapinfo_43,.Ltrap_info43
	.long	.Ltrap_info43
	.long	.Ltrap_info_str43
.cc_bottom cc_trapinfo_43
	.section	.trap_info_str,"MS",@progbits
.Ltrap_info_str44:
.asciiz"/Users/rcalhoun/code/git/sw_usb_audio/lib_mic_array/lib_mic_array/src/decimator_interface.xc:178:17: error: out of bounds array access\n         schkct(c_from_decimator[i], 8);\n                ^~~~~~~~~~~~~~~~~~~\n/Applications/XMOS_XTC_15.1.4/target/include/xs1.h:1290:64: note: expanded from macro 'schkct'\n#define schkct(c, val)                        __builtin_schkct(c, val)\n                                                               ^\n"
	.section	.trap_info,"",@progbits
.cc_top cc_trapinfo_44,.Ltrap_info44
	.long	.Ltrap_info44
	.long	.Ltrap_info_str44
.cc_bottom cc_trapinfo_44
	.section	.trap_info_str,"MS",@progbits
.Ltrap_info_str45:
.asciiz"/Users/rcalhoun/code/git/sw_usb_audio/lib_mic_array/lib_mic_array/src/decimator_interface.xc:184:27: error: out of bounds array access\n         buffering_type = dc[0].dcc->buffering_type;\n                          ^~~~~\n"
	.section	.trap_info,"",@progbits
.cc_top cc_trapinfo_45,.Ltrap_info45
	.long	.Ltrap_info45
	.long	.Ltrap_info_str45
.cc_bottom cc_trapinfo_45
	.section	.trap_info_str,"MS",@progbits
.Ltrap_info_str46:
.asciiz"/Users/rcalhoun/code/git/sw_usb_audio/lib_mic_array/lib_mic_array/src/decimator_interface.xc:209:16: error: out of bounds array access\n        schkct(c_from_decimator[i], 8);\n               ^~~~~~~~~~~~~~~~~~~\n/Applications/XMOS_XTC_15.1.4/target/include/xs1.h:1290:64: note: expanded from macro 'schkct'\n#define schkct(c, val)                        __builtin_schkct(c, val)\n                                                               ^\n"
	.section	.trap_info,"",@progbits
.cc_top cc_trapinfo_46,.Ltrap_info46
	.long	.Ltrap_info46
	.long	.Ltrap_info_str46
.cc_bottom cc_trapinfo_46
	.section	.trap_info_str,"MS",@progbits
.Ltrap_info_str47:
.asciiz"/Users/rcalhoun/code/git/sw_usb_audio/lib_mic_array/lib_mic_array/src/decimator_interface.xc:212:17: error: out of bounds array access\n         soutct(c_from_decimator[i], CONFIGURE_DECIMATOR);\n                ^~~~~~~~~~~~~~~~~~~\n/Applications/XMOS_XTC_15.1.4/target/include/xs1.h:1274:64: note: expanded from macro 'soutct'\n#define soutct(c, val)                        __builtin_soutct(c, val)\n                                                               ^\n"
	.section	.trap_info,"",@progbits
.cc_top cc_trapinfo_47,.Ltrap_info47
	.long	.Ltrap_info47
	.long	.Ltrap_info_str47
.cc_bottom cc_trapinfo_47
	.section	.trap_info_str,"MS",@progbits
.Ltrap_info_str48:
.asciiz"/Users/rcalhoun/code/git/sw_usb_audio/lib_mic_array/lib_mic_array/src/decimator_interface.xc:216:14: error: out of bounds array access\n             c_from_decimator[i] <: (mic_array_decimator_config_t * unsafe)&dc[i];\n             ^~~~~~~~~~~~~~~~~~~\n"
	.section	.trap_info,"",@progbits
.cc_top cc_trapinfo_48,.Ltrap_info48
	.long	.Ltrap_info48
	.long	.Ltrap_info_str48
.cc_bottom cc_trapinfo_48
	.section	.trap_info_str,"MS",@progbits
.Ltrap_info_str49:
.asciiz"/Users/rcalhoun/code/git/sw_usb_audio/lib_mic_array/lib_mic_array/src/decimator_interface.xc:209:16: error: out of bounds array access\n        schkct(c_from_decimator[i], 8);\n               ^~~~~~~~~~~~~~~~~~~\n/Applications/XMOS_XTC_15.1.4/target/include/xs1.h:1290:64: note: expanded from macro 'schkct'\n#define schkct(c, val)                        __builtin_schkct(c, val)\n                                                               ^\n"
	.section	.trap_info,"",@progbits
.cc_top cc_trapinfo_49,.Ltrap_info49
	.long	.Ltrap_info49
	.long	.Ltrap_info_str49
.cc_bottom cc_trapinfo_49
	.section	.trap_info_str,"MS",@progbits
.Ltrap_info_str50:
.asciiz"/Users/rcalhoun/code/git/sw_usb_audio/lib_mic_array/lib_mic_array/src/decimator_interface.xc:212:17: error: out of bounds array access\n         soutct(c_from_decimator[i], CONFIGURE_DECIMATOR);\n                ^~~~~~~~~~~~~~~~~~~\n/Applications/XMOS_XTC_15.1.4/target/include/xs1.h:1274:64: note: expanded from macro 'soutct'\n#define soutct(c, val)                        __builtin_soutct(c, val)\n                                                               ^\n"
	.section	.trap_info,"",@progbits
.cc_top cc_trapinfo_50,.Ltrap_info50
	.long	.Ltrap_info50
	.long	.Ltrap_info_str50
.cc_bottom cc_trapinfo_50
	.section	.trap_info_str,"MS",@progbits
.Ltrap_info_str51:
.asciiz"/Users/rcalhoun/code/git/sw_usb_audio/lib_mic_array/lib_mic_array/src/decimator_interface.xc:216:14: error: out of bounds array access\n             c_from_decimator[i] <: (mic_array_decimator_config_t * unsafe)&dc[i];\n             ^~~~~~~~~~~~~~~~~~~\n"
	.section	.trap_info,"",@progbits
.cc_top cc_trapinfo_51,.Ltrap_info51
	.long	.Ltrap_info51
	.long	.Ltrap_info_str51
.cc_bottom cc_trapinfo_51
.Ltrap_info_entries_end0: