	.text
	.file	"endpoint0.c"
	.section	.cp.rodata.cst4,"aMc",@progbits,4
	.cc_top .LCPI0_0.data,.LCPI0_0
	.align	4
	.type	.LCPI0_0,@object
	.size	.LCPI0_0, 4
.LCPI0_0:
	.long	305419896
	.cc_bottom .LCPI0_0.data
	.cc_top .LCPI0_1.data,.LCPI0_1
	.align	4
	.type	.LCPI0_1,@object
	.size	.LCPI0_1, 4
.LCPI0_1:
	.long	50000000
	.cc_bottom .LCPI0_1.data
	.cc_top .LCPI0_2.data,.LCPI0_2
	.align	4
	.type	.LCPI0_2,@object
	.size	.LCPI0_2, 4
.LCPI0_2:
	.long	5000000
	.cc_bottom .LCPI0_2.data
	.text
	.globl	Endpoint0
	.align	4
	.type	Endpoint0,@function
	.cc_top Endpoint0.function,Endpoint0
Endpoint0:
.Lfunc_begin0:
	.loc	6 208 0
	.cfi_startproc
	.issue_mode dual
	{
		nop
		dualentsp 38
	}
.Ltmp0:
	.cfi_def_cfa_offset 152
.Ltmp1:
	.cfi_offset 15, 0
	{
		nop
		stw r4, sp[30]
	}
	{
		nop
		stw r5, sp[31]
	}
.Ltmp2:
	.cfi_offset 4, -32
.Ltmp3:
	.cfi_offset 5, -28
	{
		nop
		stw r6, sp[32]
	}
	{
		nop
		stw r7, sp[33]
	}
.Ltmp4:
	.cfi_offset 6, -24
.Ltmp5:
	.cfi_offset 7, -20
	{
		nop
		stw r8, sp[34]
	}
	{
		nop
		stw r9, sp[35]
	}
.Ltmp6:
	.cfi_offset 8, -16
.Ltmp7:
	.cfi_offset 9, -12
	{
		nop
		stw r10, sp[36]
	}
.Ltmp8:
	.cfi_offset 10, -8
.Ltmp9:
	{
		mov r5, r2
		stw r3, sp[20]
	}
.Ltmp10:
	{
		mov r4, r1
		ldw r1, sp[40]
	}
.Ltmp11:
	{
		nop
		ldw r2, sp[41]
	}
	{
		nop
		stw r2, sp[19]
	}
	.loc	6 210 22 prologue_end
.Ltmp12:
	bl XUD_InitEp
.Ltmp13:
	{
		mov r6, r0
		nop
	}
.Ltmp14:
	.loc	6 211 22
	{
		mov r0, r4
		stw r6, sp[23]
	}
.Ltmp15:
	bl XUD_InitEp
	{
		mov r10, r0
		nop
	}
.Ltmp16:
	.loc	6 211 22
	{
		ldc r7, 0
		stw r10, sp[26]
	}
	.loc	6 216 9
.Ltmp17:
	stw r7, dp[volsOut+8]
	stw r7, dp[volsOut+4]
	stw r7, dp[volsOut]
	.loc	6 217 9
	stw r7, dp[mutesOut+8]
	stw r7, dp[mutesOut+4]
	stw r7, dp[mutesOut]
.Ltmp18:
	.loc	6 222 9
	ldaw r0, dp[volsIn]
	{
		ldc r4, 36
		mov r1, r7
	}
	{
		mov r2, r4
		nop
	}
	bl memset
	.loc	6 223 9
	ldaw r0, dp[mutesIn]
	{
		mov r1, r7
		mov r2, r4
	}
	bl memset
.Ltmp19:
	.loc	6 286 9
	{
		mov r0, r7
		nop
	}
	bl DFUReportResetState
	bf r0, .LBB0_2
.Ltmp20:
	{
		ldc r0, 4
		nop
	}
	.loc	6 289 9
.Ltmp21:
	#APP
	out res[r5], r0
	#NO_APP
	ldw r0, cp[.LCPI0_0]
	.loc	6 290 9
	#APP
	out res[r5], r0
	#NO_APP
	{
		mkmsk r0, 1
		nop
	}
	.loc	6 292 9
	stw r0, dp[DFU_mode_active]
.Ltmp22:
.LBB0_2:
	{
		ldaw r8, sp[27]
		stw r5, sp[21]
	}
	{
		ldc r0, 2
		nop
	}
	.loc	6 306 13
.Ltmp23:
	{
		or r0, r8, r0
		nop
	}
	{
		nop
		stw r0, sp[24]
	}
	ldaw r0, dp[cfgDesc_Audio2+312]
	{
		add r0, r0, 2
		nop
	}
	{
		mkmsk r4, 32
		stw r0, sp[22]
	}
	{
		mov r5, r7
		nop
	}
	bu .LBB0_3
.Ltmp24:
.LBB0_71:
	{
		nop
		ldw r10, sp[26]
	}
.Ltmp25:
.LBB0_3:
	.loc	6 299 31
	{
		mov r0, r6
		mov r1, r10
	}
	{
		mov r2, r8
		nop
	}
	bl USB_GetSetupPacket
	{
		mov r10, r0
		nop
	}
.Ltmp26:
	bt r10, .LBB0_20
.Ltmp27:
	{
		nop
		ldw r0, sp[24]
	}
	{
		nop
		ld8u r0, r0[r5]
	}
	.loc	6 306 13
.Ltmp28:
	{
		shl r0, r0, 7
		ldw r2, sp[27]
	}
	.loc	6 306 13
	{
		mov r1, r2
		nop
	}
	{
		zext r1, 8
		nop
	}
	.loc	6 306 13
	{
		or r0, r0, r1
		shr r1, r2, 3
	}
	ldc r3, 8160
	.loc	6 306 13
	{
		and r1, r1, r3
		nop
	}
	.loc	6 306 13
	{
		or r1, r0, r1
		shr r0, r2, 24
	}
	ldc r2, 160
	.loc	6 306 13
	{
		lss r2, r2, r1
		nop
	}
	bt r2, .LBB0_21
.Ltmp29:
	bf r1, .LBB0_52
.Ltmp30:
	{
		eq r2, r1, 1
		nop
	}
	bf r2, .LBB0_7
.Ltmp31:
	.loc	6 311 24
	{
		eq r0, r0, 11
		nop
	}
	bf r0, .LBB0_54
.Ltmp32:
	.loc	6 313 25
	{
		add r0, r8, 6
		nop
	}
	{
		nop
		ld16s r0, r0[r5]
	}
	.loc	6 313 25
	{
		zext r0, 16
		nop
	}
	.loc	6 313 25
	{
		eq r1, r0, 2
		nop
	}
	bf r1, .LBB0_24
.Ltmp33:
	{
		nop
		ldw r1, sp[28]
	}
	ldw r2, dp[g_curStreamAlt_In]
	{
		shr r0, r1, 16
		zext r1, 16
	}
	.loc	6 354 36
.Ltmp34:
	{
		eq r3, r1, 1
		nop
	}
	bf r3, .LBB0_37
.Ltmp35:
	{
		eq r2, r2, r1
		nop
	}
	bt r2, .LBB0_37
.Ltmp36:
	.loc	6 360 41
	stw r1, dp[g_curStreamAlt_In]
.Ltmp37:
	{
		ldc r2, 9
		ldw r3, sp[21]
	}
.Ltmp38:
	.loc	6 363 41
	#APP
	out res[r3], r2
	#NO_APP
	.loc	6 364 41
	{
		sub r1, r1, 1
		nop
	}
	.loc	6 364 41
	ldaw r11, cp[g_dataFormat_In]
	{
		nop
		ldw r2, r11[r1]
	}
	.loc	6 364 41
	#APP
	out res[r3], r2
	#NO_APP
	.loc	6 366 44
.Ltmp39:
	ldw r2, dp[g_curUsbSpeed]
	.loc	6 366 44
	{
		eq r2, r2, 2
		nop
	}
	bf r2, .LBB0_35
.Ltmp40:
	.loc	6 368 45
	ldaw r11, cp[g_chanCount_In_HS]
	{
		nop
		ldw r2, r11[r1]
	}
	.loc	6 368 45
	#APP
	out res[r3], r2
	#NO_APP
	.loc	6 369 45
	ldaw r11, cp[g_subSlot_In_HS]
	{
		nop
		ldw r1, r11[r1]
	}
	.loc	6 369 45
	#APP
	out res[r3], r1
	#NO_APP
	{
		ldc r1, 24
		nop
	}
	.loc	6 370 45
	#APP
	out res[r3], r1
	#NO_APP
	bu .LBB0_36
.Ltmp41:
.LBB0_21:
	ldc r2, 161
	bu .LBB0_8
.Ltmp42:
.LBB0_52:
	.loc	6 500 21
	{
		eq r0, r0, 9
		nop
	}
	bf r0, .LBB0_54
.Ltmp43:
	{
		mkmsk r0, 1
		nop
	}
	.loc	6 509 33
.Ltmp44:
	bl UserHostActive
	bu .LBB0_54
.Ltmp45:
.LBB0_7:
	{
		ldc r2, 33
		nop
	}
.Ltmp46:
.LBB0_8:
	{
		eq r1, r1, r2
		nop
	}
	bf r1, .LBB0_54
.Ltmp47:
	{
		mov r7, r4
		add r1, r8, 6
	}
	{
		nop
		ld16s r4, r1[r5]
	}
	.loc	6 546 25
.Ltmp48:
	{
		mov r9, r4
		nop
	}
	{
		zext r9, 8
		nop
	}
.Ltmp49:
	.loc	6 554 29
	ldw r1, dp[DFU_mode_active]
	.loc	6 554 29
	{
		mov r2, r5
		nop
	}
	bt r1, .LBB0_11
.Ltmp50:
	{
		mkmsk r2, 2
		nop
	}
.Ltmp51:
.LBB0_11:
	.loc	6 546 25
	{
		zext r4, 16
		eq r2, r9, r2
	}
.Ltmp52:
	{
		mkmsk r10, 1
		nop
	}
	bf r2, .LBB0_17
.Ltmp53:
	.loc	6 561 29
	{
		add r0, r0, 11
		stw r5, sp[25]
	}
	bt r1, .LBB0_15
.Ltmp54:
	{
		zext r0, 8
		ldc r1, 2
	}
	{
		lsu r0, r0, r1
		nop
	}
	bt r0, .LBB0_15
.Ltmp55:
	{
		ldc r1, 4
		ldw r0, sp[21]
	}
.Ltmp56:
	.loc	6 569 33
	#APP
	out res[r0], r1
	#NO_APP
	ldw r1, cp[.LCPI0_0]
	.loc	6 570 33
	#APP
	out res[r0], r1
	#NO_APP
	{
		mkmsk r1, 1
		nop
	}
	.loc	6 572 12
	#APP
	chkct res[r0], r1
	#NO_APP
.Ltmp57:
.LBB0_15:
	ldaw r0, dp[g_interfaceAlt]
	{
		nop
		ld8u r0, r0[r4]
	}
.Ltmp58:
	.loc	6 576 38
	{
		ldaw r2, sp[25]
		ldw r1, sp[19]
	}
	std r2, r1, sp[1]
.Ltmp59:
	{
		mov r0, r6
		stw r0, sp[1]
	}
	{
		ldaw r1, sp[26]
		mov r2, r8
	}
	{
		mov r3, r5
		nop
	}
	bl DFUDeviceRequests
.Ltmp60:
	{
		mov r10, r0
		ldw r0, sp[25]
	}
.Ltmp61:
	bf r0, .LBB0_17
.Ltmp62:
	ldw r0, cp[.LCPI0_1]
	.loc	6 580 33
.Ltmp63:
	bl DFUDelay
	{
		nop
		ldw r0, sp[21]
	}
	.loc	6 581 33
	bl device_reboot
.Ltmp64:
.LBB0_17:
	ldc r0, 254
	.loc	6 589 28
.Ltmp65:
	{
		and r0, r4, r0
		nop
	}
	.loc	6 589 28
	{
		eq r0, r0, 0
		nop
	}
	{
		eq r0, r0, 0
		eq r1, r9, 2
	}
	.loc	6 589 28
	{
		eq r1, r1, 0
		nop
	}
	.loc	6 589 28
	{
		and r1, r1, r0
		nop
	}
	ldw r0, dp[DFU_mode_active]
	{
		mov r4, r7
		nop
	}
	bt r1, .LBB0_20
.Ltmp66:
	bt r0, .LBB0_20
.Ltmp67:
	{
		nop
		ldw r1, sp[26]
	}
	{
		nop
		ldw r0, sp[39]
	}
	{
		nop
		stw r0, sp[2]
	}
	{
		nop
		ldw r0, sp[20]
	}
	.loc	6 605 38
.Ltmp68:
	{
		mov r0, r6
		stw r0, sp[1]
	}
	{
		mov r2, r8
		ldw r3, sp[21]
	}
	bl AudioClassRequests_2
	{
		mov r10, r0
		nop
	}
.Ltmp69:
.LBB0_20:
	.loc	6 631 12
	{
		eq r0, r10, 1
		nop
	}
	bt r0, .LBB0_54
	bu .LBB0_67
.Ltmp70:
.LBB0_24:
	{
		eq r1, r0, 1
		nop
	}
	bf r1, .LBB0_37
.Ltmp71:
	{
		nop
		ldw r0, sp[28]
	}
	.loc	6 319 36
.Ltmp72:
	{
		mov r1, r0
		nop
	}
	{
		zext r1, 16
		sub r2, r0, 1
	}
	.loc	6 319 36
	{
		zext r2, 16
		mkmsk r3, 1
	}
	.loc	6 319 36
	{
		lsu r3, r3, r2
		nop
	}
	ldw r2, dp[g_curStreamAlt_Out]
	{
		shr r0, r0, 16
		nop
	}
	bt r3, .LBB0_37
.Ltmp73:
	{
		eq r2, r2, r1
		nop
	}
	bt r2, .LBB0_37
.Ltmp74:
	.loc	6 325 41
	stw r1, dp[g_curStreamAlt_Out]
.Ltmp75:
	{
		ldc r2, 8
		ldw r3, sp[21]
	}
.Ltmp76:
	.loc	6 328 41
	#APP
	out res[r3], r2
	#NO_APP
	.loc	6 329 41
	{
		sub r1, r1, 1
		nop
	}
	.loc	6 329 41
	ldaw r11, cp[g_dataFormat_Out]
	{
		nop
		ldw r2, r11[r1]
	}
	.loc	6 329 41
	#APP
	out res[r3], r2
	#NO_APP
	.loc	6 331 44
.Ltmp77:
	ldw r2, dp[g_curUsbSpeed]
	{
		ldc r11, 2
		nop
	}
	.loc	6 333 45
.Ltmp78:
	#APP
	out res[r3], r11
	#NO_APP
.Ltmp79:
	.loc	6 331 44
	{
		eq r2, r2, 2
		nop
	}
	bf r2, .LBB0_29
.Ltmp80:
	.loc	6 334 45
	ldaw r11, cp[g_subSlot_Out_HS]
	{
		nop
		ldw r2, r11[r1]
	}
	.loc	6 334 45
	#APP
	out res[r3], r2
	#NO_APP
	.loc	6 335 45
	ldaw r11, cp[g_sampRes_Out_HS]
	{
		nop
		ldw r1, r11[r1]
	}
	.loc	6 335 45
	#APP
	out res[r3], r1
	#NO_APP
	bu .LBB0_30
.Ltmp81:
.LBB0_35:
	{
		ldc r2, 2
		nop
	}
	.loc	6 374 45
.Ltmp82:
	#APP
	out res[r3], r2
	#NO_APP
	.loc	6 375 45
	ldaw r11, cp[g_subSlot_In_FS]
	{
		nop
		ldw r1, r11[r1]
	}
	.loc	6 375 45
	#APP
	out res[r3], r1
	#NO_APP
	{
		ldc r1, 24
		nop
	}
	.loc	6 376 45
	#APP
	out res[r3], r1
	#NO_APP
.Ltmp83:
.LBB0_36:
	{
		mkmsk r1, 1
		nop
	}
	.loc	6 380 41
	#APP
	chkct res[r3], r1
	#NO_APP
.Ltmp84:
	bu .LBB0_37
.Ltmp85:
.LBB0_29:
	.loc	6 340 45
	ldaw r11, cp[g_subSlot_Out_FS]
	{
		nop
		ldw r2, r11[r1]
	}
	.loc	6 340 45
	#APP
	out res[r3], r2
	#NO_APP
	.loc	6 341 45
	ldaw r11, cp[g_sampRes_Out_FS]
	{
		nop
		ldw r1, r11[r1]
	}
	.loc	6 341 45
	#APP
	out res[r3], r1
	#NO_APP
.Ltmp86:
.LBB0_30:
	{
		mkmsk r1, 1
		nop
	}
	.loc	6 345 41
	#APP
	chkct res[r3], r1
	#NO_APP
.Ltmp87:
.LBB0_37:
	.loc	6 410 29
	{
		sub r0, r0, 1
		nop
	}
	{
		zext r0, 16
		mkmsk r1, 1
	}
	.loc	6 410 29
	{
		lsu r0, r1, r0
		nop
	}
	bt r0, .LBB0_54
.Ltmp88:
	{
		nop
		ldw r0, sp[28]
	}
	{
		shr r1, r0, 16
		zext r0, 16
	}
	.loc	6 413 32
.Ltmp89:
	bf r0, .LBB0_42
.Ltmp90:
	{
		mkmsk r0, 1
		nop
	}
	ldaw r1, dp[g_interfaceAlt]
	{
		nop
		ld8u r0, r1[r0]
	}
	bt r0, .LBB0_54
.Ltmp91:
	ldaw r0, dp[g_interfaceAlt]
	{
		ldc r1, 2
		nop
	}
	{
		nop
		ld8u r0, r0[r1]
	}
	bt r0, .LBB0_54
.Ltmp92:
	.loc	6 416 33
	bl UserAudioStreamStart
	bu .LBB0_54
.Ltmp93:
.LBB0_42:
	.loc	6 418 37
	{
		eq r2, r1, 1
		nop
	}
	bf r2, .LBB0_47
.Ltmp94:
	bt r0, .LBB0_47
.Ltmp95:
	{
		mkmsk r2, 1
		nop
	}
	ldaw r3, dp[g_interfaceAlt]
	{
		nop
		ld8u r2, r3[r2]
	}
	bf r2, .LBB0_47
.Ltmp96:
	ldaw r2, dp[g_interfaceAlt]
	{
		ldc r3, 2
		nop
	}
	{
		nop
		ld8u r2, r2[r3]
	}
	bf r2, .LBB0_46
.Ltmp97:
.LBB0_47:
	.loc	6 423 37
	{
		eq r1, r1, 2
		nop
	}
	bf r1, .LBB0_54
.Ltmp98:
	bt r0, .LBB0_54
.Ltmp99:
	ldaw r0, dp[g_interfaceAlt]
	{
		ldc r1, 2
		nop
	}
	{
		nop
		ld8u r0, r0[r1]
	}
	bf r0, .LBB0_54
.Ltmp100:
	{
		mkmsk r0, 1
		nop
	}
	ldaw r1, dp[g_interfaceAlt]
	{
		nop
		ld8u r0, r1[r0]
	}
	bt r0, .LBB0_54
.Ltmp101:
	.loc	6 426 33
	bl UserAudioStreamStop
	bu .LBB0_54
.Ltmp102:
.LBB0_46:
	.loc	6 421 33
	bl UserAudioStreamStop
.Ltmp103:
.LBB0_54:
	.loc	6 634 17
	ldw r0, dp[DFU_mode_active]
	.loc	6 634 17
	bf r0, .LBB0_55
.Ltmp104:
	{
		nop
		ldw r1, sp[26]
	}
	.loc	6 749 26
.Ltmp105:
	ldw r0, dp[g_curUsbSpeed]
	{
		ldc r2, 22
		nop
	}
	.loc	6 749 26
	std r8, r2, sp[4]
.Ltmp106:
	.loc	6 717 26
	ldaw r2, dp[g_strTable]
.Ltmp107:
	.loc	6 749 26
	std r2, r5, sp[3]
	{
		ldc r2, 27
		nop
	}
	std r5, r2, sp[1]
	{
		nop
		stw r0, sp[10]
	}
	std r5, r5, sp[2]
	ldaw r0, dp[DFUcfgDesc]
	{
		mov r0, r6
		stw r0, sp[1]
	}
	ldaw r2, dp[DFUdevDesc]
	{
		ldc r3, 18
		nop
	}
	bl USB_StandardRequests
	{
		mov r10, r0
		nop
	}
.Ltmp108:
	bu .LBB0_67
.Ltmp109:
.LBB0_55:
	.loc	6 650 20
	ldw r0, dp[g_curUsbSpeed]
	.loc	6 650 20
	{
		eq r2, r0, 2
		mkmsk r1, 2
	}
	{
		ldc r3, 2
		nop
	}
	ldaw r11, dp[cfgDesc_Audio2+56]
	.loc	6 654 21
.Ltmp110:
	st8 r3, r11[r1]
	{
		ldc r1, 4
		nop
	}
	bt r2, .LBB0_57
.Ltmp111:
	{
		mkmsk r1, 2
		nop
	}
.Ltmp112:
.LBB0_57:
	{
		ldc r3, 56
		nop
	}
	bt r2, .LBB0_59
.Ltmp113:
	ldc r3, 276
.Ltmp114:
.LBB0_59:
	{
		ldc r11, 28
		nop
	}
	bt r2, .LBB0_61
.Ltmp115:
	ldc r11, 184
.Ltmp116:
.LBB0_61:
	{
		ldc r4, 8
		nop
	}
	bt r2, .LBB0_63
.Ltmp117:
	{
		ldc r4, 2
		nop
	}
.Ltmp118:
.LBB0_63:
	ldc r9, 224
	bt r2, .LBB0_65
.Ltmp119:
	ldc r9, 276
.Ltmp120:
.LBB0_65:
	{
		mkmsk r2, 2
		nop
	}
	{
		mov r8, r2
		nop
	}
	ldaw r2, dp[cfgDesc_Audio2+204]
	.loc	6 689 21
.Ltmp121:
	st8 r1, r2[r8]
	{
		ldc r2, 24
		nop
	}
	{
		mov r10, r2
		nop
	}
	ldaw r2, dp[cfgDesc_Audio2+208]
.Ltmp122:
	.loc	6 657 21
	st8 r10, r2[r5]
.Ltmp123:
	.loc	6 691 21
	{
		shr r2, r3, 8
		ldc r6, 2
	}
	ldaw r7, dp[cfgDesc_Audio2+212]
	st8 r2, r7[r6]
	{
		mkmsk r2, 1
		nop
	}
	st8 r3, r7[r2]
	ldaw r3, dp[cfgDesc_Audio2+196]
.Ltmp124:
	.loc	6 659 21
	st8 r6, r3[r2]
	ldaw r3, dp[cfgDesc_Audio2+252]
.Ltmp125:
	.loc	6 695 21
	st8 r6, r3[r2]
	{
		ldc r7, 16
		nop
	}
.Ltmp126:
	.loc	6 663 21
	st8 r7, r3[r6]
	{
		ldc r3, 4
		nop
	}
	ldaw r7, dp[cfgDesc_Audio2+256]
.Ltmp127:
	.loc	6 697 21
	st8 r5, r7[r3]
	st8 r11, r7[r8]
	ldaw r3, dp[cfgDesc_Audio2+240]
.Ltmp128:
	.loc	6 665 21
	st8 r6, r3[r8]
	ldaw r3, dp[cfgDesc_Audio2+104]
.Ltmp129:
	.loc	6 709 21
	st8 r4, r3[r6]
	ldaw r3, dp[cfgDesc_Audio2+308]
.Ltmp130:
	.loc	6 677 21
	st8 r1, r3[r5]
.Ltmp131:
	.loc	6 711 21
	st8 r10, r3[r2]
	{
		nop
		ldw r1, sp[22]
	}
.Ltmp132:
	.loc	6 679 21
	st16 r9, r1[r5]
	ldaw r1, dp[cfgDesc_Audio2+296]
.Ltmp133:
	.loc	6 713 21
	st8 r4, r1[r6]
.Ltmp134:
	.loc	6 717 26
	{
		ldaw r8, sp[27]
		ldw r1, sp[26]
	}
.Ltmp135:
	{
		ldc r2, 22
		nop
	}
	.loc	6 717 26
	std r8, r2, sp[4]
	ldaw r2, dp[g_strTable]
	std r2, r5, sp[3]
	ldc r2, 343
	std r5, r2, sp[1]
	{
		nop
		stw r0, sp[10]
	}
	std r5, r5, sp[2]
	.loc	6 654 21
.Ltmp136:
	ldaw r0, dp[cfgDesc_Audio2]
	{
		nop
		stw r0, sp[1]
	}
	{
		nop
		ldw r6, sp[23]
	}
.Ltmp137:
	.loc	6 717 26
	{
		mov r0, r6
		nop
	}
	ldaw r2, dp[devDesc_Audio2]
	{
		ldc r3, 18
		nop
	}
	bl USB_StandardRequests
.Ltmp138:
	{
		mov r10, r0
		mkmsk r4, 32
	}
.Ltmp139:
.LBB0_67:
	.loc	6 759 13
	{
		eq r0, r10, r4
		nop
	}
	bf r0, .LBB0_71
.Ltmp140:
	.loc	6 764 29
	{
		mov r0, r6
		ldaw r1, sp[26]
	}
	bl XUD_ResetEndpoint
	.loc	6 764 29
	stw r0, dp[g_curUsbSpeed]
	.loc	6 766 13
	ldaw r0, dp[g_currentConfig]
	st8 r5, r0[r5]
	.loc	6 767 13
	stw r5, dp[g_curStreamAlt_Out]
	.loc	6 768 13
	stw r5, dp[g_curStreamAlt_In]
	.loc	6 771 17
.Ltmp141:
	{
		mov r0, r5
		nop
	}
	bl DFUReportResetState
	.loc	6 773 21
.Ltmp142:
	ldw r1, dp[DFU_mode_active]
.Ltmp143:
	.loc	6 771 17
	bf r0, .LBB0_72
.Ltmp144:
	bt r1, .LBB0_71
.Ltmp145:
	{
		mkmsk r0, 1
		nop
	}
	.loc	6 775 21
.Ltmp146:
	stw r0, dp[DFU_mode_active]
	bu .LBB0_71
.Ltmp147:
.LBB0_72:
	bf r1, .LBB0_71
.Ltmp148:
	.loc	6 782 21
	stw r5, dp[DFU_mode_active]
	ldw r0, cp[.LCPI0_2]
	.loc	6 785 21
	bl DFUDelay
	{
		nop
		ldw r0, sp[21]
	}
	.loc	6 786 21
	bl device_reboot
	{
		nop
		ldw r10, sp[26]
	}
	bu .LBB0_3
.Ltmp149:
	.cc_bottom Endpoint0.function
	.set	Endpoint0.nstackwords,((XUD_InitEp.nstackwords $M memset.nstackwords $M USB_GetSetupPacket.nstackwords $M UserHostActive.nstackwords $M XUD_ResetEndpoint.nstackwords $M DFUReportResetState.nstackwords $M USB_StandardRequests.nstackwords $M UserAudioStreamStop.nstackwords $M UserAudioStreamStart.nstackwords $M DFUDeviceRequests.nstackwords $M AudioClassRequests_2.nstackwords $M DFUDelay.nstackwords $M device_reboot.nstackwords) + 38)
	.globl	Endpoint0.nstackwords
	.set	Endpoint0.maxcores,AudioClassRequests_2.maxcores $M DFUDelay.maxcores $M DFUDeviceRequests.maxcores $M DFUReportResetState.maxcores $M USB_GetSetupPacket.maxcores $M USB_StandardRequests.maxcores $M UserAudioStreamStart.maxcores $M UserAudioStreamStop.maxcores $M UserHostActive.maxcores $M XUD_InitEp.maxcores $M XUD_ResetEndpoint.maxcores $M device_reboot.maxcores $M 1
	.globl	Endpoint0.maxcores
	.set	Endpoint0.maxtimers,AudioClassRequests_2.maxtimers $M DFUDelay.maxtimers $M DFUDeviceRequests.maxtimers $M DFUReportResetState.maxtimers $M USB_GetSetupPacket.maxtimers $M USB_StandardRequests.maxtimers $M UserAudioStreamStart.maxtimers $M UserAudioStreamStop.maxtimers $M UserHostActive.maxtimers $M XUD_InitEp.maxtimers $M XUD_ResetEndpoint.maxtimers $M device_reboot.maxtimers $M 0
	.globl	Endpoint0.maxtimers
	.set	Endpoint0.maxchanends,AudioClassRequests_2.maxchanends $M DFUDelay.maxchanends $M DFUDeviceRequests.maxchanends $M DFUReportResetState.maxchanends $M USB_GetSetupPacket.maxchanends $M USB_StandardRequests.maxchanends $M UserAudioStreamStart.maxchanends $M UserAudioStreamStop.maxchanends $M UserHostActive.maxchanends $M XUD_InitEp.maxchanends $M XUD_ResetEndpoint.maxchanends $M device_reboot.maxchanends $M 0
	.globl	Endpoint0.maxchanends
.Ltmp150:
	.size	Endpoint0, .Ltmp150-Endpoint0
.Lfunc_end0:
	.cfi_endproc

	.section	.cp.rodata.string,"aMSc",@progbits
	.cc_top .L.str.data,.L.str
	.align	4
	.type	.L.str,@object
	.size	.L.str, 3
.L.str:
.asciiz"\t\004"
	.space	1
	.cc_bottom .L.str.data
	.cc_top .L.str1.data,.L.str1
	.align	4
	.type	.L.str1,@object
	.size	.L.str1, 5
.L.str1:
.asciiz"XMOS"
	.cc_bottom .L.str1.data
	.cc_top .L.str2.data,.L.str2
	.align	4
	.type	.L.str2,@object
	.size	.L.str2, 1
.L.str2:
	.space	1
	.space	3
	.cc_bottom .L.str2.data
	.cc_top .L.str3.data,.L.str3
	.align	4
	.type	.L.str3,@object
	.size	.L.str3, 29
.L.str3:
.asciiz"XMOS Microphone Array UAC2.0"
	.cc_bottom .L.str3.data
	.cc_top .L.str4.data,.L.str4
	.align	4
	.type	.L.str4,@object
	.size	.L.str4, 30
.L.str4:
.asciiz"XMOS Microphone Array UAC2.0 "
	.cc_bottom .L.str4.data
	.cc_top .L.str5.data,.L.str5
	.align	4
	.type	.L.str5,@object
	.size	.L.str5, 20
.L.str5:
.asciiz"XMOS Clock Selector"
	.cc_bottom .L.str5.data
	.cc_top .L.str6.data,.L.str6
	.align	4
	.type	.L.str6,@object
	.size	.L.str6, 20
.L.str6:
.asciiz"XMOS Internal Clock"
	.cc_bottom .L.str6.data
	.cc_top .L.str7.data,.L.str7
	.align	4
	.type	.L.str7,@object
	.size	.L.str7, 9
.L.str7:
.asciiz"XMOS DFU"
	.cc_bottom .L.str7.data
	.cc_top .L.str8.data,.L.str8
	.align	4
	.type	.L.str8,@object
	.size	.L.str8, 11
.L.str8:
.asciiz"Analogue 1"
	.cc_bottom .L.str8.data
	.cc_top .L.str9.data,.L.str9
	.align	4
	.type	.L.str9,@object
	.size	.L.str9, 11
.L.str9:
.asciiz"Analogue 2"
	.cc_bottom .L.str9.data
	.cc_top .L.str10.data,.L.str10
	.align	4
	.type	.L.str10,@object
	.size	.L.str10, 14
.L.str10:
.asciiz"iAP Interface"
	.cc_bottom .L.str10.data
	.section	.dp.data,"awd",@progbits
	.cc_top g_strTable.data,g_strTable
	.globl	g_strTable
	.align	8
	.type	g_strTable,@object
	.size	g_strTable, 88
g_strTable:
	.long	.L.str
	.long	.L.str1
	.long	.L.str2
	.long	.L.str3
	.long	.L.str4
	.long	.L.str4
	.long	.L.str4
	.long	.L.str4
	.long	.L.str5
	.long	.L.str6
	.long	.L.str7
	.long	.L.str8
	.long	.L.str9
	.long	.L.str2
	.long	.L.str2
	.long	.L.str2
	.long	.L.str2
	.long	.L.str2
	.long	.L.str2
	.long	.L.str2
	.long	.L.str2
	.long	.L.str10
	.cc_bottom g_strTable.data
	.cc_top devDesc_Audio2.data,devDesc_Audio2
	.globl	devDesc_Audio2
	.align	8
	.type	devDesc_Audio2,@object
	.size	devDesc_Audio2, 18
devDesc_Audio2:
	.byte	18
	.byte	1
	.short	512
	.byte	239
	.byte	2
	.byte	1
	.byte	64
	.short	8369
	.short	8
	.short	1778
	.byte	1
	.byte	3
	.byte	0
	.byte	2
	.cc_bottom devDesc_Audio2.data
	.cc_top devDesc_Null.data,devDesc_Null
	.globl	devDesc_Null.globound
devDesc_Null.globound = 18
	.globl	devDesc_Null
	.align	8
	.type	devDesc_Null,@object
	.size	devDesc_Null, 18
devDesc_Null:
	.ascii	"\022\001\000\002\000\000\000@\261 \b\000\362\006\001\003\000\001"
	.cc_bottom devDesc_Null.data
	.cc_top devQualDesc_Audio2.data,devQualDesc_Audio2
	.globl	devQualDesc_Audio2.globound
devQualDesc_Audio2.globound = 10
	.globl	devQualDesc_Audio2
	.align	8
	.type	devQualDesc_Audio2,@object
	.size	devQualDesc_Audio2, 10
devQualDesc_Audio2:
.asciiz"\n\006\000\002\357\002\001@\001"
	.cc_bottom devQualDesc_Audio2.data
	.cc_top devQualDesc_Null.data,devQualDesc_Null
	.globl	devQualDesc_Null.globound
devQualDesc_Null.globound = 10
	.globl	devQualDesc_Null
	.align	8
	.type	devQualDesc_Null,@object
	.size	devQualDesc_Null, 10
devQualDesc_Null:
.asciiz"\n\006\000\002\000\000\000@\001"
	.cc_bottom devQualDesc_Null.data
	.cc_top cfgDesc_Audio2.data,cfgDesc_Audio2
	.globl	cfgDesc_Audio2
	.align	8
	.type	cfgDesc_Audio2,@object
	.size	cfgDesc_Audio2, 343
cfgDesc_Audio2:
	.byte	9
	.byte	2
	.short	343
	.byte	4
	.byte	1
	.byte	0
	.byte	128
	.byte	250
	.byte	8
	.byte	11
	.byte	0
	.byte	3
	.byte	1
	.byte	0
	.byte	32
	.byte	0
	.byte	9
	.byte	4
	.byte	0
	.byte	0
	.byte	0
	.byte	1
	.byte	1
	.byte	32
	.byte	3
	.byte	9
	.byte	36
	.byte	1
	.short	512
	.byte	8
	.short	143
	.byte	0
	.byte	8
	.byte	36
	.byte	10
	.byte	41
	.byte	3
	.byte	7
	.byte	0
	.byte	9
	.byte	8
	.byte	36
	.byte	11
	.byte	40
	.byte	1
	.byte	41
	.byte	3
	.byte	8
	.byte	17
	.byte	36
	.byte	2
	.byte	2
	.short	257
	.byte	0
	.byte	40
	.byte	2
	.long	0
	.byte	11
	.short	0
	.byte	6
	.byte	18
	.byte	36
	.byte	6
	.byte	10
	.byte	2
	.long	15
	.long	15
	.long	15
	.byte	0
	.byte	12
	.byte	36
	.byte	3
	.byte	20
	.short	769
	.byte	0
	.byte	10
	.byte	40
	.short	0
	.byte	0
	.byte	17
	.byte	36
	.byte	2
	.byte	1
	.short	513
	.byte	0
	.byte	40
	.byte	8
	.long	0
	.byte	13
	.short	0
	.byte	0
	.byte	42
	.byte	36
	.byte	6
	.byte	11
	.byte	1
	.long	15
	.long	15
	.long	15
	.long	15
	.long	15
	.long	15
	.long	15
	.long	15
	.long	15
	.byte	0
	.byte	12
	.byte	36
	.byte	3
	.byte	22
	.short	257
	.byte	0
	.byte	11
	.byte	40
	.short	0
	.byte	7
	.byte	9
	.byte	4
	.byte	1
	.byte	0
	.byte	0
	.byte	1
	.byte	2
	.byte	32
	.byte	4
	.byte	9
	.byte	4
	.byte	1
	.byte	1
	.byte	1
	.byte	1
	.byte	2
	.byte	32
	.byte	4
	.byte	16
	.byte	36
	.byte	1
	.byte	2
	.byte	0
	.byte	1
	.long	1
	.byte	2
	.long	0
	.byte	11
	.byte	6
	.byte	36
	.byte	2
	.byte	1
	.byte	4
	.byte	24
	.byte	7
	.byte	5
	.byte	1
	.byte	5
	.short	56
	.byte	1
	.byte	8
	.byte	37
	.byte	1
	.byte	0
	.byte	0
	.byte	2
	.short	8
	.byte	9
	.byte	4
	.byte	1
	.byte	2
	.byte	1
	.byte	1
	.byte	2
	.byte	32
	.byte	4
	.byte	16
	.byte	36
	.byte	1
	.byte	2
	.byte	0
	.byte	1
	.long	1
	.byte	2
	.long	0
	.byte	11
	.byte	6
	.byte	36
	.byte	2
	.byte	1
	.byte	2
	.byte	16
	.byte	7
	.byte	5
	.byte	1
	.byte	5
	.short	28
	.byte	1
	.byte	8
	.byte	37
	.byte	1
	.byte	0
	.byte	0
	.byte	2
	.short	8
	.byte	9
	.byte	4
	.byte	2
	.byte	0
	.byte	0
	.byte	1
	.byte	2
	.byte	32
	.byte	5
	.byte	9
	.byte	4
	.byte	2
	.byte	1
	.byte	1
	.byte	1
	.byte	2
	.byte	32
	.byte	5
	.byte	16
	.byte	36
	.byte	1
	.byte	22
	.byte	0
	.byte	1
	.long	1
	.byte	8
	.long	0
	.byte	13
	.byte	6
	.byte	36
	.byte	2
	.byte	1
	.byte	4
	.byte	24
	.byte	7
	.byte	5
	.byte	129
	.byte	37
	.short	224
	.byte	1
	.byte	8
	.byte	37
	.byte	1
	.byte	0
	.byte	0
	.byte	2
	.short	8
	.ascii	"\t\004\003\000\000\376\001\001\n\t!\007\372\000@\000\020\001"
	.cc_bottom cfgDesc_Audio2.data
	.cc_top cfgDesc_Null.data,cfgDesc_Null
	.globl	cfgDesc_Null.globound
cfgDesc_Null.globound = 19
	.globl	cfgDesc_Null
	.align	8
	.type	cfgDesc_Null,@object
	.size	cfgDesc_Null, 19
cfgDesc_Null:
	.ascii	"\t\002\022\000\001\001\000\200\372\t\004\000\000\000\000\000\000\000\t"
	.cc_bottom cfgDesc_Null.data
	.cc_top DFUdevDesc.data,DFUdevDesc
	.globl	DFUdevDesc.globound
DFUdevDesc.globound = 18
	.globl	DFUdevDesc
	.align	8
	.type	DFUdevDesc,@object
	.size	DFUdevDesc, 18
DFUdevDesc:
	.ascii	"\022\001\000\002\000\000\000@\261 \b\000\362\006\001\003\000\001"
	.cc_bottom DFUdevDesc.data
	.cc_top DFUcfgDesc.data,DFUcfgDesc
	.globl	DFUcfgDesc.globound
DFUcfgDesc.globound = 27
	.globl	DFUcfgDesc
	.align	8
	.type	DFUcfgDesc,@object
	.size	DFUcfgDesc, 27
DFUcfgDesc:
	.ascii	"\t\002\033\000\001\001\000\3002\t\004\000\000\000\376\001\002\000\t!\007\372\000@\000\020\001"
	.cc_bottom DFUcfgDesc.data
	.section	.dp.bss.4,"awd",@nobits
	.cc_top DFU_mode_active.data,DFU_mode_active
	.globl	DFU_mode_active
	.align	4
	.type	DFU_mode_active,@object
	.size	DFU_mode_active, 4
DFU_mode_active:
	.long	0
	.cc_bottom DFU_mode_active.data
	.cc_top g_curStreamAlt_Out.data,g_curStreamAlt_Out
	.globl	g_curStreamAlt_Out
	.align	4
	.type	g_curStreamAlt_Out,@object
	.size	g_curStreamAlt_Out, 4
g_curStreamAlt_Out:
	.long	0
	.cc_bottom g_curStreamAlt_Out.data
	.cc_top g_curStreamAlt_In.data,g_curStreamAlt_In
	.globl	g_curStreamAlt_In
	.align	4
	.type	g_curStreamAlt_In,@object
	.size	g_curStreamAlt_In, 4
g_curStreamAlt_In:
	.long	0
	.cc_bottom g_curStreamAlt_In.data
	.cc_top g_curUsbSpeed.data,g_curUsbSpeed
	.globl	g_curUsbSpeed
	.align	4
	.type	g_curUsbSpeed,@object
	.size	g_curUsbSpeed, 4
g_curUsbSpeed:
	.long	0
	.cc_bottom g_curUsbSpeed.data
	.section	.cp.rodata,"ac",@progbits
	.cc_top g_subSlot_Out_HS.data,g_subSlot_Out_HS
	.globl	g_subSlot_Out_HS.globound
g_subSlot_Out_HS.globound = 2
	.globl	g_subSlot_Out_HS
	.align	8
	.type	g_subSlot_Out_HS,@object
	.size	g_subSlot_Out_HS, 8
g_subSlot_Out_HS:
	.long	4
	.long	2
	.cc_bottom g_subSlot_Out_HS.data
	.cc_top g_subSlot_Out_FS.data,g_subSlot_Out_FS
	.globl	g_subSlot_Out_FS.globound
g_subSlot_Out_FS.globound = 2
	.globl	g_subSlot_Out_FS
	.align	8
	.type	g_subSlot_Out_FS,@object
	.size	g_subSlot_Out_FS, 8
g_subSlot_Out_FS:
	.long	3
	.long	2
	.cc_bottom g_subSlot_Out_FS.data
	.cc_top g_subSlot_In_HS.data,g_subSlot_In_HS
	.globl	g_subSlot_In_HS.globound
g_subSlot_In_HS.globound = 1
	.globl	g_subSlot_In_HS
	.align	8
	.type	g_subSlot_In_HS,@object
	.size	g_subSlot_In_HS, 4
g_subSlot_In_HS:
	.long	4
	.cc_bottom g_subSlot_In_HS.data
	.cc_top g_subSlot_In_FS.data,g_subSlot_In_FS
	.globl	g_subSlot_In_FS.globound
g_subSlot_In_FS.globound = 1
	.globl	g_subSlot_In_FS
	.align	8
	.type	g_subSlot_In_FS,@object
	.size	g_subSlot_In_FS, 4
g_subSlot_In_FS:
	.long	3
	.cc_bottom g_subSlot_In_FS.data
	.cc_top g_sampRes_Out_HS.data,g_sampRes_Out_HS
	.globl	g_sampRes_Out_HS.globound
g_sampRes_Out_HS.globound = 2
	.globl	g_sampRes_Out_HS
	.align	8
	.type	g_sampRes_Out_HS,@object
	.size	g_sampRes_Out_HS, 8
g_sampRes_Out_HS:
	.long	24
	.long	16
	.cc_bottom g_sampRes_Out_HS.data
	.cc_top g_sampRes_Out_FS.data,g_sampRes_Out_FS
	.globl	g_sampRes_Out_FS.globound
g_sampRes_Out_FS.globound = 2
	.globl	g_sampRes_Out_FS
	.align	8
	.type	g_sampRes_Out_FS,@object
	.size	g_sampRes_Out_FS, 8
g_sampRes_Out_FS:
	.long	24
	.long	16
	.cc_bottom g_sampRes_Out_FS.data
	.cc_top g_sampRes_In_HS.data,g_sampRes_In_HS
	.globl	g_sampRes_In_HS.globound
g_sampRes_In_HS.globound = 1
	.globl	g_sampRes_In_HS
	.align	8
	.type	g_sampRes_In_HS,@object
	.size	g_sampRes_In_HS, 4
g_sampRes_In_HS:
	.long	24
	.cc_bottom g_sampRes_In_HS.data
	.cc_top g_sampRes_In_FS.data,g_sampRes_In_FS
	.globl	g_sampRes_In_FS.globound
g_sampRes_In_FS.globound = 1
	.globl	g_sampRes_In_FS
	.align	8
	.type	g_sampRes_In_FS,@object
	.size	g_sampRes_In_FS, 4
g_sampRes_In_FS:
	.long	24
	.cc_bottom g_sampRes_In_FS.data
	.cc_top g_dataFormat_Out.data,g_dataFormat_Out
	.globl	g_dataFormat_Out.globound
g_dataFormat_Out.globound = 2
	.globl	g_dataFormat_Out
	.align	8
	.type	g_dataFormat_Out,@object
	.size	g_dataFormat_Out, 8
g_dataFormat_Out:
	.long	1
	.long	1
	.cc_bottom g_dataFormat_Out.data
	.cc_top g_dataFormat_In.data,g_dataFormat_In
	.globl	g_dataFormat_In.globound
g_dataFormat_In.globound = 1
	.globl	g_dataFormat_In
	.align	8
	.type	g_dataFormat_In,@object
	.size	g_dataFormat_In, 4
g_dataFormat_In:
	.long	1
	.cc_bottom g_dataFormat_In.data
	.cc_top g_chanCount_In_HS.data,g_chanCount_In_HS
	.globl	g_chanCount_In_HS.globound
g_chanCount_In_HS.globound = 1
	.globl	g_chanCount_In_HS
	.align	8
	.type	g_chanCount_In_HS,@object
	.size	g_chanCount_In_HS, 4
g_chanCount_In_HS:
	.long	8
	.cc_bottom g_chanCount_In_HS.data
	.section	.dp.bss,"awd",@nobits
	.cc_top volsOut.data,volsOut
	.globl	volsOut.globound
volsOut.globound = 3
	.globl	volsOut
	.align	8
	.type	volsOut,@object
	.size	volsOut, 12
volsOut:
	.space	12
	.cc_bottom volsOut.data
	.cc_top mutesOut.data,mutesOut
	.globl	mutesOut.globound
mutesOut.globound = 3
	.globl	mutesOut
	.align	8
	.type	mutesOut,@object
	.size	mutesOut, 12
mutesOut:
	.space	12
	.cc_bottom mutesOut.data
	.cc_top volsIn.data,volsIn
	.globl	volsIn.globound
volsIn.globound = 9
	.globl	volsIn
	.align	8
	.type	volsIn,@object
	.size	volsIn, 36
volsIn:
	.space	36
	.cc_bottom volsIn.data
	.cc_top mutesIn.data,mutesIn
	.globl	mutesIn.globound
mutesIn.globound = 9
	.globl	mutesIn
	.align	8
	.type	mutesIn,@object
	.size	mutesIn, 36
mutesIn:
	.space	36
	.cc_bottom mutesIn.data
	.section	.cp.rodata,"ac",@progbits
.Ldebug_end0:
	.section	.dp.bss.4,"awd",@nobits
.Ldebug_end1:
	.section	.dp.bss,"awd",@nobits
.Ldebug_end2:
	.section	.dp.data,"awd",@progbits
.Ldebug_end3:
	.text
.Ldebug_end4:
	.file	10 "/Applications/XMOS_XTC_15.1.4/target/include/xccompat.h"
	.file	11 "/Users/rcalhoun/code/git/sw_usb_audio/sc_usb/module_usb_shared/src/usb_std_requests.h"
	.section	.trap_info,"",@progbits
.Ltrap_info_entries_start0:
	.long	.Ltrap_info_entries_end0-.Ltrap_info_entries_start0
	.long	1
.Ltrap_info_entries_end0: